"File: Control.c     Assembler  Version HGASM0202      Page 1


   1  0000              ; Generated by holtek-gcc v3.19, Mon Jun 17 17:35:22 2019
   2  0000              ; 
   3  0000              ; Configuration:
   4  0000              ;       with long instruction
   5  0000              ;       Single ROM, Multi-RAM
   6  0000              ;       bits_per_rom_unit:16
   7  0000              ;       with mp1
   8  0000              ;       with tbhp, address(0x9)
   9  0000              ;          Use tabrd-const
  10  0000              ;       
  11  0000              ; SFR address of long-instruction arch:
  12  0000              ;    mp0 = -1,1,0
  13  0000              ;    mp1 = 4,3,2
  14  0000              ;    mp2 = 14,13,12
  15  0000              ;    tbp = 9,7,8
  16  0000              ;    acc = 5
  17  0000              ;    pcl = 6
  18  0000              ;    status = 10
  19  0000              ;    bp = 11
  20  0000              ;    intc = 21
  21  0000              ;       
  22  0000              ;       
  23  0000              ; use 'tabrdc' instead of 'tabrd'
  24  0000              ;       
  25  0000              
  26  0000              #pragma translator "holtek-gcc 4.6.4" "3.19" "build 20130711"
  27  0000              ; Rebuild 115
  28  0000              
  29  0000              ir equ [2]
  30  0000              mp equ [3]
  31  0000              sbp equ [4]
  32  0000              acc equ [5]
  33  0000              bp equ [11]
  34  0000              tblp equ [7]
  35  0000              tbhp equ [9]
  36  0000              status equ [10]
  37  0000              c equ [10].0
  38  0000              ac equ [10].1
  39  0000              z equ [10].2
  40  0000              ov equ [10].3
  41  0000              cz equ [10].6
  42  0000              sc equ [10].7
  43  0000              intc equ [21]
  44  0000              mdu0r0 equ [73h]
  45  0000              mdu0r1 equ [74h]
  46  0000              mdu0ctrl equ [75h]
  47  0000              mduwr0 equ [76h]
  48  0000              mduwr1 equ [77h]
  49  0000              mduwr2 equ [78h]
  50  0000              mduwr3 equ [7ah]
  51  0000              mduwr4 equ [7bh]
  52  0000              mduwr5 equ [7ch]
  53  0000              mduwrctrl equ [7dh]
  54  0000              
  55  0000              extern ra:byte
  56  0000              extern rb:byte
  57  0000              extern rc:byte
  58  0000              extern rd:byte
  59  0000              extern re:byte
"File: Control.ASM   Assembler  Version HGASM0202      Page 2

  60  0000              extern rf:byte
  61  0000              extern rg:byte
  62  0000              extern rh:byte
  63  0000              extern _Crom2Prom:near
  64  0000              extern _Crom2PromNext:near
  65  0000              
  66  0000              RAMBANK 0 @BITDATASEC, @BITDATASEC1
  67  0000              @HCCINIT	.section 'data'
  68  0000              @HCCINIT0	.section 'data'
  69  0000              @BITDATASEC	 .section 'data'
  70  0000              @BITDATASEC1	 .section 'data'
  71  0000              
  72  0000              #pragma debug scope 1 1
  73  0000              	extern __DELAY3:near
  74  0000              	extern __DELAYX3:near
  75  0000              	extern __DELAYX6:near
  76  0000              	extern __DELAYY5:near
  77  0000              	extern __DELAYY3:near
  78  0000              	extern _builtin_holtek_delay_2:byte
  79  0000              ___intc0 equ [21]
  80  0000              ___mptc1 equ [75]
  81  0000              ___mcd equ [101]
  82  0000              ___hdcr equ [73]
  83  0000              ___hdcd equ [74]
  84  0000              ___captmdl equ [48]
  85  0000              ___captmdh equ [49]
  86  0000              ___captc0 equ [46]
  87  0000              public _HandleSpeed
  88  0000              #pragma debug scope 2 1

  45  0000              #line 45 "D:\WORK\Project\Github\Holtel-MCU\HT66FM5x40\HT66FM5240範例說明\NoHallExampleCode-20140819\Control.c"
  45  0000              _HandleSpeed .section 'code'
  45  0000              _HandleSpeed proc
  45  0000  00              local _HandleSpeed_2 db 1 dup(?)	; 0,1
  46  0001              #line 46 "D:\WORK\Project\Github\Holtel-MCU\HT66FM5x40\HT66FM5240範例說明\NoHallExampleCode-20140819\Control.c"
  46  0000  0700     R  	mov a,_MC_HanderBarAD[0]
  46  0001  0300     E  	add a,_AdData[2]
  46  0002  0080     E  	mov rb,a
  46  0003  0700     R  	mov a,_MC_HanderBarAD[1]
  46  0004  1300     E  	adc a,_AdData[3]
  46  0005  0080     E  	mov rc,a
  46  0006  340A        	clr c
  46  0007  1B80     E  	rrc rc
  46  0008  1B80     E  	rrc rb
  46  0009  0700     E  	mov a,rb
  46  000A  0080     R  	mov _MC_HanderBarAD[0],a
  46  000B  0700     E  	mov a,rc
  46  000C  0080     R  	mov _MC_HanderBarAD[1],a
  48  000D              #line 48 "D:\WORK\Project\Github\Holtel-MCU\HT66FM5x40\HT66FM5240範例說明\NoHallExampleCode-20140819\Control.c"
  48  000D  0700     E  	mov a,_Flag01[0]
  48  000E  0080     R  	mov _HandleSpeed_2[0],a
  48  000F  3800     R  	snz _HandleSpeed_2[0].1
  48  0010  2800     R  	jmp _L2
  50  0011              #line 50 "D:\WORK\Project\Github\Holtel-MCU\HT66FM5x40\HT66FM5240範例說明\NoHallExampleCode-20140819\Control.c"
  50  0011  1F00     R  	clr _MC_DecPWM[0]
  50  0012  1F00     R  	clr _MC_DecPWM[1]
  51  0013              #line 51 "D:\WORK\Project\Github\Holtel-MCU\HT66FM5x40\HT66FM5240範例說明\NoHallExampleCode-20140819\Control.c"
  51  0013  1F00     R  	clr _MC_ActPWM[0]
  51  0014  1F00     R  	clr _MC_ActPWM[1]
  53  0015              #line 53 "D:\WORK\Project\Github\Holtel-MCU\HT66FM5x40\HT66FM5240範例說明\NoHallExampleCode-20140819\Control.c"
"File: Control.c     Assembler  Version HGASM0202      Page 3

  53  0015  0F3C        	mov a,60
  53  0016  0200     E  	sub a,rb
  53  0017  0F00        	mov a,0
  53  0018  1200     E  	sbc a,rc
  53  0019  380A        	snz c
  53  001A  2800     R  	jmp _L4
  55  001B              #line 55 "D:\WORK\Project\Github\Holtel-MCU\HT66FM5x40\HT66FM5240範例說明\NoHallExampleCode-20140819\Control.c"
  55  001B  3400     E  	clr _Flag01[0].1
  55  001C  2800     R  	jmp _L4
  55  001D              _L2:
  58  001D              #line 58 "D:\WORK\Project\Github\Holtel-MCU\HT66FM5x40\HT66FM5240範例說明\NoHallExampleCode-20140819\Control.c"
  58  001D  0F7D        	mov a,125
  58  001E  0200     E  	sub a,rb
  58  001F  0F00        	mov a,0
  58  0020  1200     E  	sbc a,rc
  58  0021  3C0A        	sz c
  58  0022  2800     R  	jmp _L5
  60  0023              #line 60 "D:\WORK\Project\Github\Holtel-MCU\HT66FM5x40\HT66FM5240範例說明\NoHallExampleCode-20140819\Control.c"
  60  0023  3C00     R  	sz _HandleSpeed_2[0].2
  60  0024  2800     R  	jmp _L6
  62  0025              #line 62 "D:\WORK\Project\Github\Holtel-MCU\HT66FM5x40\HT66FM5240範例說明\NoHallExampleCode-20140819\Control.c"
  62  0025  3415        	clr [21].0
  63  0026              #line 63 "D:\WORK\Project\Github\Holtel-MCU\HT66FM5x40\HT66FM5240範例說明\NoHallExampleCode-20140819\Control.c"
  63  0026  3800     R  	snz _HandleSpeed_2[0].0
  63  0027  2800     R  	jmp _L7
  66  0028              #line 66 "D:\WORK\Project\Github\Holtel-MCU\HT66FM5x40\HT66FM5240範例說明\NoHallExampleCode-20140819\Control.c"
  66  0028  0F45        	mov a,69
  66  0029  0200     E  	sub a,_AdData[0]
  66  002A  0F00        	mov a,0
  66  002B  1200     E  	sbc a,_AdData[1]
  66  002C  380A        	snz c
  66  002D  2800     R  	jmp _L8
  68  002E              #line 68 "D:\WORK\Project\Github\Holtel-MCU\HT66FM5x40\HT66FM5240範例說明\NoHallExampleCode-20140819\Control.c"
  68  002E  334B        	set [75].6
  69  002F              #line 69 "D:\WORK\Project\Github\Holtel-MCU\HT66FM5x40\HT66FM5240範例說明\NoHallExampleCode-20140819\Control.c"
  69  002F  37CB        	clr [75].7
  70  0030              #line 70 "D:\WORK\Project\Github\Holtel-MCU\HT66FM5x40\HT66FM5240範例說明\NoHallExampleCode-20140819\Control.c"
  70  0030  374B        	clr [75].6
  70  0031              _L8:
  74  0031              #line 74 "D:\WORK\Project\Github\Holtel-MCU\HT66FM5x40\HT66FM5240範例說明\NoHallExampleCode-20140819\Control.c"
  74  0031  3400     E  	clr _Flag01[0].0
  75  0032              #line 75 "D:\WORK\Project\Github\Holtel-MCU\HT66FM5x40\HT66FM5240範例說明\NoHallExampleCode-20140819\Control.c"
  75  0032  3800     E  	snz _Flag01[0].0
  75  0033  2800     R  	jmp _L9
  77  0034              #line 77 "D:\WORK\Project\Github\Holtel-MCU\HT66FM5x40\HT66FM5240範例說明\NoHallExampleCode-20140819\Control.c"
  77  0034  3000     E  	set _Flag01[0].1
  77  0035  2800     R  	jmp _L9
  77  0036              _L7:
  82  0036              #line 82 "D:\WORK\Project\Github\Holtel-MCU\HT66FM5x40\HT66FM5240範例說明\NoHallExampleCode-20140819\Control.c"
  82  0036  0765        	mov a,[101]
  82  0037  0E07        	and a,7
  82  0038  0080     R  	mov _HandleSpeed_2[0],a
  82  0039  0700     R  	mov a,_HandleSpeed_2[0]
  82  003A  0080     R  	mov _MC_HallPortVal[0],a
  92  003B              #line 92 "D:\WORK\Project\Github\Holtel-MCU\HT66FM5x40\HT66FM5240範例說明\NoHallExampleCode-20140819\Control.c"
  92  003B  0700     R  	mov a,_MC_SpeedTime[0]
  92  003C  0080     E  	mov rb,a
  92  003D  0700     R  	mov a,_MC_SpeedTime[1]
  92  003E  0080     E  	mov rc,a
  92  003F  0700     E  	mov a,rb
"File: Control.c     Assembler  Version HGASM0202      Page 4

  92  0040  0080     R  	mov _MC_PrevSpeedTime[0],a
  92  0041  0700     E  	mov a,rc
  92  0042  0080     R  	mov _MC_PrevSpeedTime[1],a
  95  0043              #line 95 "D:\WORK\Project\Github\Holtel-MCU\HT66FM5x40\HT66FM5240範例說明\NoHallExampleCode-20140819\Control.c"
  95  0043  0FF4        	mov a,244
  95  0044  0200     E  	sub a,rb
  95  0045  0F01        	mov a,1
  95  0046  1200     E  	sbc a,rc
  95  0047  380A        	snz c
  95  0048  2800     R  	jmp _L10
  95  0049  0700     R  	mov a,_HandleSpeed_2[0]
  95  004A  0200     R  	sub a,_MC_ErrHallVal1[0]
  95  004B  3D0A        	sz z
  95  004C  2800     R  	jmp _L10
  95  004D  0700     R  	mov a,_HandleSpeed_2[0]
  95  004E  0200     R  	sub a,_MC_ErrHallVal2[0]
  95  004F  390A        	snz z
  95  0050  2800     R  	jmp _L11
  95  0051              _L10:
 108  0051              #line 108 "D:\WORK\Project\Github\Holtel-MCU\HT66FM5x40\HT66FM5240範例說明\NoHallExampleCode-20140819\Control.c"
 108  0051  3000     E  	set _Flag02[0].0
 109  0052              #line 109 "D:\WORK\Project\Github\Holtel-MCU\HT66FM5x40\HT66FM5240範例說明\NoHallExampleCode-20140819\Control.c"
 109  0052  1F00     E  	clr _TakeTurnOkCnt[0]
 110  0053              #line 110 "D:\WORK\Project\Github\Holtel-MCU\HT66FM5x40\HT66FM5240範例說明\NoHallExampleCode-20140819\Control.c"
 110  0053  0F06        	mov a,6
 110  0054  0080     R  	mov _MC_HallPortVal[0],a
 110  0055  2800     R  	jmp _L12
 110  0056              _L11:
 115  0056              #line 115 "D:\WORK\Project\Github\Holtel-MCU\HT66FM5x40\HT66FM5240範例說明\NoHallExampleCode-20140819\Control.c"
 115  0056  3400     E  	clr _Flag02[0].0
 115  0057              _L12:
 118  0057              #line 118 "D:\WORK\Project\Github\Holtel-MCU\HT66FM5x40\HT66FM5240範例說明\NoHallExampleCode-20140819\Control.c"
 118  0057  0700     R  	mov a,_MC_HallPortVal[0]
 118  0058  0080     R  	mov _MC_NewHall[0],a
 119  0059              #line 119 "D:\WORK\Project\Github\Holtel-MCU\HT66FM5x40\HT66FM5240範例說明\NoHallExampleCode-20140819\Control.c"
 119  0059  0FC8        	mov a,200
 119  005A  0080     R  	mov _MC_MotorStartCnt[0],a
 120  005B              #line 120 "D:\WORK\Project\Github\Holtel-MCU\HT66FM5x40\HT66FM5240範例說明\NoHallExampleCode-20140819\Control.c"
 120  005B  0F64        	mov a,100
 120  005C  0200     E  	sub a,rb
 120  005D  0F00        	mov a,0
 120  005E  1200     E  	sbc a,rc
 120  005F  3C0A        	sz c
 120  0060  2800     R  	jmp _L13
 122  0061              #line 122 "D:\WORK\Project\Github\Holtel-MCU\HT66FM5x40\HT66FM5240範例說明\NoHallExampleCode-20140819\Control.c"
 122  0061  0F64        	mov a,100
 122  0062  0080     R  	mov _MC_PrevSpeedTime[0],a
 122  0063  1F00     R  	clr _MC_PrevSpeedTime[1]
 122  0064              _L13:
 134  0064              #line 134 "D:\WORK\Project\Github\Holtel-MCU\HT66FM5x40\HT66FM5240範例說明\NoHallExampleCode-20140819\Control.c"
 134  0064  0700     R  	mov a,_MC_PrevSpeedTime[0]
 134  0065  0080     R  	mov _MC_HallDelayTime[0],a
 134  0066  0700     R  	mov a,_MC_PrevSpeedTime[1]
 134  0067  0080     R  	mov _MC_HallDelayTime[1],a
 135  0068              #line 135 "D:\WORK\Project\Github\Holtel-MCU\HT66FM5x40\HT66FM5240範例說明\NoHallExampleCode-20140819\Control.c"
 135  0068  1F00     E  	clr ra
 135  0069  3C00     E  	sz _Flag01[0].5
 135  006A  1480     E  	inc ra
 135  006B  0700     E  	mov a,ra
 135  006C  0380     E  	addm a,ra
"File: Control.c     Assembler  Version HGASM0202      Page 5

 135  006D  34C9        	clr [73].1
 135  006E  0700     E  	mov a,ra
 135  006F  05C9        	orm a,[73]
 154  0070              #line 154 "D:\WORK\Project\Github\Holtel-MCU\HT66FM5x40\HT66FM5240範例說明\NoHallExampleCode-20140819\Control.c"
 154  0070  1F00     R  	clr _MC_SpeedTime[0]
 154  0071  1F00     R  	clr _MC_SpeedTime[1]
 155  0072              #line 155 "D:\WORK\Project\Github\Holtel-MCU\HT66FM5x40\HT66FM5240範例說明\NoHallExampleCode-20140819\Control.c"
 155  0072  3000     E  	set _Flag01[0].2
 156  0073              #line 156 "D:\WORK\Project\Github\Holtel-MCU\HT66FM5x40\HT66FM5240範例說明\NoHallExampleCode-20140819\Control.c"
 156  0073  0F14        	mov a,20
 156  0074  0080     R  	mov _MC_ActPWM[0],a
 156  0075  1F00     R  	clr _MC_ActPWM[1]
 157  0076              #line 157 "D:\WORK\Project\Github\Holtel-MCU\HT66FM5x40\HT66FM5240範例說明\NoHallExampleCode-20140819\Control.c"
 157  0076  0F14        	mov a,20
 157  0077  0080     E  	mov _SetDuty_2[0],a
 157  0078  1F00     E  	clr _SetDuty_2[1]
 157  0079  2000     E  	call _SetDuty
 158  007A              #line 158 "D:\WORK\Project\Github\Holtel-MCU\HT66FM5x40\HT66FM5240範例說明\NoHallExampleCode-20140819\Control.c"
 158  007A  0F02        	mov a,2
 158  007B  0080     E  	mov _Delay_2us_2[0],a
 158  007C  1F00     E  	clr _Delay_2us_2[1]
 158  007D  2000     E  	call _Delay_2us
 159  007E              #line 159 "D:\WORK\Project\Github\Holtel-MCU\HT66FM5x40\HT66FM5240範例說明\NoHallExampleCode-20140819\Control.c"
 159  007E  0700     R  	mov a,_MC_NewHall[0]
 159  007F  00CA        	mov [74],a
 160  0080              #line 160 "D:\WORK\Project\Github\Holtel-MCU\HT66FM5x40\HT66FM5240範例說明\NoHallExampleCode-20140819\Control.c"
 160  0080  1F30        	clr [48]
 160  0081  1F31        	clr [49]
 160  0082  31AE        	set [46].3
 160  0083              _L9:
 163  0083              #line 163 "D:\WORK\Project\Github\Holtel-MCU\HT66FM5x40\HT66FM5240範例說明\NoHallExampleCode-20140819\Control.c"
 163  0083  3015        	set [21].0
 163  0084              _L6:
 166  0084              #line 166 "D:\WORK\Project\Github\Holtel-MCU\HT66FM5x40\HT66FM5240範例說明\NoHallExampleCode-20140819\Control.c"
 166  0084  3800     E  	snz _Flag02[0].0
 166  0085  2800     R  	jmp _L14
 168  0086              #line 168 "D:\WORK\Project\Github\Holtel-MCU\HT66FM5x40\HT66FM5240範例說明\NoHallExampleCode-20140819\Control.c"
 168  0086  0F14        	mov a,20
 168  0087  0080     R  	mov _MC_DecPWM[0],a
 168  0088  1F00     R  	clr _MC_DecPWM[1]
 168  0089  2800     R  	jmp _L15
 168  008A              _L14:
 173  008A              #line 173 "D:\WORK\Project\Github\Holtel-MCU\HT66FM5x40\HT66FM5240範例說明\NoHallExampleCode-20140819\Control.c"
 173  008A  0F83        	mov a,131
 173  008B  0300     R  	add a,_MC_HanderBarAD[0]
 173  008C  0080     R  	mov _MC_DecPWM[0],a
 173  008D  0FFF        	mov a,255
 173  008E  1300     R  	adc a,_MC_HanderBarAD[1]
 173  008F  0080     R  	mov _MC_DecPWM[1],a
 173  0090              _L15:
 176  0090              #line 176 "D:\WORK\Project\Github\Holtel-MCU\HT66FM5x40\HT66FM5240範例說明\NoHallExampleCode-20140819\Control.c"
 176  0090  0F13        	mov a,19
 176  0091  0200     R  	sub a,_MC_DecPWM[0]
 176  0092  0F00        	mov a,0
 176  0093  1200     R  	sbc a,_MC_DecPWM[1]
 176  0094  380A        	snz c
 176  0095  2800     R  	jmp _L16
 178  0096              #line 178 "D:\WORK\Project\Github\Holtel-MCU\HT66FM5x40\HT66FM5240範例說明\NoHallExampleCode-20140819\Control.c"
 178  0096  0F14        	mov a,20
 178  0097  0080     R  	mov _MC_DecPWM[0],a
"File: Control.c     Assembler  Version HGASM0202      Page 6

 178  0098  1F00     R  	clr _MC_DecPWM[1]
 178  0099              _L16:
 181  0099              #line 181 "D:\WORK\Project\Github\Holtel-MCU\HT66FM5x40\HT66FM5240範例說明\NoHallExampleCode-20140819\Control.c"
 181  0099  0F82        	mov a,130
 181  009A  0200     R  	sub a,_MC_DecPWM[0]
 181  009B  0F02        	mov a,2
 181  009C  1200     R  	sbc a,_MC_DecPWM[1]
 181  009D  3C0A        	sz c
 181  009E  2800     R  	jmp _L4
 183  009F              #line 183 "D:\WORK\Project\Github\Holtel-MCU\HT66FM5x40\HT66FM5240範例說明\NoHallExampleCode-20140819\Control.c"
 183  009F  0F82        	mov a,-126
 183  00A0  0080     R  	mov _MC_DecPWM[0],a
 183  00A1  0F02        	mov a,2
 183  00A2  0080     R  	mov _MC_DecPWM[1],a
 183  00A3  2800     R  	jmp _L4
 183  00A4              _L5:
 188  00A4              #line 188 "D:\WORK\Project\Github\Holtel-MCU\HT66FM5x40\HT66FM5240範例說明\NoHallExampleCode-20140819\Control.c"
 188  00A4  1F00     R  	clr _MC_DecPWM[0]
 188  00A5  1F00     R  	clr _MC_DecPWM[1]
 188  00A6              _L4:
 191  00A6              #line 191 "D:\WORK\Project\Github\Holtel-MCU\HT66FM5x40\HT66FM5240範例說明\NoHallExampleCode-20140819\Control.c"
 191  00A6  0700     R  	mov a,_MC_DecPWM[0]
 191  00A7  0080     E  	mov rd,a
 191  00A8  0700     R  	mov a,_MC_DecPWM[1]
 191  00A9  0080     E  	mov re,a
 191  00AA  0700     R  	mov a,_MC_ActPWM[0]
 191  00AB  0080     E  	mov rb,a
 191  00AC  0700     R  	mov a,_MC_ActPWM[1]
 191  00AD  0080     E  	mov rc,a
 191  00AE  0700     E  	mov a,rb
 191  00AF  0200     E  	sub a,rd
 191  00B0  0700     E  	mov a,rc
 191  00B1  1200     E  	sbc a,re
 191  00B2  3C0A        	sz c
 191  00B3  2800     R  	jmp _L18
 193  00B4              #line 193 "D:\WORK\Project\Github\Holtel-MCU\HT66FM5x40\HT66FM5240範例說明\NoHallExampleCode-20140819\Control.c"
 193  00B4  0F14        	mov a,20
 193  00B5  0300     E  	add a,rb
 193  00B6  0080     E  	mov rf,a
 193  00B7  0F00        	mov a,0
 193  00B8  1300     E  	adc a,rc
 193  00B9  0080     E  	mov rg,a
 193  00BA  0700     E  	mov a,rf
 193  00BB  0200     E  	sub a,rd
 193  00BC  0700     E  	mov a,rg
 193  00BD  1200     E  	sbc a,re
 193  00BE  3C0A        	sz c
 193  00BF  2800     R  	jmp _L19
 195  00C0              #line 195 "D:\WORK\Project\Github\Holtel-MCU\HT66FM5x40\HT66FM5240範例說明\NoHallExampleCode-20140819\Control.c"
 195  00C0  0F03        	mov a,3
 195  00C1  0300     E  	add a,rb
 195  00C2  0080     R  	mov _MC_ActPWM[0],a
 195  00C3  0F00        	mov a,0
 195  00C4  1300     E  	adc a,rc
 195  00C5  0080     R  	mov _MC_ActPWM[1],a
 195  00C6  2800     R  	jmp _L20
 195  00C7              _L19:
 197  00C7              #line 197 "D:\WORK\Project\Github\Holtel-MCU\HT66FM5x40\HT66FM5240範例說明\NoHallExampleCode-20140819\Control.c"
 197  00C7  0F81        	mov a,129
 197  00C8  0200     E  	sub a,rb
"File: Control.c     Assembler  Version HGASM0202      Page 7

 197  00C9  0F02        	mov a,2
 197  00CA  1200     E  	sbc a,rc
 197  00CB  380A        	snz c
 197  00CC  2800     R  	jmp _L20
 199  00CD              #line 199 "D:\WORK\Project\Github\Holtel-MCU\HT66FM5x40\HT66FM5240範例說明\NoHallExampleCode-20140819\Control.c"
 199  00CD  0F01        	mov a,1
 199  00CE  0300     E  	add a,rb
 199  00CF  0080     R  	mov _MC_ActPWM[0],a
 199  00D0  0F00        	mov a,0
 199  00D1  1300     E  	adc a,rc
 199  00D2  0080     R  	mov _MC_ActPWM[1],a
 199  00D3  2800     R  	jmp _L20
 199  00D4              _L18:
 204  00D4              #line 204 "D:\WORK\Project\Github\Holtel-MCU\HT66FM5x40\HT66FM5240範例說明\NoHallExampleCode-20140819\Control.c"
 204  00D4  0F14        	mov a,20
 204  00D5  0380     E  	addm a,rd
 204  00D6  0F00        	mov a,0
 204  00D7  1380     E  	adcm a,re
 204  00D8  0700     E  	mov a,rd
 204  00D9  0200     E  	sub a,rb
 204  00DA  0700     E  	mov a,re
 204  00DB  1200     E  	sbc a,rc
 204  00DC  3C0A        	sz c
 204  00DD  2800     R  	jmp _L21
 206  00DE              #line 206 "D:\WORK\Project\Github\Holtel-MCU\HT66FM5x40\HT66FM5240範例說明\NoHallExampleCode-20140819\Control.c"
 206  00DE  0FFD        	mov a,253
 206  00DF  0300     E  	add a,rb
 206  00E0  0080     R  	mov _MC_ActPWM[0],a
 206  00E1  0FFF        	mov a,255
 206  00E2  1300     E  	adc a,rc
 206  00E3  0080     R  	mov _MC_ActPWM[1],a
 206  00E4  2800     R  	jmp _L20
 206  00E5              _L21:
 208  00E5              #line 208 "D:\WORK\Project\Github\Holtel-MCU\HT66FM5x40\HT66FM5240範例說明\NoHallExampleCode-20140819\Control.c"
 208  00E5  0700     E  	mov a,rb
 208  00E6  0500     E  	or a,rc
 208  00E7  3D0A        	sz z
 208  00E8  2800     R  	jmp _L22
 210  00E9              #line 210 "D:\WORK\Project\Github\Holtel-MCU\HT66FM5x40\HT66FM5240範例說明\NoHallExampleCode-20140819\Control.c"
 210  00E9  0FFF        	mov a,255
 210  00EA  0300     E  	add a,rb
 210  00EB  0080     R  	mov _MC_ActPWM[0],a
 210  00EC  0FFF        	mov a,255
 210  00ED  1300     E  	adc a,rc
 210  00EE  0080     R  	mov _MC_ActPWM[1],a
 210  00EF  2800     R  	jmp _L20
 210  00F0              _L22:
 214  00F0              #line 214 "D:\WORK\Project\Github\Holtel-MCU\HT66FM5x40\HT66FM5240範例說明\NoHallExampleCode-20140819\Control.c"
 214  00F0  3400     E  	clr _Flag01[0].2
 215  00F1              #line 215 "D:\WORK\Project\Github\Holtel-MCU\HT66FM5x40\HT66FM5240範例說明\NoHallExampleCode-20140819\Control.c"
 215  00F1  35AE        	clr [46].3
 216  00F2              #line 216 "D:\WORK\Project\Github\Holtel-MCU\HT66FM5x40\HT66FM5240範例說明\NoHallExampleCode-20140819\Control.c"
 216  00F2  1F4A        	clr [74]
 216  00F3              _L20:
 220  00F3              #line 220 "D:\WORK\Project\Github\Holtel-MCU\HT66FM5x40\HT66FM5240範例說明\NoHallExampleCode-20140819\Control.c"
 220  00F3  0700     R  	mov a,_MC_ActPWM[0]
 220  00F4  0080     E  	mov _SetDuty_2[0],a
 220  00F5  0700     R  	mov a,_MC_ActPWM[1]
 220  00F6  0080     E  	mov _SetDuty_2[1],a
 220  00F7  2000     E  	call _SetDuty
"File: Control.c     Assembler  Version HGASM0202      Page 8

 220  00F8  0003        	ret
 220  00F9              _HandleSpeed endp
 220  00F9              #line 220 "D:\WORK\Project\Github\Holtel-MCU\HT66FM5x40\HT66FM5240範例說明\NoHallExampleCode-20140819\Control.c"
 220  00F9              #pragma debug scope 1 1
 220  00F9              ___mcf equ [100]
 220  00F9              ___pwmme equ [98]
 220  00F9              ___pwmmd equ [99]
 220  00F9              public _MotorLocation
 220  00F9              #pragma debug scope 3 1
 228  00F9              #line 228 "D:\WORK\Project\Github\Holtel-MCU\HT66FM5x40\HT66FM5240範例說明\NoHallExampleCode-20140819\Control.c"
 228  0000              _MotorLocation .section 'code'
 228  0000              _MotorLocation proc
 228  0000  0012[           local _MotorLocation_2 db 18 dup(?)	; 0,18
            00
            ]
 228  0012              #pragma debug variable 8 3 _MotorLocation_2+17 "i"
 228  0012              #pragma debug array 42 12 7 3
 228  0012              #pragma debug array 42 12 7 3
 228  0012              #pragma debug variable 42 3 _MotorLocation_2+0 "ch"
 234  0012              #line 234 "D:\WORK\Project\Github\Holtel-MCU\HT66FM5x40\HT66FM5240範例說明\NoHallExampleCode-20140819\Control.c"
 234  0000  0F8C        	mov a,140
 234  0001  00E4        	mov [100],a
 237  0002              #line 237 "D:\WORK\Project\Github\Holtel-MCU\HT66FM5x40\HT66FM5240範例說明\NoHallExampleCode-20140819\Control.c"
 237  0002  0F3F        	mov a,63
 237  0003  00E2        	mov [98],a
 238  0004              #line 238 "D:\WORK\Project\Github\Holtel-MCU\HT66FM5x40\HT66FM5240範例說明\NoHallExampleCode-20140819\Control.c"
 238  0004  1F63        	clr [99]
 238  0005  0F06        	mov a,6
 238  0006  0080     R  	mov _MotorLocation_2[16],a
 240  0007              #line 240 "D:\WORK\Project\Github\Holtel-MCU\HT66FM5x40\HT66FM5240範例說明\NoHallExampleCode-20140819\Control.c"
 240  0007  0F01        	mov a,1
 240  0008  0080     R  	mov _MotorLocation_2[17],a
 240  0009              _L29:
 242  0009              #line 242 "D:\WORK\Project\Github\Holtel-MCU\HT66FM5x40\HT66FM5240範例說明\NoHallExampleCode-20140819\Control.c"
 242  0009  0700     R  	mov a,_MotorLocation_2[17]
 242  000A  0080     R  	mov _MotorLocation_2[14],a
 242  000B  1F00     R  	clr _MotorLocation_2[15]
 242  000C  0F00     R  	mov a,low offset _LOCATION_PWMMD
 242  000D  0300     R  	add a,_MotorLocation_2[14]
 242  000E  0083        	mov mp,a
 242  000F  0F00     R  	mov a,high offset _LOCATION_PWMMD
 242  0010  1300     R  	adc a,_MotorLocation_2[15]
 242  0011  0084        	mov sbp,a
 242  0012  2000     E  	call _Crom2Prom
 242  0013  00E3        	mov [99],a
 244  0014              #line 244 "D:\WORK\Project\Github\Holtel-MCU\HT66FM5x40\HT66FM5240範例說明\NoHallExampleCode-20140819\Control.c"
 244  0014  0F19        	mov a,25
 244  0015  0080     E  	mov _Delay_2us_2[0],a
 244  0016  1F00     E  	clr _Delay_2us_2[1]
 244  0017  2000     E  	call _Delay_2us
 245  0018              #line 245 "D:\WORK\Project\Github\Holtel-MCU\HT66FM5x40\HT66FM5240範例說明\NoHallExampleCode-20140819\Control.c"
 245  0018  0F00        	mov a,0
 245  0019  2000     E  	call _AdSample_1
 245  001A  340A        	clr c
 245  001B  1A00     R  	rlca _MotorLocation_2[14]
 245  001C  0080     E  	mov rd,a
 245  001D  1A00     R  	rlca _MotorLocation_2[15]
 245  001E  0080     E  	mov re,a
 245  001F  0F00     R  	mov a,low(offset _MotorLocation_2)
 245  0020  0300     E  	add a,rd
"File: Control.c     Assembler  Version HGASM0202      Page 9

 245  0021  0083        	mov mp,a
 245  0022  0F00     R  	mov a,high(offset _MotorLocation_2)
 245  0023  1300     E  	adc a,re
 245  0024  0084        	mov sbp,a
 245  0025  0700     E  	mov a,ra
 245  0026  0082        	mov ir,a
 245  0027  1483        	inc mp
 245  0028  0700     E  	mov a,rb
 245  0029  0082        	mov ir,a
 247  002A              #line 247 "D:\WORK\Project\Github\Holtel-MCU\HT66FM5x40\HT66FM5240範例說明\NoHallExampleCode-20140819\Control.c"
 247  002A  1F63        	clr [99]
 248  002B              #line 248 "D:\WORK\Project\Github\Holtel-MCU\HT66FM5x40\HT66FM5240範例說明\NoHallExampleCode-20140819\Control.c"
 248  002B  0F32        	mov a,50
 248  002C  0080     E  	mov _Delay_2us_2[0],a
 248  002D  1F00     E  	clr _Delay_2us_2[1]
 248  002E  2000     E  	call _Delay_2us
 240  002F              #line 240 "D:\WORK\Project\Github\Holtel-MCU\HT66FM5x40\HT66FM5240範例說明\NoHallExampleCode-20140819\Control.c"
 240  002F  1480     R  	inc _MotorLocation_2[17]
 240  0030  1780     R  	sdz _MotorLocation_2[16]
 240  0031  2800     R  	jmp _L29
 251  0032              #line 251 "D:\WORK\Project\Github\Holtel-MCU\HT66FM5x40\HT66FM5240範例說明\NoHallExampleCode-20140819\Control.c"
 251  0032  1F63        	clr [99]
 251  0033  0F06        	mov a,6
 251  0034  0080     E  	mov rg,a
 253  0035              #line 253 "D:\WORK\Project\Github\Holtel-MCU\HT66FM5x40\HT66FM5240範例說明\NoHallExampleCode-20140819\Control.c"
 253  0035  0F01        	mov a,1
 253  0036  0080     E  	mov rf,a
 254  0037              #line 254 "D:\WORK\Project\Github\Holtel-MCU\HT66FM5x40\HT66FM5240範例說明\NoHallExampleCode-20140819\Control.c"
 254  0037  0F01        	mov a,1
 254  0038  0080     E  	mov ra,a
 254  0039              _L32:
 256  0039              #line 256 "D:\WORK\Project\Github\Holtel-MCU\HT66FM5x40\HT66FM5240範例說明\NoHallExampleCode-20140819\Control.c"
 256  0039  0700     E  	mov a,ra
 256  003A  0080     E  	mov rd,a
 256  003B  1F00     E  	clr re
 256  003C  340A        	clr c
 256  003D  1A80     E  	rlc rd
 256  003E  1A80     E  	rlc re
 256  003F  0700     E  	mov a,rf
 256  0040  0080     E  	mov rb,a
 256  0041  1F00     E  	clr rc
 256  0042  340A        	clr c
 256  0043  1A80     E  	rlc rb
 256  0044  1A80     E  	rlc rc
 256  0045  0F00     R  	mov a,low(offset _MotorLocation_2)
 256  0046  0300     E  	add a,rd
 256  0047  0083        	mov mp,a
 256  0048  0F00     R  	mov a,high(offset _MotorLocation_2)
 256  0049  1300     E  	adc a,re
 256  004A  0084        	mov sbp,a
 256  004B  2000     E  	call _Crom2Prom
 256  004C  0080     E  	mov rd,a
 256  004D  2000     E  	call _Crom2PromNext
 256  004E  0080     E  	mov re,a
 256  004F  0F00     R  	mov a,low(offset _MotorLocation_2)
 256  0050  0300     E  	add a,rb
 256  0051  0083        	mov mp,a
 256  0052  0F00     R  	mov a,high(offset _MotorLocation_2)
 256  0053  1300     E  	adc a,rc
 256  0054  0084        	mov sbp,a
"File: Control.c     Assembler  Version HGASM0202      Page 10

 256  0055  2000     E  	call _Crom2Prom
 256  0056  0080     E  	mov rb,a
 256  0057  2000     E  	call _Crom2PromNext
 256  0058  0080     E  	mov rc,a
 256  0059  0700     E  	mov a,rb
 256  005A  0200     E  	sub a,rd
 256  005B  0700     E  	mov a,rc
 256  005C  1200     E  	sbc a,re
 256  005D  3C0A        	sz c
 256  005E  2800     R  	jmp _L30
 256  005F  0700     E  	mov a,ra
 256  0060  0080     E  	mov rf,a
 256  0061              _L30:
 254  0061              #line 254 "D:\WORK\Project\Github\Holtel-MCU\HT66FM5x40\HT66FM5240範例說明\NoHallExampleCode-20140819\Control.c"
 254  0061  1480     E  	inc ra
 254  0062  1780     E  	sdz rg
 254  0063  2800     R  	jmp _L32
 264  0064              #line 264 "D:\WORK\Project\Github\Holtel-MCU\HT66FM5x40\HT66FM5240範例說明\NoHallExampleCode-20140819\Control.c"
 264  0064  0F0C        	mov a,12
 264  0065  00E4        	mov [100],a
 268  0066              #line 268 "D:\WORK\Project\Github\Holtel-MCU\HT66FM5x40\HT66FM5240範例說明\NoHallExampleCode-20140819\Control.c"
 268  0066  0700     E  	mov a,rf
 268  0067  0003        	ret
 268  0068              _MotorLocation endp
 268  0068              #line 268 "D:\WORK\Project\Github\Holtel-MCU\HT66FM5x40\HT66FM5240範例說明\NoHallExampleCode-20140819\Control.c"
 268  0068              #pragma debug scope 1 1
 268  0068              public _LOCATION_PWMMD
 268  0000              @crom	.section 'crom'
 225  0000              #line 225 "D:\WORK\Project\Github\Holtel-MCU\HT66FM5x40\HT66FM5240範例說明\NoHallExampleCode-20140819\Control.c"
 225  0000              @crom	.section	'crom'
 225  0000              _LOCATION_PWMMD:
 225  0000              #pragma debug array 43 8 8 1
 225  0000              #pragma debug array 43 8 8 1
 225  0000              #pragma debug variable 43 1 _LOCATION_PWMMD "LOCATION_PWMMD"
 225  0000              	db 0
 225  0001              	db 26
 225  0001              	db 41
 225  0002              	db 25
 225  0002              	db 38
 225  0003              	db 22
 225  0003              	db 37
 225  0004              	db 0
 225  0004              public _Reversal_Hall
  40  0004              #line 40 "D:\WORK\Project\Github\Holtel-MCU\HT66FM5x40\HT66FM5240範例說明\NoHallExampleCode-20140819\Control.c"
  40  0004              @crom	.section	'crom'
  40  0004              _Reversal_Hall:
  40  0004              #pragma debug variable 43 1 _Reversal_Hall "Reversal_Hall"
  40  0004              	db 0
  40  0005              	db 5
  40  0005              	db 3
  40  0006              	db 1
  40  0006              	db 6
  40  0007              	db 4
  40  0007              	db 2
  40  0008              	db 0
  40  0008              public _ucPrevHall
  39  0008              #line 39 "D:\WORK\Project\Github\Holtel-MCU\HT66FM5x40\HT66FM5240範例說明\NoHallExampleCode-20140819\Control.c"
  39  0008              @crom	.section	'crom'
  39  0008              _ucPrevHall:
  39  0008              #pragma debug variable 43 1 _ucPrevHall "ucPrevHall"
"File: Control.c     Assembler  Version HGASM0202      Page 11

  39  0008              	db 0
  39  0009              	db 5
  39  0009              	db 3
  39  000A              	db 1
  39  000A              	db 6
  39  000B              	db 4
  39  000B              	db 2
  39  000C              	db 0
  39  000C              public _ucNextHall
  38  000C              #line 38 "D:\WORK\Project\Github\Holtel-MCU\HT66FM5x40\HT66FM5240範例說明\NoHallExampleCode-20140819\Control.c"
  38  000C              @crom	.section	'crom'
  38  000C              _ucNextHall:
  38  000C              #pragma debug variable 43 1 _ucNextHall "ucNextHall"
  38  000C              	db 0
  38  000D              	db 3
  38  000D              	db 6
  38  000E              	db 2
  38  000E              	db 5
  38  000F              	db 1
  38  000F              	db 4
  38  0010              	db 0
  38  0010              public _Degree60to120
  37  0010              #line 37 "D:\WORK\Project\Github\Holtel-MCU\HT66FM5x40\HT66FM5240範例說明\NoHallExampleCode-20140819\Control.c"
  37  0010              @crom	.section	'crom'
  37  0010              _Degree60to120:
  37  0010              #pragma debug variable 43 1 _Degree60to120 "Degree60to120"
  37  0010              	db 2
  37  0011              	db 6
  37  0011              	db 0
  37  0012              	db 4
  37  0012              	db 3
  37  0013              	db 0
  37  0013              	db 1
  37  0014              	db 5
  21  0014              #line 21 "D:\WORK\Project\Github\Holtel-MCU\HT66FM5x40\HT66FM5240範例說明\NoHallExampleCode-20140819\Control.c"
  21  0014              public _Test
  21  0000              @HCCINIT0_Test .section 'data'
  21  0000  0008[       _Test	db 8 dup(0)
            00
            ]
  21  0008              #pragma debug variable 43 1 _Test "Test"
  21  0008              
  21  0000              @HCCINIT .section 'data'
  19  0000              #line 19 "D:\WORK\Project\Github\Holtel-MCU\HT66FM5x40\HT66FM5240範例說明\NoHallExampleCode-20140819\Control.c"
  19  0000              public _MC_HallDelayCnt
  19  0000              @HCCINIT0_MC_HallDelayCnt .section 'data'
  19  0000  0002[       _MC_HallDelayCnt	db 2 dup(0)
            00
            ]
  19  0002              #pragma debug variable 12 1 _MC_HallDelayCnt "MC_HallDelayCnt"
  19  0002              
  19  0000              @HCCINIT .section 'data'
  18  0000              #line 18 "D:\WORK\Project\Github\Holtel-MCU\HT66FM5x40\HT66FM5240範例說明\NoHallExampleCode-20140819\Control.c"
  18  0000              public _MC_HallDelayTime
  18  0000              @HCCINIT0_MC_HallDelayTime .section 'data'
  18  0000  0002[       _MC_HallDelayTime	db 2 dup(0)
            00
            ]
  18  0002              #pragma debug variable 12 1 _MC_HallDelayTime "MC_HallDelayTime"
  18  0002              
"File: Control.c     Assembler  Version HGASM0202      Page 12

  18  0000              @HCCINIT .section 'data'
  17  0000              #line 17 "D:\WORK\Project\Github\Holtel-MCU\HT66FM5x40\HT66FM5240範例說明\NoHallExampleCode-20140819\Control.c"
  17  0000              public _MC_PrevSpeedTime
  17  0000              @HCCINIT0_MC_PrevSpeedTime .section 'data'
  17  0000  0002[       _MC_PrevSpeedTime	db 2 dup(0)
            00
            ]
  17  0002              #pragma debug variable 12 1 _MC_PrevSpeedTime "MC_PrevSpeedTime"
  17  0002              
  17  0000              @HCCINIT .section 'data'
  16  0000              #line 16 "D:\WORK\Project\Github\Holtel-MCU\HT66FM5x40\HT66FM5240範例說明\NoHallExampleCode-20140819\Control.c"
  16  0000              public _MC_SpeedTime
  16  0000              @HCCINIT0_MC_SpeedTime .section 'data'
  16  0000  0002[       _MC_SpeedTime	db 2 dup(0)
            00
            ]
  16  0002              #pragma debug variable 12 1 _MC_SpeedTime "MC_SpeedTime"
  16  0002              
  16  0000              @HCCINIT .section 'data'
  15  0000              #line 15 "D:\WORK\Project\Github\Holtel-MCU\HT66FM5x40\HT66FM5240範例說明\NoHallExampleCode-20140819\Control.c"
  15  0000              public _MC_HanderBarAD
  15  0000              @HCCINIT0_MC_HanderBarAD .section 'data'
  15  0000  0002[       _MC_HanderBarAD	db 2 dup(0)
            00
            ]
  15  0002              #pragma debug variable 12 1 _MC_HanderBarAD "MC_HanderBarAD"
  15  0002              
  15  0000              @HCCINIT .section 'data'
  14  0000              #line 14 "D:\WORK\Project\Github\Holtel-MCU\HT66FM5x40\HT66FM5240範例說明\NoHallExampleCode-20140819\Control.c"
  14  0000              public _MC_DecPWM
  14  0000              @HCCINIT0_MC_DecPWM .section 'data'
  14  0000  0002[       _MC_DecPWM	db 2 dup(0)
            00
            ]
  14  0002              #pragma debug variable 12 1 _MC_DecPWM "MC_DecPWM"
  14  0002              
  14  0000              @HCCINIT .section 'data'
  13  0000              #line 13 "D:\WORK\Project\Github\Holtel-MCU\HT66FM5x40\HT66FM5240範例說明\NoHallExampleCode-20140819\Control.c"
  13  0000              public _MC_ActPWM
  13  0000              @HCCINIT0_MC_ActPWM .section 'data'
  13  0000  0002[       _MC_ActPWM	db 2 dup(0)
            00
            ]
  13  0002              #pragma debug variable 12 1 _MC_ActPWM "MC_ActPWM"
  13  0002              
  13  0000              @HCCINIT .section 'data'
  11  0000              #line 11 "D:\WORK\Project\Github\Holtel-MCU\HT66FM5x40\HT66FM5240範例說明\NoHallExampleCode-20140819\Control.c"
  11  0000              public _MC_MotorStartCnt
  11  0000              @HCCINIT0_MC_MotorStartCnt .section 'data'
  11  0000              _MC_MotorStartCnt	db 0
  11  0001              #pragma debug variable 8 1 _MC_MotorStartCnt "MC_MotorStartCnt"
  11  0001              
  11  0000              @HCCINIT .section 'data'
  10  0000              #line 10 "D:\WORK\Project\Github\Holtel-MCU\HT66FM5x40\HT66FM5240範例說明\NoHallExampleCode-20140819\Control.c"
  10  0000              public _MC_ErrHallVal2
  10  0000              @HCCINIT0_MC_ErrHallVal2 .section 'data'
  10  0000              _MC_ErrHallVal2	db 0
  10  0001              #pragma debug variable 8 1 _MC_ErrHallVal2 "MC_ErrHallVal2"
  10  0001              
  10  0000              @HCCINIT .section 'data'
"File: Control.c     Assembler  Version HGASM0202      Page 13

   9  0000              #line 9 "D:\WORK\Project\Github\Holtel-MCU\HT66FM5x40\HT66FM5240範例說明\NoHallExampleCode-20140819\Control.c"
   9  0000              public _MC_ErrHallVal1
   9  0000              @HCCINIT0_MC_ErrHallVal1 .section 'data'
   9  0000              _MC_ErrHallVal1	db 0
   9  0001              #pragma debug variable 8 1 _MC_ErrHallVal1 "MC_ErrHallVal1"
   9  0001              
   9  0000              @HCCINIT .section 'data'
   8  0000              #line 8 "D:\WORK\Project\Github\Holtel-MCU\HT66FM5x40\HT66FM5240範例說明\NoHallExampleCode-20140819\Control.c"
   8  0000              public _MC_PrevHall
   8  0000              @HCCINIT0_MC_PrevHall .section 'data'
   8  0000              _MC_PrevHall	db 0
   8  0001              #pragma debug variable 8 1 _MC_PrevHall "MC_PrevHall"
   8  0001              
   8  0000              @HCCINIT .section 'data'
   7  0000              #line 7 "D:\WORK\Project\Github\Holtel-MCU\HT66FM5x40\HT66FM5240範例說明\NoHallExampleCode-20140819\Control.c"
   7  0000              public _MC_NewHall
   7  0000              @HCCINIT0_MC_NewHall .section 'data'
   7  0000              _MC_NewHall	db 0
   7  0001              #pragma debug variable 8 1 _MC_NewHall "MC_NewHall"
   7  0001              
   7  0000              @HCCINIT .section 'data'
   6  0000              #line 6 "D:\WORK\Project\Github\Holtel-MCU\HT66FM5x40\HT66FM5240範例說明\NoHallExampleCode-20140819\Control.c"
   6  0000              public _MC_PrevHallPortVal
   6  0000              @HCCINIT0_MC_PrevHallPortVal .section 'data'
   6  0000              _MC_PrevHallPortVal	db 0
   6  0001              #pragma debug variable 8 1 _MC_PrevHallPortVal "MC_PrevHallPortVal"
   6  0001              
   6  0000              @HCCINIT .section 'data'
   5  0000              #line 5 "D:\WORK\Project\Github\Holtel-MCU\HT66FM5x40\HT66FM5240範例說明\NoHallExampleCode-20140819\Control.c"
   5  0000              public _MC_HallPortVal
   5  0000              @HCCINIT0_MC_HallPortVal .section 'data'
   5  0000              _MC_HallPortVal	db 0
   5  0001              #pragma debug variable 8 1 _MC_HallPortVal "MC_HallPortVal"
   5  0001              
   5  0000              @HCCINIT .section 'data'
   5  0000              #pragma debug struct_end
   5  0000              #pragma debug struct_end
   5  0000              #pragma debug union_end
   5  0000              #pragma debug union_end
   5  0000              #pragma debug variable 45 1 ___intc0 "__intc0" 1
   5  0000              #pragma debug struct_end
   5  0000              #pragma debug struct_end
   5  0000              #pragma debug union_end
   5  0000              #pragma debug union_end
   5  0000              #pragma debug variable 47 1 ___captc0 "__captc0" 1
   5  0000              #pragma debug variable 8 1 ___captmdl "__captmdl" 1
   5  0000              #pragma debug variable 8 1 ___captmdh "__captmdh" 1
   5  0000              #pragma debug struct_end
   5  0000              #pragma debug struct_end
   5  0000              #pragma debug union_end
   5  0000              #pragma debug union_end
   5  0000              #pragma debug variable 49 1 ___hdcr "__hdcr" 1
   5  0000              #pragma debug struct_end
   5  0000              #pragma debug struct_end
   5  0000              #pragma debug union_end
   5  0000              #pragma debug union_end
   5  0000              #pragma debug variable 51 1 ___hdcd "__hdcd" 1
   5  0000              #pragma debug struct_end
   5  0000              #pragma debug struct_end
   5  0000              #pragma debug union_end
"File: Control.c     Assembler  Version HGASM0202      Page 14

   5  0000              #pragma debug union_end
   5  0000              #pragma debug variable 53 1 ___mptc1 "__mptc1" 1
   5  0000              #pragma debug struct_end
   5  0000              #pragma debug struct_end
   5  0000              #pragma debug union_end
   5  0000              #pragma debug union_end
   5  0000              #pragma debug variable 55 1 ___pwmme "__pwmme" 1
   5  0000              #pragma debug struct_end
   5  0000              #pragma debug struct_end
   5  0000              #pragma debug union_end
   5  0000              #pragma debug union_end
   5  0000              #pragma debug variable 57 1 ___pwmmd "__pwmmd" 1
   5  0000              #pragma debug struct_end
   5  0000              #pragma debug struct_end
   5  0000              #pragma debug union_end
   5  0000              #pragma debug union_end
   5  0000              #pragma debug variable 59 1 ___mcf "__mcf" 1
   5  0000              #pragma debug struct_end
   5  0000              #pragma debug struct_end
   5  0000              #pragma debug union_end
   5  0000              #pragma debug union_end
   5  0000              #pragma debug variable 61 1 ___mcd "__mcd" 1
   5  0000              
   5  0000              ; output external variables
   5  0000              extern _TakeTurnOkCnt:byte
   5  0000              extern _Flag02:byte
   5  0000              extern _Flag01:byte
   5  0000              extern _AdData:byte
   5  0000              extern _SetDuty_2:byte
   5  0000              extern _SetDuty:near
   5  0000              extern _Delay_2us_2:byte
   5  0000              extern _Delay_2us:near
   5  0000              extern _AdSample_1:near
   5  0000              
   5  0000              ; 
   5  0000              ; Generated by holtek-gcc v3.19, Mon Jun 17 17:35:22 2019
   5  0000              ; Rebuild 115
   5  0000              ; end of file


        0 Errors, 0