"File: Init.c        Assembler  Version HGASM0202      Page 1


   1  0000              ; Generated by holtek-gcc v3.19, Mon Jun 17 17:35:21 2019
   2  0000              ; 
   3  0000              ; Configuration:
   4  0000              ;       with long instruction
   5  0000              ;       Single ROM, Multi-RAM
   6  0000              ;       bits_per_rom_unit:16
   7  0000              ;       with mp1
   8  0000              ;       with tbhp, address(0x9)
   9  0000              ;          Use tabrd-const
  10  0000              ;       
  11  0000              ; SFR address of long-instruction arch:
  12  0000              ;    mp0 = -1,1,0
  13  0000              ;    mp1 = 4,3,2
  14  0000              ;    mp2 = 14,13,12
  15  0000              ;    tbp = 9,7,8
  16  0000              ;    acc = 5
  17  0000              ;    pcl = 6
  18  0000              ;    status = 10
  19  0000              ;    bp = 11
  20  0000              ;    intc = 21
  21  0000              ;       
  22  0000              ;       
  23  0000              ; use 'tabrdc' instead of 'tabrd'
  24  0000              ;       
  25  0000              
  26  0000              #pragma translator "holtek-gcc 4.6.4" "3.19" "build 20130711"
  27  0000              ; Rebuild 115
  28  0000              
  29  0000              ir equ [2]
  30  0000              mp equ [3]
  31  0000              sbp equ [4]
  32  0000              acc equ [5]
  33  0000              bp equ [11]
  34  0000              tblp equ [7]
  35  0000              tbhp equ [9]
  36  0000              status equ [10]
  37  0000              c equ [10].0
  38  0000              ac equ [10].1
  39  0000              z equ [10].2
  40  0000              ov equ [10].3
  41  0000              cz equ [10].6
  42  0000              sc equ [10].7
  43  0000              intc equ [21]
  44  0000              mdu0r0 equ [73h]
  45  0000              mdu0r1 equ [74h]
  46  0000              mdu0ctrl equ [75h]
  47  0000              mduwr0 equ [76h]
  48  0000              mduwr1 equ [77h]
  49  0000              mduwr2 equ [78h]
  50  0000              mduwr3 equ [7ah]
  51  0000              mduwr4 equ [7bh]
  52  0000              mduwr5 equ [7ch]
  53  0000              mduwrctrl equ [7dh]
  54  0000              
  55  0000              extern ra:byte
  56  0000              extern rb:byte
  57  0000              extern rc:byte
  58  0000              extern rd:byte
  59  0000              extern re:byte
"File: Init.ASM      Assembler  Version HGASM0202      Page 2

  60  0000              extern rf:byte
  61  0000              extern rg:byte
  62  0000              extern rh:byte
  63  0000              extern _Crom2Prom:near
  64  0000              extern _Crom2PromNext:near
  65  0000              
  66  0000              RAMBANK 0 @BITDATASEC, @BITDATASEC1
  67  0000              @HCCINIT	.section 'data'
  68  0000              @HCCINIT0	.section 'data'
  69  0000              @BITDATASEC	 .section 'data'
  70  0000              @BITDATASEC1	 .section 'data'
  71  0000              
  72  0000              #pragma debug scope 1 1
  73  0000              	extern __DELAY3:near
  74  0000              	extern __DELAYX3:near
  75  0000              	extern __DELAYX6:near
  76  0000              	extern __DELAYY5:near
  77  0000              	extern __DELAYY3:near
  78  0000              	extern _builtin_holtek_delay_2:byte
  79  0000              ___smod equ [15]
  80  0000              public _ClockInit
  81  0000              #pragma debug scope 2 1

  25  0000              #line 25 "D:\WORK\Project\Github\Holtel-MCU\HT66FM5x40\HT66FM5240範例說明\NoHallExampleCode-20140819\Init.c"
  25  0000              _ClockInit .section 'code'
  25  0000              _ClockInit proc
  26  0000              #line 26 "D:\WORK\Project\Github\Holtel-MCU\HT66FM5x40\HT66FM5240範例說明\NoHallExampleCode-20140819\Init.c"
  26  0000  0F01        	mov a,1
  26  0001  008F        	mov [15],a
  26  0002              _L3:
  27  0002              #line 27 "D:\WORK\Project\Github\Holtel-MCU\HT66FM5x40\HT66FM5240範例說明\NoHallExampleCode-20140819\Init.c"
  27  0002  390F        	snz [15].2
  27  0003  2800     R  	jmp _L3
  27  0004  0003        	ret
  27  0005              _ClockInit endp
  27  0005              #line 27 "D:\WORK\Project\Github\Holtel-MCU\HT66FM5x40\HT66FM5240範例說明\NoHallExampleCode-20140819\Init.c"
  27  0005              #pragma debug scope 1 1
  27  0005              ___papu equ [34]
  27  0005              ___pac equ [36]
  27  0005              ___pa equ [35]
  27  0005              public _GPIOInit
  27  0005              #pragma debug scope 3 1
  31  0005              #line 31 "D:\WORK\Project\Github\Holtel-MCU\HT66FM5x40\HT66FM5240範例說明\NoHallExampleCode-20140819\Init.c"
  31  0000              _GPIOInit .section 'code'
  31  0000              _GPIOInit proc
  32  0000              #line 32 "D:\WORK\Project\Github\Holtel-MCU\HT66FM5x40\HT66FM5240範例說明\NoHallExampleCode-20140819\Init.c"
  32  0000  3722        	clr [34].6
  33  0001              #line 33 "D:\WORK\Project\Github\Holtel-MCU\HT66FM5x40\HT66FM5240範例說明\NoHallExampleCode-20140819\Init.c"
  33  0001  3724        	clr [36].6
  34  0002              #line 34 "D:\WORK\Project\Github\Holtel-MCU\HT66FM5x40\HT66FM5240範例說明\NoHallExampleCode-20140819\Init.c"
  34  0002  3723        	clr [35].6
  34  0003  0003        	ret
  34  0004              _GPIOInit endp
  34  0004              #line 34 "D:\WORK\Project\Github\Holtel-MCU\HT66FM5x40\HT66FM5240範例說明\NoHallExampleCode-20140819\Init.c"
  34  0004              #pragma debug scope 1 1
  34  0004              ___wdtc equ [18]
  34  0004              public _WatchDogInit
  34  0004              #pragma debug scope 4 1
  44  0004              #line 44 "D:\WORK\Project\Github\Holtel-MCU\HT66FM5x40\HT66FM5240範例說明\NoHallExampleCode-20140819\Init.c"
  44  0000              _WatchDogInit .section 'code'
"File: Init.c        Assembler  Version HGASM0202      Page 3

  44  0000              _WatchDogInit proc
  45  0000              #line 45 "D:\WORK\Project\Github\Holtel-MCU\HT66FM5x40\HT66FM5240範例說明\NoHallExampleCode-20140819\Init.c"
  45  0000  0F57        	mov a,87
  45  0001  0092        	mov [18],a
  45  0002  0003        	ret
  45  0003              _WatchDogInit endp
  45  0003              #line 45 "D:\WORK\Project\Github\Holtel-MCU\HT66FM5x40\HT66FM5240範例說明\NoHallExampleCode-20140819\Init.c"
  45  0003              #pragma debug scope 1 1
  45  0003              ___pcps0 equ [380]
  45  0003              ___pcps1 equ [381]
  45  0003              ___pwmc equ [87]
  45  0003              ___prdrh equ [95]
  45  0003              ___prdrl equ [94]
  45  0003              ___dutr0h equ [89]
  45  0003              ___dutr0l equ [88]
  45  0003              ___dutr1h equ [91]
  45  0003              ___dutr1l equ [90]
  45  0003              ___dutr2h equ [93]
  45  0003              ___dutr2l equ [92]
  45  0003              ___pwmme equ [98]
  45  0003              ___pwmmd equ [99]
  45  0003              ___mcf equ [100]
  45  0003              ___plc equ [103]
  45  0003              ___mfi1 equ [26]
  45  0003              ___intc0 equ [21]
  45  0003              public _PwmInit
  45  0003              #pragma debug scope 5 1
  51  0003              #line 51 "D:\WORK\Project\Github\Holtel-MCU\HT66FM5x40\HT66FM5240範例說明\NoHallExampleCode-20140819\Init.c"
  51  0000              _PwmInit .section 'code'
  51  0000              _PwmInit proc
  52  0000              #line 52 "D:\WORK\Project\Github\Holtel-MCU\HT66FM5x40\HT66FM5240範例說明\NoHallExampleCode-20140819\Init.c"
  52  0000  0FAA        	mov a,170
  52  0001  80FC 0001   	lmov [380],a
  53  0003              #line 53 "D:\WORK\Project\Github\Holtel-MCU\HT66FM5x40\HT66FM5240範例說明\NoHallExampleCode-20140819\Init.c"
  53  0003  0F0A        	mov a,10
  53  0004  80FD 0001   	lmov [381],a
  55  0006              #line 55 "D:\WORK\Project\Github\Holtel-MCU\HT66FM5x40\HT66FM5240範例說明\NoHallExampleCode-20140819\Init.c"
  55  0006  0F81        	mov a,129
  55  0007  00D7        	mov [87],a
  57  0008              #line 57 "D:\WORK\Project\Github\Holtel-MCU\HT66FM5x40\HT66FM5240範例說明\NoHallExampleCode-20140819\Init.c"
  57  0008  0F02        	mov a,2
  57  0009  00DF        	mov [95],a
  58  000A              #line 58 "D:\WORK\Project\Github\Holtel-MCU\HT66FM5x40\HT66FM5240範例說明\NoHallExampleCode-20140819\Init.c"
  58  000A  0F80        	mov a,128
  58  000B  00DE        	mov [94],a
  60  000C              #line 60 "D:\WORK\Project\Github\Holtel-MCU\HT66FM5x40\HT66FM5240範例說明\NoHallExampleCode-20140819\Init.c"
  60  000C  1F59        	clr [89]
  61  000D              #line 61 "D:\WORK\Project\Github\Holtel-MCU\HT66FM5x40\HT66FM5240範例說明\NoHallExampleCode-20140819\Init.c"
  61  000D  1F58        	clr [88]
  62  000E              #line 62 "D:\WORK\Project\Github\Holtel-MCU\HT66FM5x40\HT66FM5240範例說明\NoHallExampleCode-20140819\Init.c"
  62  000E  1F5B        	clr [91]
  63  000F              #line 63 "D:\WORK\Project\Github\Holtel-MCU\HT66FM5x40\HT66FM5240範例說明\NoHallExampleCode-20140819\Init.c"
  63  000F  1F5A        	clr [90]
  64  0010              #line 64 "D:\WORK\Project\Github\Holtel-MCU\HT66FM5x40\HT66FM5240範例說明\NoHallExampleCode-20140819\Init.c"
  64  0010  1F5D        	clr [93]
  65  0011              #line 65 "D:\WORK\Project\Github\Holtel-MCU\HT66FM5x40\HT66FM5240範例說明\NoHallExampleCode-20140819\Init.c"
  65  0011  1F5C        	clr [92]
  67  0012              #line 67 "D:\WORK\Project\Github\Holtel-MCU\HT66FM5x40\HT66FM5240範例說明\NoHallExampleCode-20140819\Init.c"
  67  0012  0F3F        	mov a,63
  67  0013  00E2        	mov [98],a
"File: Init.c        Assembler  Version HGASM0202      Page 4

  68  0014              #line 68 "D:\WORK\Project\Github\Holtel-MCU\HT66FM5x40\HT66FM5240範例說明\NoHallExampleCode-20140819\Init.c"
  68  0014  1F63        	clr [99]
  74  0015              #line 74 "D:\WORK\Project\Github\Holtel-MCU\HT66FM5x40\HT66FM5240範例說明\NoHallExampleCode-20140819\Init.c"
  74  0015  0F0C        	mov a,12
  74  0016  00E4        	mov [100],a
  78  0017              #line 78 "D:\WORK\Project\Github\Holtel-MCU\HT66FM5x40\HT66FM5240範例說明\NoHallExampleCode-20140819\Init.c"
  78  0017  1F67        	clr [103]
  81  0018              #line 81 "D:\WORK\Project\Github\Holtel-MCU\HT66FM5x40\HT66FM5240範例說明\NoHallExampleCode-20140819\Init.c"
  81  0018  379A        	clr [26].7
  82  0019              #line 82 "D:\WORK\Project\Github\Holtel-MCU\HT66FM5x40\HT66FM5240範例說明\NoHallExampleCode-20140819\Init.c"
  82  0019  319A        	set [26].3
  85  001A              #line 85 "D:\WORK\Project\Github\Holtel-MCU\HT66FM5x40\HT66FM5240範例說明\NoHallExampleCode-20140819\Init.c"
  85  001A  3715        	clr [21].6
  86  001B              #line 86 "D:\WORK\Project\Github\Holtel-MCU\HT66FM5x40\HT66FM5240範例說明\NoHallExampleCode-20140819\Init.c"
  86  001B  3195        	set [21].3
  89  001C              #line 89 "D:\WORK\Project\Github\Holtel-MCU\HT66FM5x40\HT66FM5240範例說明\NoHallExampleCode-20140819\Init.c"
  89  001C  31D7        	set [87].3
  89  001D  0003        	ret
  89  001E              _PwmInit endp
  89  001E              #line 89 "D:\WORK\Project\Github\Holtel-MCU\HT66FM5x40\HT66FM5240範例說明\NoHallExampleCode-20140819\Init.c"
  89  001E              #pragma debug scope 1 1
  89  001E              public _SetDuty
  89  001E              #pragma debug scope 6 1
  93  001E              #line 93 "D:\WORK\Project\Github\Holtel-MCU\HT66FM5x40\HT66FM5240範例說明\NoHallExampleCode-20140819\Init.c"
  93  0000              _SetDuty .section 'code'
  93  0000              _SetDuty proc
  93  0000              public _SetDuty_2
  93  0000  0002[           local _SetDuty_2 db 2 dup(?)	; 2,0
            00
            ]
  93  0002              #pragma debug variable 12 6 _SetDuty_2+0 "duty"
  93  0000  0700     R  	mov a,_SetDuty_2[0]
  93  0001  0080     E  	mov rb,a
  93  0002  0700     R  	mov a,_SetDuty_2[1]
  93  0003  0080     E  	mov rc,a
  93  0004  0F82        	mov a,130
  93  0005  0200     E  	sub a,rb
  93  0006  0F02        	mov a,2
  93  0007  1200     E  	sbc a,rc
  93  0008  3C0A        	sz c
  93  0009  2800     R  	jmp _L9
  93  000A  0F82        	mov a,-126
  93  000B  0080     E  	mov rb,a
  93  000C  0F02        	mov a,2
  93  000D  0080     E  	mov rc,a
  93  000E              _L9:
 104  000E              #line 104 "D:\WORK\Project\Github\Holtel-MCU\HT66FM5x40\HT66FM5240範例說明\NoHallExampleCode-20140819\Init.c"
 104  000E  0700     E  	mov a,rc
 104  000F  00D9        	mov [89],a
 105  0010              #line 105 "D:\WORK\Project\Github\Holtel-MCU\HT66FM5x40\HT66FM5240範例說明\NoHallExampleCode-20140819\Init.c"
 105  0010  0700     E  	mov a,rb
 105  0011  00D8        	mov [88],a
 106  0012              #line 106 "D:\WORK\Project\Github\Holtel-MCU\HT66FM5x40\HT66FM5240範例說明\NoHallExampleCode-20140819\Init.c"
 106  0012  0700     E  	mov a,rc
 106  0013  00DB        	mov [91],a
 107  0014              #line 107 "D:\WORK\Project\Github\Holtel-MCU\HT66FM5x40\HT66FM5240範例說明\NoHallExampleCode-20140819\Init.c"
 107  0014  0700     E  	mov a,rb
 107  0015  00DA        	mov [90],a
 108  0016              #line 108 "D:\WORK\Project\Github\Holtel-MCU\HT66FM5x40\HT66FM5240範例說明\NoHallExampleCode-20140819\Init.c"
 108  0016  0700     E  	mov a,rc
"File: Init.c        Assembler  Version HGASM0202      Page 5

 108  0017  00DD        	mov [93],a
 109  0018              #line 109 "D:\WORK\Project\Github\Holtel-MCU\HT66FM5x40\HT66FM5240範例說明\NoHallExampleCode-20140819\Init.c"
 109  0018  0700     E  	mov a,rb
 109  0019  00DC        	mov [92],a
 109  001A  0003        	ret
 109  001B              _SetDuty endp
 109  001B              #line 109 "D:\WORK\Project\Github\Holtel-MCU\HT66FM5x40\HT66FM5240範例說明\NoHallExampleCode-20140819\Init.c"
 109  001B              #pragma debug scope 1 1
 109  001B              ___paps0 equ [378]
 109  001B              ___paps1 equ [379]
 109  001B              ___pbps0 equ [66]
 109  001B              ___cmpc equ [114]
 109  001B              ___integ0 equ [69]
 109  001B              ___hdcr equ [73]
 109  001B              ___ptm0c0 equ [79]
 109  001B              ___ptm0c1 equ [80]
 109  001B              ___intc2 equ [23]
 109  001B              ___mfi4 equ [29]
 109  001B              ___hchk_num equ [344]
 109  001B              ___hnf_msel equ [345]
 109  001B              ___hdcd equ [74]
 109  001B              ___hdct0 equ [354]
 109  001B              ___hdct1 equ [355]
 109  001B              ___hdct2 equ [356]
 109  001B              ___hdct3 equ [357]
 109  001B              ___hdct4 equ [358]
 109  001B              ___hdct5 equ [359]
 109  001B              ___hdct6 equ [360]
 109  001B              ___hdct7 equ [361]
 109  001B              ___hdct8 equ [362]
 109  001B              ___hdct9 equ [363]
 109  001B              ___hdct10 equ [364]
 109  001B              ___hdct11 equ [365]
 109  001B              ___mfi0 equ [25]
 109  001B              public _HallInit
 109  001B              #pragma debug scope 7 1
 114  001B              #line 114 "D:\WORK\Project\Github\Holtel-MCU\HT66FM5x40\HT66FM5240範例說明\NoHallExampleCode-20140819\Init.c"
 114  0000              _HallInit .section 'code'
 114  0000              _HallInit proc
 120  0000              #line 120 "D:\WORK\Project\Github\Holtel-MCU\HT66FM5x40\HT66FM5240範例說明\NoHallExampleCode-20140819\Init.c"
 120  0000  B7FA 0001   	lclr [378].7
 121  0002              #line 121 "D:\WORK\Project\Github\Holtel-MCU\HT66FM5x40\HT66FM5240範例說明\NoHallExampleCode-20140819\Init.c"
 121  0002  B37A 0001   	lset [378].6
 122  0004              #line 122 "D:\WORK\Project\Github\Holtel-MCU\HT66FM5x40\HT66FM5240範例說明\NoHallExampleCode-20140819\Init.c"
 122  0004  B0FB 0001   	lset [379].1
 123  0006              #line 123 "D:\WORK\Project\Github\Holtel-MCU\HT66FM5x40\HT66FM5240範例說明\NoHallExampleCode-20140819\Init.c"
 123  0006  B47B 0001   	lclr [379].0
 124  0008              #line 124 "D:\WORK\Project\Github\Holtel-MCU\HT66FM5x40\HT66FM5240範例說明\NoHallExampleCode-20140819\Init.c"
 124  0008  B1FB 0001   	lset [379].3
 125  000A              #line 125 "D:\WORK\Project\Github\Holtel-MCU\HT66FM5x40\HT66FM5240範例說明\NoHallExampleCode-20140819\Init.c"
 125  000A  B57B 0001   	lclr [379].2
 126  000C              #line 126 "D:\WORK\Project\Github\Holtel-MCU\HT66FM5x40\HT66FM5240範例說明\NoHallExampleCode-20140819\Init.c"
 126  000C  33C2        	set [66].7
 127  000D              #line 127 "D:\WORK\Project\Github\Holtel-MCU\HT66FM5x40\HT66FM5240範例說明\NoHallExampleCode-20140819\Init.c"
 127  000D  3742        	clr [66].6
 129  000E              #line 129 "D:\WORK\Project\Github\Holtel-MCU\HT66FM5x40\HT66FM5240範例說明\NoHallExampleCode-20140819\Init.c"
 129  000E  0FEE        	mov a,238
 129  000F  05F2        	orm a,[114]
 130  0010              #line 130 "D:\WORK\Project\Github\Holtel-MCU\HT66FM5x40\HT66FM5240範例說明\NoHallExampleCode-20140819\Init.c"
 130  0010  0F7F        	mov a,127
"File: Init.c        Assembler  Version HGASM0202      Page 6

 130  0011  00C5        	mov [69],a
 141  0012              #line 141 "D:\WORK\Project\Github\Holtel-MCU\HT66FM5x40\HT66FM5240範例說明\NoHallExampleCode-20140819\Init.c"
 141  0012  0FD1        	mov a,209
 141  0013  00C9        	mov [73],a
 143  0014              #line 143 "D:\WORK\Project\Github\Holtel-MCU\HT66FM5x40\HT66FM5240範例說明\NoHallExampleCode-20140819\Init.c"
 143  0014  0F40        	mov a,64
 143  0015  00CF        	mov [79],a
 144  0016              #line 144 "D:\WORK\Project\Github\Holtel-MCU\HT66FM5x40\HT66FM5240範例說明\NoHallExampleCode-20140819\Init.c"
 144  0016  0FC1        	mov a,193
 144  0017  00D0        	mov [80],a
 147  0018              #line 147 "D:\WORK\Project\Github\Holtel-MCU\HT66FM5x40\HT66FM5240範例說明\NoHallExampleCode-20140819\Init.c"
 147  0018  3717        	clr [23].6
 148  0019              #line 148 "D:\WORK\Project\Github\Holtel-MCU\HT66FM5x40\HT66FM5240範例說明\NoHallExampleCode-20140819\Init.c"
 148  0019  3117        	set [23].2
 149  001A              #line 149 "D:\WORK\Project\Github\Holtel-MCU\HT66FM5x40\HT66FM5240範例說明\NoHallExampleCode-20140819\Init.c"
 149  001A  369D        	clr [29].5
 150  001B              #line 150 "D:\WORK\Project\Github\Holtel-MCU\HT66FM5x40\HT66FM5240範例說明\NoHallExampleCode-20140819\Init.c"
 150  001B  309D        	set [29].1
 154  001C              #line 154 "D:\WORK\Project\Github\Holtel-MCU\HT66FM5x40\HT66FM5240範例說明\NoHallExampleCode-20140819\Init.c"
 154  001C  0F05        	mov a,5
 154  001D  80D8 0001   	lmov [344],a
 155  001F              #line 155 "D:\WORK\Project\Github\Holtel-MCU\HT66FM5x40\HT66FM5240範例說明\NoHallExampleCode-20140819\Init.c"
 155  001F  0F09        	mov a,9
 155  0020  80D9 0001   	lmov [345],a
 158  0022              #line 158 "D:\WORK\Project\Github\Holtel-MCU\HT66FM5x40\HT66FM5240範例說明\NoHallExampleCode-20140819\Init.c"
 158  0022  1F4A        	clr [74]
 161  0023              #line 161 "D:\WORK\Project\Github\Holtel-MCU\HT66FM5x40\HT66FM5240範例說明\NoHallExampleCode-20140819\Init.c"
 161  0023  0F09        	mov a,9
 161  0024  80E2 0001   	lmov [354],a
 162  0026              #line 162 "D:\WORK\Project\Github\Holtel-MCU\HT66FM5x40\HT66FM5240範例說明\NoHallExampleCode-20140819\Init.c"
 162  0026  0F18        	mov a,24
 162  0027  80E3 0001   	lmov [355],a
 163  0029              #line 163 "D:\WORK\Project\Github\Holtel-MCU\HT66FM5x40\HT66FM5240範例說明\NoHallExampleCode-20140819\Init.c"
 163  0029  0F12        	mov a,18
 163  002A  80E4 0001   	lmov [356],a
 164  002C              #line 164 "D:\WORK\Project\Github\Holtel-MCU\HT66FM5x40\HT66FM5240範例說明\NoHallExampleCode-20140819\Init.c"
 164  002C  0F06        	mov a,6
 164  002D  80E5 0001   	lmov [357],a
 165  002F              #line 165 "D:\WORK\Project\Github\Holtel-MCU\HT66FM5x40\HT66FM5240範例說明\NoHallExampleCode-20140819\Init.c"
 165  002F  0F24        	mov a,36
 165  0030  80E6 0001   	lmov [358],a
 166  0032              #line 166 "D:\WORK\Project\Github\Holtel-MCU\HT66FM5x40\HT66FM5240範例說明\NoHallExampleCode-20140819\Init.c"
 166  0032  0F21        	mov a,33
 166  0033  80E7 0001   	lmov [359],a
 176  0035              #line 176 "D:\WORK\Project\Github\Holtel-MCU\HT66FM5x40\HT66FM5240範例說明\NoHallExampleCode-20140819\Init.c"
 176  0035  0F21        	mov a,33
 176  0036  80E8 0001   	lmov [360],a
 177  0038              #line 177 "D:\WORK\Project\Github\Holtel-MCU\HT66FM5x40\HT66FM5240範例說明\NoHallExampleCode-20140819\Init.c"
 177  0038  0F09        	mov a,9
 177  0039  80E9 0001   	lmov [361],a
 178  003B              #line 178 "D:\WORK\Project\Github\Holtel-MCU\HT66FM5x40\HT66FM5240範例說明\NoHallExampleCode-20140819\Init.c"
 178  003B  0F18        	mov a,24
 178  003C  80EA 0001   	lmov [362],a
 179  003E              #line 179 "D:\WORK\Project\Github\Holtel-MCU\HT66FM5x40\HT66FM5240範例說明\NoHallExampleCode-20140819\Init.c"
 179  003E  0F12        	mov a,18
 179  003F  80EB 0001   	lmov [363],a
 180  0041              #line 180 "D:\WORK\Project\Github\Holtel-MCU\HT66FM5x40\HT66FM5240範例說明\NoHallExampleCode-20140819\Init.c"
 180  0041  0F06        	mov a,6
 180  0042  80EC 0001   	lmov [364],a
 181  0044              #line 181 "D:\WORK\Project\Github\Holtel-MCU\HT66FM5x40\HT66FM5240範例說明\NoHallExampleCode-20140819\Init.c"
"File: Init.c        Assembler  Version HGASM0202      Page 7

 181  0044  0F24        	mov a,36
 181  0045  80ED 0001   	lmov [365],a
 190  0047              #line 190 "D:\WORK\Project\Github\Holtel-MCU\HT66FM5x40\HT66FM5240範例說明\NoHallExampleCode-20140819\Init.c"
 190  0047  34C9        	clr [73].1
 193  0048              #line 193 "D:\WORK\Project\Github\Holtel-MCU\HT66FM5x40\HT66FM5240範例說明\NoHallExampleCode-20140819\Init.c"
 193  0048  3615        	clr [21].4
 194  0049              #line 194 "D:\WORK\Project\Github\Holtel-MCU\HT66FM5x40\HT66FM5240範例說明\NoHallExampleCode-20140819\Init.c"
 194  0049  3095        	set [21].1
 197  004A              #line 197 "D:\WORK\Project\Github\Holtel-MCU\HT66FM5x40\HT66FM5240範例說明\NoHallExampleCode-20140819\Init.c"
 197  004A  3619        	clr [25].4
 198  004B              #line 198 "D:\WORK\Project\Github\Holtel-MCU\HT66FM5x40\HT66FM5240範例說明\NoHallExampleCode-20140819\Init.c"
 198  004B  3699        	clr [25].5
 199  004C              #line 199 "D:\WORK\Project\Github\Holtel-MCU\HT66FM5x40\HT66FM5240範例說明\NoHallExampleCode-20140819\Init.c"
 199  004C  3719        	clr [25].6
 200  004D              #line 200 "D:\WORK\Project\Github\Holtel-MCU\HT66FM5x40\HT66FM5240範例說明\NoHallExampleCode-20140819\Init.c"
 200  004D  3019        	set [25].0
 201  004E              #line 201 "D:\WORK\Project\Github\Holtel-MCU\HT66FM5x40\HT66FM5240範例說明\NoHallExampleCode-20140819\Init.c"
 201  004E  3099        	set [25].1
 202  004F              #line 202 "D:\WORK\Project\Github\Holtel-MCU\HT66FM5x40\HT66FM5240範例說明\NoHallExampleCode-20140819\Init.c"
 202  004F  3119        	set [25].2
 202  0050  0003        	ret
 202  0051              _HallInit endp
 202  0051              #line 202 "D:\WORK\Project\Github\Holtel-MCU\HT66FM5x40\HT66FM5240範例說明\NoHallExampleCode-20140819\Init.c"
 202  0051              #pragma debug scope 1 1
 202  0051              ___opoms equ [366]
 202  0051              ___opcm equ [367]
 202  0051              ___opa0cal equ [368]
 202  0051              ___mptc1 equ [75]
 202  0051              ___mptc2 equ [76]
 202  0051              public _ProtectInit
 202  0051              #pragma debug scope 8 1
 207  0051              #line 207 "D:\WORK\Project\Github\Holtel-MCU\HT66FM5x40\HT66FM5240範例說明\NoHallExampleCode-20140819\Init.c"
 207  0000              _ProtectInit .section 'code'
 207  0000              _ProtectInit proc
 208  0000              #line 208 "D:\WORK\Project\Github\Holtel-MCU\HT66FM5x40\HT66FM5240範例說明\NoHallExampleCode-20140819\Init.c"
 208  0000  B17A 0001   	lset [378].2
 209  0002              #line 209 "D:\WORK\Project\Github\Holtel-MCU\HT66FM5x40\HT66FM5240範例說明\NoHallExampleCode-20140819\Init.c"
 209  0002  B5FA 0001   	lclr [378].3
 211  0004              #line 211 "D:\WORK\Project\Github\Holtel-MCU\HT66FM5x40\HT66FM5240範例說明\NoHallExampleCode-20140819\Init.c"
 211  0004  0F42        	mov a,66
 211  0005  80EE 0001   	lmov [366],a
 212  0007              #line 212 "D:\WORK\Project\Github\Holtel-MCU\HT66FM5x40\HT66FM5240範例說明\NoHallExampleCode-20140819\Init.c"
 212  0007  9FEF 0001   	lset [367]
 213  0009              #line 213 "D:\WORK\Project\Github\Holtel-MCU\HT66FM5x40\HT66FM5240範例說明\NoHallExampleCode-20140819\Init.c"
 213  0009  0F70        	mov a,112
 213  000A  80F0 0001   	lmov [368],a
 215  000C              #line 215 "D:\WORK\Project\Github\Holtel-MCU\HT66FM5x40\HT66FM5240範例說明\NoHallExampleCode-20140819\Init.c"
 215  000C  0F1C        	mov a,28
 215  000D  00CB        	mov [75],a
 216  000E              #line 216 "D:\WORK\Project\Github\Holtel-MCU\HT66FM5x40\HT66FM5240範例說明\NoHallExampleCode-20140819\Init.c"
 216  000E  0F1F        	mov a,31
 216  000F  00CC        	mov [76],a
 220  0010              #line 220 "D:\WORK\Project\Github\Holtel-MCU\HT66FM5x40\HT66FM5240範例說明\NoHallExampleCode-20140819\Init.c"
 220  0010  3695        	clr [21].5
 221  0011              #line 221 "D:\WORK\Project\Github\Holtel-MCU\HT66FM5x40\HT66FM5240範例說明\NoHallExampleCode-20140819\Init.c"
 221  0011  3115        	set [21].2
 222  0012              #line 222 "D:\WORK\Project\Github\Holtel-MCU\HT66FM5x40\HT66FM5240範例說明\NoHallExampleCode-20140819\Init.c"
 222  0012  0F11        	mov a,17
 222  0013  05F2        	orm a,[114]
 222  0014  0003        	ret
"File: Init.c        Assembler  Version HGASM0202      Page 8

 222  0015              _ProtectInit endp
 222  0015              #line 222 "D:\WORK\Project\Github\Holtel-MCU\HT66FM5x40\HT66FM5240範例說明\NoHallExampleCode-20140819\Init.c"
 222  0015              #pragma debug scope 1 1
 222  0015              ___captc0 equ [46]
 222  0015              ___captc1 equ [47]
 222  0015              ___captmal equ [50]
 222  0015              ___captmah equ [51]
 222  0015              ___intc1 equ [22]
 222  0015              public _CaptmInit
 222  0015              #pragma debug scope 9 1
 227  0015              #line 227 "D:\WORK\Project\Github\Holtel-MCU\HT66FM5x40\HT66FM5240範例說明\NoHallExampleCode-20140819\Init.c"
 227  0000              _CaptmInit .section 'code'
 227  0000              _CaptmInit proc
 228  0000              #line 228 "D:\WORK\Project\Github\Holtel-MCU\HT66FM5x40\HT66FM5240範例說明\NoHallExampleCode-20140819\Init.c"
 228  0000  1F2E        	clr [46]
 229  0001              #line 229 "D:\WORK\Project\Github\Holtel-MCU\HT66FM5x40\HT66FM5240範例說明\NoHallExampleCode-20140819\Init.c"
 229  0001  0FF7        	mov a,247
 229  0002  00AF        	mov [47],a
 231  0003              #line 231 "D:\WORK\Project\Github\Holtel-MCU\HT66FM5x40\HT66FM5240範例說明\NoHallExampleCode-20140819\Init.c"
 231  0003  1FB2        	set [50]
 232  0004              #line 232 "D:\WORK\Project\Github\Holtel-MCU\HT66FM5x40\HT66FM5240範例說明\NoHallExampleCode-20140819\Init.c"
 232  0004  1FB3        	set [51]
 240  0005              #line 240 "D:\WORK\Project\Github\Holtel-MCU\HT66FM5x40\HT66FM5240範例說明\NoHallExampleCode-20140819\Init.c"
 240  0005  3716        	clr [22].6
 241  0006              #line 241 "D:\WORK\Project\Github\Holtel-MCU\HT66FM5x40\HT66FM5240範例說明\NoHallExampleCode-20140819\Init.c"
 241  0006  3116        	set [22].2
 241  0007  0003        	ret
 241  0008              _CaptmInit endp
 241  0008              #line 241 "D:\WORK\Project\Github\Holtel-MCU\HT66FM5x40\HT66FM5240範例說明\NoHallExampleCode-20140819\Init.c"
 241  0008              #pragma debug scope 1 1
 241  0008              ___pdps0 equ [382]
 241  0008              ___adcr1 equ [57]
 241  0008              ___adcr0 equ [56]
 241  0008              ___adcr2 equ [58]
 241  0008              ___adcr3 equ [324]
 241  0008              ___addl equ [61]
 241  0008              ___adbyps equ [321]
 241  0008              ___adlvdl equ [62]
 241  0008              ___adlvdh equ [63]
 241  0008              ___adhvdl equ [64]
 241  0008              ___adhvdh equ [65]
 241  0008              ___mfi2 equ [27]
 241  0008              public _ADInit
 241  0008              #pragma debug scope 10 1
 248  0008              #line 248 "D:\WORK\Project\Github\Holtel-MCU\HT66FM5x40\HT66FM5240範例說明\NoHallExampleCode-20140819\Init.c"
 248  0000              _ADInit .section 'code'
 248  0000              _ADInit proc
 249  0000              #line 249 "D:\WORK\Project\Github\Holtel-MCU\HT66FM5x40\HT66FM5240範例說明\NoHallExampleCode-20140819\Init.c"
 249  0000  B37B 0001   	lset [379].6
 250  0002              #line 250 "D:\WORK\Project\Github\Holtel-MCU\HT66FM5x40\HT66FM5240範例說明\NoHallExampleCode-20140819\Init.c"
 250  0002  B7FB 0001   	lclr [379].7
 252  0004              #line 252 "D:\WORK\Project\Github\Holtel-MCU\HT66FM5x40\HT66FM5240範例說明\NoHallExampleCode-20140819\Init.c"
 252  0004  B07E 0001   	lset [382].0
 253  0006              #line 253 "D:\WORK\Project\Github\Holtel-MCU\HT66FM5x40\HT66FM5240範例說明\NoHallExampleCode-20140819\Init.c"
 253  0006  B4FE 0001   	lclr [382].1
 255  0008              #line 255 "D:\WORK\Project\Github\Holtel-MCU\HT66FM5x40\HT66FM5240範例說明\NoHallExampleCode-20140819\Init.c"
 255  0008  B17E 0001   	lset [382].2
 256  000A              #line 256 "D:\WORK\Project\Github\Holtel-MCU\HT66FM5x40\HT66FM5240範例說明\NoHallExampleCode-20140819\Init.c"
 256  000A  B5FE 0001   	lclr [382].3
 258  000C              #line 258 "D:\WORK\Project\Github\Holtel-MCU\HT66FM5x40\HT66FM5240範例說明\NoHallExampleCode-20140819\Init.c"
"File: Init.c        Assembler  Version HGASM0202      Page 9

 258  000C  0F1C        	mov a,28
 258  000D  00B9        	mov [57],a
 259  000E              #line 259 "D:\WORK\Project\Github\Holtel-MCU\HT66FM5x40\HT66FM5240範例說明\NoHallExampleCode-20140819\Init.c"
 259  000E  1F38        	clr [56]
 260  000F              #line 260 "D:\WORK\Project\Github\Holtel-MCU\HT66FM5x40\HT66FM5240範例說明\NoHallExampleCode-20140819\Init.c"
 260  000F  1F3A        	clr [58]
 261  0010              #line 261 "D:\WORK\Project\Github\Holtel-MCU\HT66FM5x40\HT66FM5240範例說明\NoHallExampleCode-20140819\Init.c"
 261  0010  9F44 0001   	lclr [324]
 262  0012              #line 262 "D:\WORK\Project\Github\Holtel-MCU\HT66FM5x40\HT66FM5240範例說明\NoHallExampleCode-20140819\Init.c"
 262  0012  1F3D        	clr [61]
 263  0013              #line 263 "D:\WORK\Project\Github\Holtel-MCU\HT66FM5x40\HT66FM5240範例說明\NoHallExampleCode-20140819\Init.c"
 263  0013  0F80        	mov a,128
 263  0014  80C1 0001   	lmov [321],a
 265  0016              #line 265 "D:\WORK\Project\Github\Holtel-MCU\HT66FM5x40\HT66FM5240範例說明\NoHallExampleCode-20140819\Init.c"
 265  0016  1F3E        	clr [62]
 266  0017              #line 266 "D:\WORK\Project\Github\Holtel-MCU\HT66FM5x40\HT66FM5240範例說明\NoHallExampleCode-20140819\Init.c"
 266  0017  1F3F        	clr [63]
 268  0018              #line 268 "D:\WORK\Project\Github\Holtel-MCU\HT66FM5x40\HT66FM5240範例說明\NoHallExampleCode-20140819\Init.c"
 268  0018  1FC0        	set [64]
 269  0019              #line 269 "D:\WORK\Project\Github\Holtel-MCU\HT66FM5x40\HT66FM5240範例說明\NoHallExampleCode-20140819\Init.c"
 269  0019  1FC1        	set [65]
 271  001A              #line 271 "D:\WORK\Project\Github\Holtel-MCU\HT66FM5x40\HT66FM5240範例說明\NoHallExampleCode-20140819\Init.c"
 271  001A  361B        	clr [27].4
 272  001B              #line 272 "D:\WORK\Project\Github\Holtel-MCU\HT66FM5x40\HT66FM5240範例說明\NoHallExampleCode-20140819\Init.c"
 272  001B  301B        	set [27].0
 276  001C              #line 276 "D:\WORK\Project\Github\Holtel-MCU\HT66FM5x40\HT66FM5240範例說明\NoHallExampleCode-20140819\Init.c"
 276  001C  3617        	clr [23].4
 277  001D              #line 277 "D:\WORK\Project\Github\Holtel-MCU\HT66FM5x40\HT66FM5240範例說明\NoHallExampleCode-20140819\Init.c"
 277  001D  3017        	set [23].0
 277  001E  0003        	ret
 277  001F              _ADInit endp
 277  001F              #line 277 "D:\WORK\Project\Github\Holtel-MCU\HT66FM5x40\HT66FM5240範例說明\NoHallExampleCode-20140819\Init.c"
 277  001F              #pragma debug scope 1 1
 277  001F              public _SystemInit
 277  001F              #pragma debug scope 11 1
   6  001F              #line 6 "D:\WORK\Project\Github\Holtel-MCU\HT66FM5x40\HT66FM5240範例說明\NoHallExampleCode-20140819\Init.c"
   6  0000              _SystemInit .section 'code'
   6  0000              _SystemInit proc
   7  0000              #line 7 "D:\WORK\Project\Github\Holtel-MCU\HT66FM5x40\HT66FM5240範例說明\NoHallExampleCode-20140819\Init.c"
   7  0000  2000     R  	call _ClockInit
   8  0001              #line 8 "D:\WORK\Project\Github\Holtel-MCU\HT66FM5x40\HT66FM5240範例說明\NoHallExampleCode-20140819\Init.c"
   8  0001  2000     R  	call _GPIOInit
   9  0002              #line 9 "D:\WORK\Project\Github\Holtel-MCU\HT66FM5x40\HT66FM5240範例說明\NoHallExampleCode-20140819\Init.c"
   9  0002  2000     R  	call _PwmInit
  10  0003              #line 10 "D:\WORK\Project\Github\Holtel-MCU\HT66FM5x40\HT66FM5240範例說明\NoHallExampleCode-20140819\Init.c"
  10  0003  2000     R  	call _CaptmInit
  11  0004              #line 11 "D:\WORK\Project\Github\Holtel-MCU\HT66FM5x40\HT66FM5240範例說明\NoHallExampleCode-20140819\Init.c"
  11  0004  2000     R  	call _ProtectInit
  12  0005              #line 12 "D:\WORK\Project\Github\Holtel-MCU\HT66FM5x40\HT66FM5240範例說明\NoHallExampleCode-20140819\Init.c"
  12  0005  2000     R  	call _HallInit
  13  0006              #line 13 "D:\WORK\Project\Github\Holtel-MCU\HT66FM5x40\HT66FM5240範例說明\NoHallExampleCode-20140819\Init.c"
  13  0006  2000     R  	call _ADInit
  13  0007              #pragma debug scope 12 11
  13  0007              ;begin block, line: 13.-1
  13  0007              #pragma debug scope 13 12
  13  0007              ;begin block, line: 13.-1
  45  0007              #line 45 "D:\WORK\Project\Github\Holtel-MCU\HT66FM5x40\HT66FM5240範例說明\NoHallExampleCode-20140819\Init.c"
  45  0007  0F57        	mov a,87
  45  0008  0092        	mov [18],a
  45  0009              #pragma debug scope 12 11
"File: Init.c        Assembler  Version HGASM0202      Page 10

  45  0009              #pragma debug scope 11 1
  45  0009  0003        	ret
  45  000A              _SystemInit endp
  45  000A              #line 45 "D:\WORK\Project\Github\Holtel-MCU\HT66FM5x40\HT66FM5240範例說明\NoHallExampleCode-20140819\Init.c"
  45  000A              #pragma debug scope 1 1
  45  000A              __addata equ [54]
  45  000A              public _AdSample_1
  45  000A              #pragma debug scope 14 1
 282  000A              #line 282 "D:\WORK\Project\Github\Holtel-MCU\HT66FM5x40\HT66FM5240範例說明\NoHallExampleCode-20140819\Init.c"
 282  0000              _AdSample_1 .section 'code'
 282  0000              _AdSample_1 proc
 282  0000  00              local _AdSample_1_2 db 1 dup(?)	; 0,1
 282  0000  0080     R  	mov _AdSample_1_2[0],a
 282  0001              #pragma debug variable 8 14 _AdSample_1_2+0 "channel"
 285  0001              #line 285 "D:\WORK\Project\Github\Holtel-MCU\HT66FM5x40\HT66FM5240範例說明\NoHallExampleCode-20140819\Init.c"
 285  0001  349B        	clr [27].1
 286  0002              #line 286 "D:\WORK\Project\Github\Holtel-MCU\HT66FM5x40\HT66FM5240範例說明\NoHallExampleCode-20140819\Init.c"
 286  0002  3739        	clr [57].6
 287  0003              #line 287 "D:\WORK\Project\Github\Holtel-MCU\HT66FM5x40\HT66FM5240範例說明\NoHallExampleCode-20140819\Init.c"
 287  0003  0FF0        	mov a,240
 287  0004  06B8        	andm a,[56]
 288  0005              #line 288 "D:\WORK\Project\Github\Holtel-MCU\HT66FM5x40\HT66FM5240範例說明\NoHallExampleCode-20140819\Init.c"
 288  0005  0700     R  	mov a,_AdSample_1_2[0]
 288  0006  05B8        	orm a,[56]
 290  0007              #line 290 "D:\WORK\Project\Github\Holtel-MCU\HT66FM5x40\HT66FM5240範例說明\NoHallExampleCode-20140819\Init.c"
 290  0007  37B8        	clr [56].7
 291  0008              #line 291 "D:\WORK\Project\Github\Holtel-MCU\HT66FM5x40\HT66FM5240範例說明\NoHallExampleCode-20140819\Init.c"
 291  0008  33B8        	set [56].7
 292  0009              #line 292 "D:\WORK\Project\Github\Holtel-MCU\HT66FM5x40\HT66FM5240範例說明\NoHallExampleCode-20140819\Init.c"
 292  0009  37B8        	clr [56].7
 292  000A              _L17:
 293  000A              #line 293 "D:\WORK\Project\Github\Holtel-MCU\HT66FM5x40\HT66FM5240範例說明\NoHallExampleCode-20140819\Init.c"
 293  000A  3F38        	sz [56].6
 293  000B  2800     R  	jmp _L17
 295  000C              #line 295 "D:\WORK\Project\Github\Holtel-MCU\HT66FM5x40\HT66FM5240範例說明\NoHallExampleCode-20140819\Init.c"
 295  000C  0736        	mov a,[54]
 295  000D  0080     E  	mov ra,a
 295  000E  0737        	mov a,[55]
 295  000F  0080     E  	mov rb,a
 296  0010              #line 296 "D:\WORK\Project\Github\Holtel-MCU\HT66FM5x40\HT66FM5240範例說明\NoHallExampleCode-20140819\Init.c"
 296  0010  3339        	set [57].6
 297  0011              #line 297 "D:\WORK\Project\Github\Holtel-MCU\HT66FM5x40\HT66FM5240範例說明\NoHallExampleCode-20140819\Init.c"
 297  0011  0FF0        	mov a,240
 297  0012  06B8        	andm a,[56]
 299  0013              #line 299 "D:\WORK\Project\Github\Holtel-MCU\HT66FM5x40\HT66FM5240範例說明\NoHallExampleCode-20140819\Init.c"
 299  0013  1F00     E  	clr _ChannelCnt[0]
 300  0014              #line 300 "D:\WORK\Project\Github\Holtel-MCU\HT66FM5x40\HT66FM5240範例說明\NoHallExampleCode-20140819\Init.c"
 300  0014  369B        	clr [27].5
 301  0015              #line 301 "D:\WORK\Project\Github\Holtel-MCU\HT66FM5x40\HT66FM5240範例說明\NoHallExampleCode-20140819\Init.c"
 301  0015  309B        	set [27].1
 304  0016              #line 304 "D:\WORK\Project\Github\Holtel-MCU\HT66FM5x40\HT66FM5240範例說明\NoHallExampleCode-20140819\Init.c"
 304  0016  0F06        	mov a,6
 304  0017              _LI1:
 304  0017  340A        	clr c
 304  0018  1B80     E  	rrc rb
 304  0019  1B80     E  	rrc ra
 304  001A  1785        	sdz acc
 304  001B  2800     R  	jmp _LI1
 304  001C  0003        	ret
 304  001D              _AdSample_1 endp
"File: Init.c        Assembler  Version HGASM0202      Page 11

 304  001D              #line 304 "D:\WORK\Project\Github\Holtel-MCU\HT66FM5x40\HT66FM5240範例說明\NoHallExampleCode-20140819\Init.c"
 304  001D              #pragma debug scope 1 1
 304  001D              #pragma debug struct_end
 304  001D              #pragma debug struct_end
 304  001D              #pragma debug union_end
 304  001D              #pragma debug union_end
 304  001D              #pragma debug variable 43 1 ___smod "__smod" 1
 304  001D              #pragma debug struct_end
 304  001D              #pragma debug struct_end
 304  001D              #pragma debug union_end
 304  001D              #pragma debug union_end
 304  001D              #pragma debug variable 45 1 ___wdtc "__wdtc" 1
 304  001D              #pragma debug struct_end
 304  001D              #pragma debug struct_end
 304  001D              #pragma debug union_end
 304  001D              #pragma debug union_end
 304  001D              #pragma debug variable 47 1 ___intc0 "__intc0" 1
 304  001D              #pragma debug struct_end
 304  001D              #pragma debug struct_end
 304  001D              #pragma debug union_end
 304  001D              #pragma debug union_end
 304  001D              #pragma debug variable 49 1 ___intc1 "__intc1" 1
 304  001D              #pragma debug struct_end
 304  001D              #pragma debug struct_end
 304  001D              #pragma debug union_end
 304  001D              #pragma debug union_end
 304  001D              #pragma debug variable 51 1 ___intc2 "__intc2" 1
 304  001D              #pragma debug struct_end
 304  001D              #pragma debug struct_end
 304  001D              #pragma debug union_end
 304  001D              #pragma debug union_end
 304  001D              #pragma debug variable 53 1 ___mfi0 "__mfi0" 1
 304  001D              #pragma debug struct_end
 304  001D              #pragma debug struct_end
 304  001D              #pragma debug union_end
 304  001D              #pragma debug union_end
 304  001D              #pragma debug variable 55 1 ___mfi1 "__mfi1" 1
 304  001D              #pragma debug struct_end
 304  001D              #pragma debug struct_end
 304  001D              #pragma debug union_end
 304  001D              #pragma debug union_end
 304  001D              #pragma debug variable 57 1 ___mfi2 "__mfi2" 1
 304  001D              #pragma debug struct_end
 304  001D              #pragma debug struct_end
 304  001D              #pragma debug union_end
 304  001D              #pragma debug union_end
 304  001D              #pragma debug variable 59 1 ___mfi4 "__mfi4" 1
 304  001D              #pragma debug struct_end
 304  001D              #pragma debug struct_end
 304  001D              #pragma debug union_end
 304  001D              #pragma debug union_end
 304  001D              #pragma debug variable 61 1 ___papu "__papu" 1
 304  001D              #pragma debug struct_end
 304  001D              #pragma debug struct_end
 304  001D              #pragma debug union_end
 304  001D              #pragma debug union_end
 304  001D              #pragma debug variable 63 1 ___pa "__pa" 1
 304  001D              #pragma debug struct_end
 304  001D              #pragma debug struct_end
 304  001D              #pragma debug union_end
"File: Init.c        Assembler  Version HGASM0202      Page 12

 304  001D              #pragma debug union_end
 304  001D              #pragma debug variable 65 1 ___pac "__pac" 1
 304  001D              #pragma debug struct_end
 304  001D              #pragma debug struct_end
 304  001D              #pragma debug union_end
 304  001D              #pragma debug union_end
 304  001D              #pragma debug variable 67 1 ___captc0 "__captc0" 1
 304  001D              #pragma debug struct_end
 304  001D              #pragma debug struct_end
 304  001D              #pragma debug union_end
 304  001D              #pragma debug union_end
 304  001D              #pragma debug variable 69 1 ___captc1 "__captc1" 1
 304  001D              #pragma debug variable 8 1 ___captmal "__captmal" 1
 304  001D              #pragma debug variable 8 1 ___captmah "__captmah" 1
 304  001D              #pragma debug struct_end
 304  001D              #pragma debug struct_end
 304  001D              #pragma debug union_end
 304  001D              #pragma debug union_end
 304  001D              #pragma debug variable 71 1 ___adcr0 "__adcr0" 1
 304  001D              #pragma debug struct_end
 304  001D              #pragma debug struct_end
 304  001D              #pragma debug union_end
 304  001D              #pragma debug union_end
 304  001D              #pragma debug variable 73 1 ___adcr1 "__adcr1" 1
 304  001D              #pragma debug struct_end
 304  001D              #pragma debug struct_end
 304  001D              #pragma debug union_end
 304  001D              #pragma debug union_end
 304  001D              #pragma debug variable 75 1 ___adcr2 "__adcr2" 1
 304  001D              #pragma debug variable 8 1 ___addl "__addl" 1
 304  001D              #pragma debug variable 8 1 ___adlvdl "__adlvdl" 1
 304  001D              #pragma debug variable 8 1 ___adlvdh "__adlvdh" 1
 304  001D              #pragma debug variable 8 1 ___adhvdl "__adhvdl" 1
 304  001D              #pragma debug variable 8 1 ___adhvdh "__adhvdh" 1
 304  001D              #pragma debug struct_end
 304  001D              #pragma debug struct_end
 304  001D              #pragma debug union_end
 304  001D              #pragma debug union_end
 304  001D              #pragma debug variable 77 1 ___pbps0 "__pbps0" 1
 304  001D              #pragma debug struct_end
 304  001D              #pragma debug struct_end
 304  001D              #pragma debug union_end
 304  001D              #pragma debug union_end
 304  001D              #pragma debug variable 79 1 ___integ0 "__integ0" 1
 304  001D              #pragma debug struct_end
 304  001D              #pragma debug struct_end
 304  001D              #pragma debug union_end
 304  001D              #pragma debug union_end
 304  001D              #pragma debug variable 81 1 ___hdcr "__hdcr" 1
 304  001D              #pragma debug struct_end
 304  001D              #pragma debug struct_end
 304  001D              #pragma debug union_end
 304  001D              #pragma debug union_end
 304  001D              #pragma debug variable 83 1 ___hdcd "__hdcd" 1
 304  001D              #pragma debug struct_end
 304  001D              #pragma debug struct_end
 304  001D              #pragma debug union_end
 304  001D              #pragma debug union_end
 304  001D              #pragma debug variable 85 1 ___mptc1 "__mptc1" 1
 304  001D              #pragma debug struct_end
"File: Init.c        Assembler  Version HGASM0202      Page 13

 304  001D              #pragma debug struct_end
 304  001D              #pragma debug union_end
 304  001D              #pragma debug union_end
 304  001D              #pragma debug variable 87 1 ___mptc2 "__mptc2" 1
 304  001D              #pragma debug struct_end
 304  001D              #pragma debug struct_end
 304  001D              #pragma debug union_end
 304  001D              #pragma debug union_end
 304  001D              #pragma debug variable 89 1 ___ptm0c0 "__ptm0c0" 1
 304  001D              #pragma debug struct_end
 304  001D              #pragma debug struct_end
 304  001D              #pragma debug union_end
 304  001D              #pragma debug union_end
 304  001D              #pragma debug variable 91 1 ___ptm0c1 "__ptm0c1" 1
 304  001D              #pragma debug struct_end
 304  001D              #pragma debug struct_end
 304  001D              #pragma debug union_end
 304  001D              #pragma debug union_end
 304  001D              #pragma debug variable 93 1 ___pwmc "__pwmc" 1
 304  001D              #pragma debug variable 8 1 ___dutr0l "__dutr0l" 1
 304  001D              #pragma debug variable 8 1 ___dutr0h "__dutr0h" 1
 304  001D              #pragma debug variable 8 1 ___dutr1l "__dutr1l" 1
 304  001D              #pragma debug variable 8 1 ___dutr1h "__dutr1h" 1
 304  001D              #pragma debug variable 8 1 ___dutr2l "__dutr2l" 1
 304  001D              #pragma debug variable 8 1 ___dutr2h "__dutr2h" 1
 304  001D              #pragma debug variable 8 1 ___prdrl "__prdrl" 1
 304  001D              #pragma debug variable 8 1 ___prdrh "__prdrh" 1
 304  001D              #pragma debug struct_end
 304  001D              #pragma debug struct_end
 304  001D              #pragma debug union_end
 304  001D              #pragma debug union_end
 304  001D              #pragma debug variable 95 1 ___pwmme "__pwmme" 1
 304  001D              #pragma debug struct_end
 304  001D              #pragma debug struct_end
 304  001D              #pragma debug union_end
 304  001D              #pragma debug union_end
 304  001D              #pragma debug variable 97 1 ___pwmmd "__pwmmd" 1
 304  001D              #pragma debug struct_end
 304  001D              #pragma debug struct_end
 304  001D              #pragma debug union_end
 304  001D              #pragma debug union_end
 304  001D              #pragma debug variable 99 1 ___mcf "__mcf" 1
 304  001D              #pragma debug struct_end
 304  001D              #pragma debug struct_end
 304  001D              #pragma debug union_end
 304  001D              #pragma debug union_end
 304  001D              #pragma debug variable 101 1 ___plc "__plc" 1
 304  001D              #pragma debug struct_end
 304  001D              #pragma debug struct_end
 304  001D              #pragma debug union_end
 304  001D              #pragma debug union_end
 304  001D              #pragma debug variable 103 1 ___cmpc "__cmpc" 1
 304  001D              #pragma debug struct_end
 304  001D              #pragma debug struct_end
 304  001D              #pragma debug union_end
 304  001D              #pragma debug union_end
 304  001D              #pragma debug variable 105 1 ___adbyps "__adbyps" 1
 304  001D              #pragma debug struct_end
 304  001D              #pragma debug struct_end
 304  001D              #pragma debug union_end
"File: Init.c        Assembler  Version HGASM0202      Page 14

 304  001D              #pragma debug union_end
 304  001D              #pragma debug variable 107 1 ___adcr3 "__adcr3" 1
 304  001D              #pragma debug struct_end
 304  001D              #pragma debug struct_end
 304  001D              #pragma debug union_end
 304  001D              #pragma debug union_end
 304  001D              #pragma debug variable 109 1 ___hchk_num "__hchk_num" 1
 304  001D              #pragma debug struct_end
 304  001D              #pragma debug struct_end
 304  001D              #pragma debug union_end
 304  001D              #pragma debug union_end
 304  001D              #pragma debug variable 111 1 ___hnf_msel "__hnf_msel" 1
 304  001D              #pragma debug struct_end
 304  001D              #pragma debug struct_end
 304  001D              #pragma debug union_end
 304  001D              #pragma debug union_end
 304  001D              #pragma debug variable 113 1 ___hdct0 "__hdct0" 1
 304  001D              #pragma debug struct_end
 304  001D              #pragma debug struct_end
 304  001D              #pragma debug union_end
 304  001D              #pragma debug union_end
 304  001D              #pragma debug variable 115 1 ___hdct1 "__hdct1" 1
 304  001D              #pragma debug struct_end
 304  001D              #pragma debug struct_end
 304  001D              #pragma debug union_end
 304  001D              #pragma debug union_end
 304  001D              #pragma debug variable 117 1 ___hdct2 "__hdct2" 1
 304  001D              #pragma debug struct_end
 304  001D              #pragma debug struct_end
 304  001D              #pragma debug union_end
 304  001D              #pragma debug union_end
 304  001D              #pragma debug variable 119 1 ___hdct3 "__hdct3" 1
 304  001D              #pragma debug struct_end
 304  001D              #pragma debug struct_end
 304  001D              #pragma debug union_end
 304  001D              #pragma debug union_end
 304  001D              #pragma debug variable 121 1 ___hdct4 "__hdct4" 1
 304  001D              #pragma debug struct_end
 304  001D              #pragma debug struct_end
 304  001D              #pragma debug union_end
 304  001D              #pragma debug union_end
 304  001D              #pragma debug variable 123 1 ___hdct5 "__hdct5" 1
 304  001D              #pragma debug struct_end
 304  001D              #pragma debug struct_end
 304  001D              #pragma debug union_end
 304  001D              #pragma debug union_end
 304  001D              #pragma debug variable 125 1 ___hdct6 "__hdct6" 1
 304  001D              #pragma debug struct_end
 304  001D              #pragma debug struct_end
 304  001D              #pragma debug union_end
 304  001D              #pragma debug union_end
 304  001D              #pragma debug variable 127 1 ___hdct7 "__hdct7" 1
 304  001D              #pragma debug struct_end
 304  001D              #pragma debug struct_end
 304  001D              #pragma debug union_end
 304  001D              #pragma debug union_end
 304  001D              #pragma debug variable 129 1 ___hdct8 "__hdct8" 1
 304  001D              #pragma debug struct_end
 304  001D              #pragma debug struct_end
 304  001D              #pragma debug union_end
"File: Init.c        Assembler  Version HGASM0202      Page 15

 304  001D              #pragma debug union_end
 304  001D              #pragma debug variable 131 1 ___hdct9 "__hdct9" 1
 304  001D              #pragma debug struct_end
 304  001D              #pragma debug struct_end
 304  001D              #pragma debug union_end
 304  001D              #pragma debug union_end
 304  001D              #pragma debug variable 133 1 ___hdct10 "__hdct10" 1
 304  001D              #pragma debug struct_end
 304  001D              #pragma debug struct_end
 304  001D              #pragma debug union_end
 304  001D              #pragma debug union_end
 304  001D              #pragma debug variable 135 1 ___hdct11 "__hdct11" 1
 304  001D              #pragma debug struct_end
 304  001D              #pragma debug struct_end
 304  001D              #pragma debug union_end
 304  001D              #pragma debug union_end
 304  001D              #pragma debug variable 137 1 ___opoms "__opoms" 1
 304  001D              #pragma debug variable 8 1 ___opcm "__opcm" 1
 304  001D              #pragma debug struct_end
 304  001D              #pragma debug struct_end
 304  001D              #pragma debug union_end
 304  001D              #pragma debug union_end
 304  001D              #pragma debug variable 139 1 ___opa0cal "__opa0cal" 1
 304  001D              #pragma debug struct_end
 304  001D              #pragma debug struct_end
 304  001D              #pragma debug union_end
 304  001D              #pragma debug union_end
 304  001D              #pragma debug variable 141 1 ___paps0 "__paps0" 1
 304  001D              #pragma debug struct_end
 304  001D              #pragma debug struct_end
 304  001D              #pragma debug union_end
 304  001D              #pragma debug union_end
 304  001D              #pragma debug variable 143 1 ___paps1 "__paps1" 1
 304  001D              #pragma debug struct_end
 304  001D              #pragma debug struct_end
 304  001D              #pragma debug union_end
 304  001D              #pragma debug union_end
 304  001D              #pragma debug variable 145 1 ___pcps0 "__pcps0" 1
 304  001D              #pragma debug struct_end
 304  001D              #pragma debug struct_end
 304  001D              #pragma debug union_end
 304  001D              #pragma debug union_end
 304  001D              #pragma debug variable 147 1 ___pcps1 "__pcps1" 1
 304  001D              #pragma debug struct_end
 304  001D              #pragma debug struct_end
 304  001D              #pragma debug union_end
 304  001D              #pragma debug union_end
 304  001D              #pragma debug variable 149 1 ___pdps0 "__pdps0" 1
 304  001D              #pragma debug variable 12 1 __addata "_addata" 2
 304  001D              
 304  001D              ; output external variables
 304  001D              extern _ChannelCnt:byte
 304  001D              
 304  001D              ; 
 304  001D              ; Generated by holtek-gcc v3.19, Mon Jun 17 17:35:21 2019
 304  001D              ; Rebuild 115
 304  001D              ; end of file


        0 Errors, 0