"File: Interrupt.c   Assembler  Version HGASM0202      Page 1


   1  0000              ; Generated by holtek-gcc v3.19, Mon Jun 17 17:35:21 2019
   2  0000              ; 
   3  0000              ; Configuration:
   4  0000              ;       with long instruction
   5  0000              ;       Single ROM, Multi-RAM
   6  0000              ;       bits_per_rom_unit:16
   7  0000              ;       with mp1
   8  0000              ;       with tbhp, address(0x9)
   9  0000              ;          Use tabrd-const
  10  0000              ;       
  11  0000              ; SFR address of long-instruction arch:
  12  0000              ;    mp0 = -1,1,0
  13  0000              ;    mp1 = 4,3,2
  14  0000              ;    mp2 = 14,13,12
  15  0000              ;    tbp = 9,7,8
  16  0000              ;    acc = 5
  17  0000              ;    pcl = 6
  18  0000              ;    status = 10
  19  0000              ;    bp = 11
  20  0000              ;    intc = 21
  21  0000              ;       
  22  0000              ;       
  23  0000              ; use 'tabrdc' instead of 'tabrd'
  24  0000              ;       
  25  0000              
  26  0000              #pragma translator "holtek-gcc 4.6.4" "3.19" "build 20130711"
  27  0000              ; Rebuild 115
  28  0000              
  29  0000              ir equ [2]
  30  0000              mp equ [3]
  31  0000              sbp equ [4]
  32  0000              acc equ [5]
  33  0000              bp equ [11]
  34  0000              tblp equ [7]
  35  0000              tbhp equ [9]
  36  0000              status equ [10]
  37  0000              c equ [10].0
  38  0000              ac equ [10].1
  39  0000              z equ [10].2
  40  0000              ov equ [10].3
  41  0000              cz equ [10].6
  42  0000              sc equ [10].7
  43  0000              intc equ [21]
  44  0000              mdu0r0 equ [73h]
  45  0000              mdu0r1 equ [74h]
  46  0000              mdu0ctrl equ [75h]
  47  0000              mduwr0 equ [76h]
  48  0000              mduwr1 equ [77h]
  49  0000              mduwr2 equ [78h]
  50  0000              mduwr3 equ [7ah]
  51  0000              mduwr4 equ [7bh]
  52  0000              mduwr5 equ [7ch]
  53  0000              mduwrctrl equ [7dh]
  54  0000              
  55  0000              extern ra:byte
  56  0000              extern rb:byte
  57  0000              extern rc:byte
  58  0000              extern rd:byte
  59  0000              extern re:byte
"File: Interrupt.ASM  Assembler  Version HGASM0202      Page 2

  60  0000              extern rf:byte
  61  0000              extern rg:byte
  62  0000              extern rh:byte
  63  0000              extern _Crom2Prom:near
  64  0000              extern _Crom2PromNext:near
  65  0000              
  66  0000              RAMBANK 0 @BITDATASEC, @BITDATASEC1
  67  0000              @HCCINIT	.section 'data'
  68  0000              @HCCINIT0	.section 'data'
  69  0000              @BITDATASEC	 .section 'data'
  70  0000              @BITDATASEC1	 .section 'data'
  71  0000              
  72  0000              #pragma debug scope 1 1
  73  0000              	extern __DELAY3:near
  74  0000              	extern __DELAYX3:near
  75  0000              	extern __DELAYX6:near
  76  0000              	extern __DELAYY5:near
  77  0000              	extern __DELAYY3:near
  78  0000              	extern _builtin_holtek_delay_2:byte
  79  0000              ___mfi1 equ [26]
  80  0000              ___hdcd equ [74]
  81  0000              ___pa equ [35]
  82  0000              public _ISR_PWM
  83  0000              #pragma debug scope 2 1

  18  0000              #line 18 "D:\WORK\Project\Github\Holtel-MCU\HT66FM5x40\HT66FM5240範例說明\NoHallExampleCode-20140819\Interrupt.c"
  18  0000              @ISR_PWM_code .section at 12 'code'
  18  0000              ifdef INTERRUPT_DELAY
  18  0000  0000        	nop
  18  0001              endif
  18  0001  0080     E  	mov r1,a
  18  0002  070A        	mov a,status
  18  0003              ifndef INTERRUPT_DELAY
  18  0003              	mov r2,a
  18  0003              endif
  18  0003  2800     R  	jmp _ISR_PWM
  18  0004              #pragma debug scope 1 1
  18  0004              @dummy12 endp
  18  0004              #pragma debug scope 3 1
  18  0000              _ISR_PWM .section 'code'
  18  0000              _ISR_PWM proc
  18  0000  00          local _ISR_PWM_2 db 1 dup(?)
  18  0000              ifdef INTERRUPT_DELAY
  18  0000  0080     E  	mov r2,a
  18  0001              endif
  18  0001  0703        	mov a,mp
  18  0002  0080     E  	mov r3,a
  18  0003  0704        	mov a,sbp
  18  0004  0080     E  	mov r4,a
  18  0005  0707        	mov a,tblp
  18  0006  0080     E  	mov r5,a
  18  0007  0709        	mov a,tbhp
  18  0008  0080     E  	mov r6,a
  19  0009              #line 19 "D:\WORK\Project\Github\Holtel-MCU\HT66FM5x40\HT66FM5240範例說明\NoHallExampleCode-20140819\Interrupt.c"
  19  0009  379A        	clr [26].7
  21  000A              #line 21 "D:\WORK\Project\Github\Holtel-MCU\HT66FM5x40\HT66FM5240範例說明\NoHallExampleCode-20140819\Interrupt.c"
  21  000A  0700     E  	mov a,_MC_SpeedTime[0]
  21  000B  0080     E  	mov rb,a
  21  000C  0700     E  	mov a,_MC_SpeedTime[1]
  21  000D  0080     E  	mov rc,a
"File: Interrupt.c   Assembler  Version HGASM0202      Page 3

  21  000E  0F0F        	mov a,15
  21  000F  0200     E  	sub a,rb
  21  0010  0F27        	mov a,39
  21  0011  1200     E  	sbc a,rc
  21  0012  380A        	snz c
  21  0013  2800     R  	jmp _L2
  23  0014              #line 23 "D:\WORK\Project\Github\Holtel-MCU\HT66FM5x40\HT66FM5240範例說明\NoHallExampleCode-20140819\Interrupt.c"
  23  0014  0F01        	mov a,1
  23  0015  0300     E  	add a,rb
  23  0016  0080     E  	mov _MC_SpeedTime[0],a
  23  0017  0F00        	mov a,0
  23  0018  1300     E  	adc a,rc
  23  0019  0080     E  	mov _MC_SpeedTime[1],a
  23  001A              _L2:
  58  001A              #line 58 "D:\WORK\Project\Github\Holtel-MCU\HT66FM5x40\HT66FM5240範例說明\NoHallExampleCode-20140819\Interrupt.c"
  58  001A  1400     E  	inca _Time1msCnt[0]
  58  001B  0080     E  	mov ra,a
  58  001C  0700     E  	mov a,ra
  58  001D  0080     E  	mov _Time1msCnt[0],a
  58  001E  0F0F        	mov a,15
  58  001F  0200     E  	sub a,ra
  58  0020  3C0A        	sz c
  58  0021  2800     R  	jmp _L1
  60  0022              #line 60 "D:\WORK\Project\Github\Holtel-MCU\HT66FM5x40\HT66FM5240範例說明\NoHallExampleCode-20140819\Interrupt.c"
  60  0022  1F00     E  	clr _Time1msCnt[0]
  61  0023              #line 61 "D:\WORK\Project\Github\Holtel-MCU\HT66FM5x40\HT66FM5240範例說明\NoHallExampleCode-20140819\Interrupt.c"
  61  0023  3000     E  	set _Flag01[0].4
  64  0024              #line 64 "D:\WORK\Project\Github\Holtel-MCU\HT66FM5x40\HT66FM5240範例說明\NoHallExampleCode-20140819\Interrupt.c"
  64  0024  0700     E  	mov a,_Flag01[0]
  64  0025  0080     R  	mov _ISR_PWM_2[0],a
  64  0026  3800     R  	snz _ISR_PWM_2[0].2
  64  0027  2800     R  	jmp _L1
  64  0028  3800     E  	snz _Flag02[0].0
  64  0029  2800     R  	jmp _L1
  66  002A              #line 66 "D:\WORK\Project\Github\Holtel-MCU\HT66FM5x40\HT66FM5240範例說明\NoHallExampleCode-20140819\Interrupt.c"
  66  002A  1400     R  	inca _TakeTurnTimeCnt[0]
  66  002B  0080     E  	mov ra,a
  66  002C  0700     E  	mov a,ra
  66  002D  0080     R  	mov _TakeTurnTimeCnt[0],a
  66  002E  0F63        	mov a,99
  66  002F  0200     E  	sub a,ra
  66  0030  3C0A        	sz c
  66  0031  2800     R  	jmp _L1
  68  0032              #line 68 "D:\WORK\Project\Github\Holtel-MCU\HT66FM5x40\HT66FM5240範例說明\NoHallExampleCode-20140819\Interrupt.c"
  68  0032  1F4A        	clr [74]
  69  0033              #line 69 "D:\WORK\Project\Github\Holtel-MCU\HT66FM5x40\HT66FM5240範例說明\NoHallExampleCode-20140819\Interrupt.c"
  69  0033  1F00     R  	clr _TakeTurnTimeCnt[0]
  70  0034              #line 70 "D:\WORK\Project\Github\Holtel-MCU\HT66FM5x40\HT66FM5240範例說明\NoHallExampleCode-20140819\Interrupt.c"
  70  0034  1F00     E  	clr ra
  70  0035  3B23        	snz [35].6
  70  0036  3000     E  	set ra.6
  70  0037  3723        	clr [35].6
  70  0038  0700     E  	mov a,ra
  70  0039  05A3        	orm a,[35]
  72  003A              #line 72 "D:\WORK\Project\Github\Holtel-MCU\HT66FM5x40\HT66FM5240範例說明\NoHallExampleCode-20140819\Interrupt.c"
  72  003A  3800     R  	snz _ISR_PWM_2[0].5
  72  003B  2800     R  	jmp _L6
  74  003C              #line 74 "D:\WORK\Project\Github\Holtel-MCU\HT66FM5x40\HT66FM5240範例說明\NoHallExampleCode-20140819\Interrupt.c"
  74  003C  0F00     E  	mov a,low offset _ucPrevHall
  74  003D  0300     E  	add a,_MC_NewHall[0]
"File: Interrupt.c   Assembler  Version HGASM0202      Page 4

  74  003E  0083        	mov mp,a
  74  003F  0F00     E  	mov a,high offset _ucPrevHall
  74  0040  1F04        	clr sbp
  74  0041  1384        	adcm a,sbp
  74  0042  2800     R  	jmp _L14
  74  0043              _L6:
  78  0043              #line 78 "D:\WORK\Project\Github\Holtel-MCU\HT66FM5x40\HT66FM5240範例說明\NoHallExampleCode-20140819\Interrupt.c"
  78  0043  0F00     E  	mov a,low offset _ucNextHall
  78  0044  0300     E  	add a,_MC_NewHall[0]
  78  0045  0083        	mov mp,a
  78  0046  0F00     E  	mov a,high offset _ucNextHall
  78  0047  1F04        	clr sbp
  78  0048  1384        	adcm a,sbp
  78  0049              _L14:
  78  0049  2000     E  	call _Crom2Prom
  78  004A  0080     E  	mov _MC_NewHall[0],a
  80  004B              #line 80 "D:\WORK\Project\Github\Holtel-MCU\HT66FM5x40\HT66FM5240範例說明\NoHallExampleCode-20140819\Interrupt.c"
  80  004B  0700     E  	mov a,_MC_NewHall[0]
  80  004C  00CA        	mov [74],a
  81  004D              #line 81 "D:\WORK\Project\Github\Holtel-MCU\HT66FM5x40\HT66FM5240範例說明\NoHallExampleCode-20140819\Interrupt.c"
  81  004D  0700     E  	mov a,_MC_NewHall[0]
  81  004E  0A06        	sub a,6
  81  004F  390A        	snz z
  81  0050  2800     R  	jmp _L1
  83  0051              #line 83 "D:\WORK\Project\Github\Holtel-MCU\HT66FM5x40\HT66FM5240範例說明\NoHallExampleCode-20140819\Interrupt.c"
  83  0051  3400     E  	clr _Flag02[0].0
  83  0052              _L1:
  83  0052  0700     E  	mov a,r2
  83  0053  008A        	mov status,a
  83  0054  0700     E  	mov a,r3
  83  0055  0083        	mov mp,a
  83  0056  0700     E  	mov a,r4
  83  0057  0084        	mov sbp,a
  83  0058  0700     E  	mov a,r5
  83  0059  0087        	mov tblp,a
  83  005A  0700     E  	mov a,r6
  83  005B  0089        	mov tbhp,a
  83  005C  1D05        	tabrdc acc
  83  005D  0700     E  	mov a,r1
  83  005E  0004        	reti
  83  005F              _ISR_PWM endp
  83  005F              
  83  005F              #line 83 "D:\WORK\Project\Github\Holtel-MCU\HT66FM5x40\HT66FM5240範例說明\NoHallExampleCode-20140819\Interrupt.c"
  83  005F              #pragma debug scope 1 1
  83  005F              ___mfi0 equ [25]
  83  005F              ___mcd equ [101]
  83  005F              ___ptm0ah equ [84]
  83  005F              ___ptm0al equ [83]
  83  005F              ___ptm0c0 equ [79]
  83  005F              public _ISR_Hall
  83  005F              #pragma debug scope 4 1
  94  005F              #line 94 "D:\WORK\Project\Github\Holtel-MCU\HT66FM5x40\HT66FM5240範例說明\NoHallExampleCode-20140819\Interrupt.c"
  94  0000              @ISR_Hall_code .section at 4 'code'
  94  0000              ifdef INTERRUPT_DELAY
  94  0000  0000        	nop
  94  0001              endif
  94  0001  0080     E  	mov r1,a
  94  0002  070A        	mov a,status
  94  0003              ifndef INTERRUPT_DELAY
  94  0003              	mov r2,a
"File: Interrupt.c   Assembler  Version HGASM0202      Page 5

  94  0003              endif
  94  0003  2800     R  	jmp _ISR_Hall
  94  0004              #pragma debug scope 1 1
  94  0004              @dummy4 endp
  94  0004              #pragma debug scope 5 1
  94  0000              _ISR_Hall .section 'code'
  94  0000              _ISR_Hall proc
  94  0000              ifdef INTERRUPT_DELAY
  94  0000  0080     E  	mov r2,a
  94  0001              endif
  95  0001              #line 95 "D:\WORK\Project\Github\Holtel-MCU\HT66FM5x40\HT66FM5240範例說明\NoHallExampleCode-20140819\Interrupt.c"
  95  0001  3619        	clr [25].4
  96  0002              #line 96 "D:\WORK\Project\Github\Holtel-MCU\HT66FM5x40\HT66FM5240範例說明\NoHallExampleCode-20140819\Interrupt.c"
  96  0002  3699        	clr [25].5
  97  0003              #line 97 "D:\WORK\Project\Github\Holtel-MCU\HT66FM5x40\HT66FM5240範例說明\NoHallExampleCode-20140819\Interrupt.c"
  97  0003  3719        	clr [25].6
  99  0004              #line 99 "D:\WORK\Project\Github\Holtel-MCU\HT66FM5x40\HT66FM5240範例說明\NoHallExampleCode-20140819\Interrupt.c"
  99  0004  0765        	mov a,[101]
  99  0005  0E07        	and a,7
  99  0006  0080     E  	mov ra,a
  99  0007  0700     E  	mov a,ra
  99  0008  0080     R  	mov _temp[0],a
 101  0009              #line 101 "D:\WORK\Project\Github\Holtel-MCU\HT66FM5x40\HT66FM5240範例說明\NoHallExampleCode-20140819\Interrupt.c"
 101  0009  0700     E  	mov a,ra
 101  000A  0200     E  	sub a,_MC_HallPortVal[0]
 101  000B  3D0A        	sz z
 101  000C  2800     R  	jmp _L16
 103  000D              #line 103 "D:\WORK\Project\Github\Holtel-MCU\HT66FM5x40\HT66FM5240範例說明\NoHallExampleCode-20140819\Interrupt.c"
 103  000D  0700     E  	mov a,ra
 103  000E  0080     E  	mov _MC_HallPortVal[0],a
 128  000F              #line 128 "D:\WORK\Project\Github\Holtel-MCU\HT66FM5x40\HT66FM5240範例說明\NoHallExampleCode-20140819\Interrupt.c"
 128  000F  0700     E  	mov a,_MC_PrevSpeedTime[0]
 128  0010  0080     E  	mov rd,a
 128  0011  0700     E  	mov a,_MC_PrevSpeedTime[1]
 128  0012  0080     E  	mov re,a
 128  0013  0700     E  	mov a,_MC_HallDelayTime[0]
 128  0014  0300     E  	add a,rd
 128  0015  0080     E  	mov rf,a
 128  0016  0700     E  	mov a,_MC_HallDelayTime[1]
 128  0017  1300     E  	adc a,re
 128  0018  0080     E  	mov rg,a
 128  0019  0700     E  	mov a,rf
 128  001A  0080     E  	mov rb,a
 128  001B  0700     E  	mov a,rg
 128  001C  0080     E  	mov rc,a
 128  001D  340A        	clr c
 128  001E  1B80     E  	rrc rc
 128  001F  1B80     E  	rrc rb
 139  0020              #line 139 "D:\WORK\Project\Github\Holtel-MCU\HT66FM5x40\HT66FM5240範例說明\NoHallExampleCode-20140819\Interrupt.c"
 139  0020  340A        	clr c
 139  0021  1B80     E  	rrc rg
 139  0022  1B80     E  	rrc rf
 139  0023  340A        	clr c
 139  0024  1B80     E  	rrc rg
 139  0025  1B80     E  	rrc rf
 139  0026  0700     E  	mov a,rb
 139  0027  0200     E  	sub a,rf
 139  0028  0080     E  	mov rb,a
 139  0029  0700     E  	mov a,rc
 139  002A  1200     E  	sbc a,rg
"File: Interrupt.c   Assembler  Version HGASM0202      Page 6

 139  002B  0080     E  	mov rc,a
 141  002C              #line 141 "D:\WORK\Project\Github\Holtel-MCU\HT66FM5x40\HT66FM5240範例說明\NoHallExampleCode-20140819\Interrupt.c"
 141  002C  0FD0        	mov a,208
 141  002D  0200     E  	sub a,rb
 141  002E  0F07        	mov a,7
 141  002F  1200     E  	sbc a,rc
 141  0030  380A        	snz c
 141  0031  2800     R  	jmp _L18
 139  0032              #line 139 "D:\WORK\Project\Github\Holtel-MCU\HT66FM5x40\HT66FM5240範例說明\NoHallExampleCode-20140819\Interrupt.c"
 139  0032  0700     E  	mov a,rb
 139  0033  0080     E  	mov _MC_HallDelayTime[0],a
 139  0034  0700     E  	mov a,rc
 139  0035  0080     E  	mov _MC_HallDelayTime[1],a
 139  0036  2800     R  	jmp _L19
 139  0037              _L18:
 143  0037              #line 143 "D:\WORK\Project\Github\Holtel-MCU\HT66FM5x40\HT66FM5240範例說明\NoHallExampleCode-20140819\Interrupt.c"
 143  0037  0FD0        	mov a,-48
 143  0038  0080     E  	mov _MC_HallDelayTime[0],a
 143  0039  0F07        	mov a,7
 143  003A  0080     E  	mov _MC_HallDelayTime[1],a
 143  003B              _L19:
 146  003B              #line 146 "D:\WORK\Project\Github\Holtel-MCU\HT66FM5x40\HT66FM5240範例說明\NoHallExampleCode-20140819\Interrupt.c"
 146  003B  3800     E  	snz _Flag01[0].2
 146  003C  2800     R  	jmp _L20
 146  003D  3C00     E  	sz _Flag02[0].0
 146  003E  2800     R  	jmp _L20
 148  003F              #line 148 "D:\WORK\Project\Github\Holtel-MCU\HT66FM5x40\HT66FM5240範例說明\NoHallExampleCode-20140819\Interrupt.c"
 148  003F  0700     E  	mov a,_MC_MotorStartCnt[0]
 148  0040  0080     E  	mov rb,a
 148  0041  1E00     E  	snz rb
 148  0042  2800     R  	jmp _L21
 150  0043              #line 150 "D:\WORK\Project\Github\Holtel-MCU\HT66FM5x40\HT66FM5240範例說明\NoHallExampleCode-20140819\Interrupt.c"
 150  0043  1500     E  	deca rb
 150  0044  0080     E  	mov _MC_MotorStartCnt[0],a
 150  0045              _L21:
 152  0045              #line 152 "D:\WORK\Project\Github\Holtel-MCU\HT66FM5x40\HT66FM5240範例說明\NoHallExampleCode-20140819\Interrupt.c"
 152  0045  0700     E  	mov a,_MC_HallDelayTime[1]
 152  0046  00D4        	mov [84],a
 152  0047  0700     E  	mov a,_MC_HallDelayTime[0]
 152  0048  00D3        	mov [83],a
 152  0049  31CF        	set [79].3
 153  004A              #line 153 "D:\WORK\Project\Github\Holtel-MCU\HT66FM5x40\HT66FM5240範例說明\NoHallExampleCode-20140819\Interrupt.c"
 153  004A  0700     E  	mov a,ra
 153  004B  0080     E  	mov _MC_NewHall[0],a
 153  004C              _L20:
 186  004C              #line 186 "D:\WORK\Project\Github\Holtel-MCU\HT66FM5x40\HT66FM5240範例說明\NoHallExampleCode-20140819\Interrupt.c"
 186  004C  0700     E  	mov a,_MC_SpeedTime[0]
 186  004D  0380     E  	addm a,rd
 186  004E  0700     E  	mov a,_MC_SpeedTime[1]
 186  004F  1380     E  	adcm a,re
 186  0050  0700     E  	mov a,rd
 186  0051  0080     E  	mov ra,a
 186  0052  0700     E  	mov a,re
 186  0053  0080     E  	mov rb,a
 186  0054  340A        	clr c
 186  0055  1B80     E  	rrc rb
 186  0056  1B80     E  	rrc ra
 186  0057  0700     E  	mov a,ra
 186  0058  0080     E  	mov _MC_PrevSpeedTime[0],a
 186  0059  0700     E  	mov a,rb
"File: Interrupt.c   Assembler  Version HGASM0202      Page 7

 186  005A  0080     E  	mov _MC_PrevSpeedTime[1],a
 187  005B              #line 187 "D:\WORK\Project\Github\Holtel-MCU\HT66FM5x40\HT66FM5240範例說明\NoHallExampleCode-20140819\Interrupt.c"
 187  005B  1F00     E  	clr _MC_SpeedTime[0]
 187  005C  1F00     E  	clr _MC_SpeedTime[1]
 187  005D              _L16:
 187  005D  0700     E  	mov a,r2
 187  005E  008A        	mov status,a
 187  005F  0700     E  	mov a,r1
 187  0060  0004        	reti
 187  0061              _ISR_Hall endp
 187  0061              
 187  0061              #line 187 "D:\WORK\Project\Github\Holtel-MCU\HT66FM5x40\HT66FM5240範例說明\NoHallExampleCode-20140819\Interrupt.c"
 187  0061              #pragma debug scope 1 1
 187  0061              ___mfi2 equ [27]
 187  0061              __addata equ [54]
 187  0061              ___adcr0 equ [56]
 187  0061              public _ISR_ADC
 187  0061              #pragma debug scope 6 1
 194  0061              #line 194 "D:\WORK\Project\Github\Holtel-MCU\HT66FM5x40\HT66FM5240範例說明\NoHallExampleCode-20140819\Interrupt.c"
 194  0000              @ISR_ADC_code .section at 32 'code'
 194  0000              ifdef INTERRUPT_DELAY
 194  0000  0000        	nop
 194  0001              endif
 194  0001  0080     E  	mov r1,a
 194  0002  070A        	mov a,status
 194  0003              ifndef INTERRUPT_DELAY
 194  0003              	mov r2,a
 194  0003              endif
 194  0003  2800     R  	jmp _ISR_ADC
 194  0004              #pragma debug scope 1 1
 194  0004              @dummy32 endp
 194  0004              #pragma debug scope 7 1
 194  0000              _ISR_ADC .section 'code'
 194  0000              _ISR_ADC proc
 194  0000  00          local _ISR_ADC_2 db 1 dup(?)
 194  0000              ifdef INTERRUPT_DELAY
 194  0000  0080     E  	mov r2,a
 194  0001              endif
 194  0001  0703        	mov a,mp
 194  0002  0080     E  	mov r3,a
 194  0003  0704        	mov a,sbp
 194  0004  0080     E  	mov r4,a
 194  0005  0707        	mov a,tblp
 194  0006  0080     E  	mov r5,a
 194  0007  0709        	mov a,tbhp
 194  0008  0080     E  	mov r6,a
 197  0009              #line 197 "D:\WORK\Project\Github\Holtel-MCU\HT66FM5x40\HT66FM5240範例說明\NoHallExampleCode-20140819\Interrupt.c"
 197  0009  3A1B        	snz [27].4
 197  000A  2800     R  	jmp _L28
 199  000B              #line 199 "D:\WORK\Project\Github\Holtel-MCU\HT66FM5x40\HT66FM5240範例說明\NoHallExampleCode-20140819\Interrupt.c"
 199  000B  361B        	clr [27].4
 203  000C              #line 203 "D:\WORK\Project\Github\Holtel-MCU\HT66FM5x40\HT66FM5240範例說明\NoHallExampleCode-20140819\Interrupt.c"
 203  000C  0700     E  	mov a,_ChannelCnt[0]
 203  000D  0080     E  	mov ra,a
 203  000E  0700     E  	mov a,ra
 203  000F  0080     E  	mov rb,a
 203  0010  1F00     E  	clr rc
 203  0011  340A        	clr c
 203  0012  1A80     E  	rlc rb
 203  0013  1A80     E  	rlc rc
"File: Interrupt.c   Assembler  Version HGASM0202      Page 8

 203  0014  0F00     E  	mov a,low offset _AdData
 203  0015  0380     E  	addm a,rb
 203  0016  0F00     E  	mov a,high offset _AdData
 203  0017  1380     E  	adcm a,rc
 201  0018              #line 201 "D:\WORK\Project\Github\Holtel-MCU\HT66FM5x40\HT66FM5240範例說明\NoHallExampleCode-20140819\Interrupt.c"
 201  0018  0736        	mov a,[54]
 201  0019  0080     E  	mov rf,a
 201  001A  0737        	mov a,[55]
 201  001B  0080     E  	mov rg,a
 201  001C  0F06        	mov a,6
 201  001D              _LI1:
 201  001D  340A        	clr c
 201  001E  1B80     E  	rrc rg
 201  001F  1B80     E  	rrc rf
 201  0020  1785        	sdz acc
 201  0021  2800     R  	jmp _LI1
 203  0022              #line 203 "D:\WORK\Project\Github\Holtel-MCU\HT66FM5x40\HT66FM5240範例說明\NoHallExampleCode-20140819\Interrupt.c"
 203  0022  0700     E  	mov a,rb
 203  0023  0083        	mov mp,a
 203  0024  0700     E  	mov a,rc
 203  0025  0084        	mov sbp,a
 203  0026  2000     E  	call _Crom2Prom
 203  0027  0080     E  	mov rd,a
 203  0028  2000     E  	call _Crom2PromNext
 203  0029  0080     E  	mov re,a
 203  002A  0700     E  	mov a,rf
 203  002B  0380     E  	addm a,rd
 203  002C  0700     E  	mov a,rg
 203  002D  1380     E  	adcm a,re
 203  002E  340A        	clr c
 203  002F  1B80     E  	rrc re
 203  0030  1B80     E  	rrc rd
 203  0031  0700     E  	mov a,rb
 203  0032  0083        	mov mp,a
 203  0033  0700     E  	mov a,rc
 203  0034  0084        	mov sbp,a
 203  0035  0700     E  	mov a,rd
 203  0036  0082        	mov ir,a
 203  0037  1483        	inc mp
 203  0038  0700     E  	mov a,re
 203  0039  0082        	mov ir,a
 205  003A              #line 205 "D:\WORK\Project\Github\Holtel-MCU\HT66FM5x40\HT66FM5240範例說明\NoHallExampleCode-20140819\Interrupt.c"
 205  003A  1080     E  	sz ra
 205  003B  2800     R  	jmp _L30
 207  003C              #line 207 "D:\WORK\Project\Github\Holtel-MCU\HT66FM5x40\HT66FM5240範例說明\NoHallExampleCode-20140819\Interrupt.c"
 207  003C  1400     R  	inca _timecnt[0]
 207  003D  0080     R  	mov _ISR_ADC_2[0],a
 207  003E  0700     R  	mov a,_ISR_ADC_2[0]
 207  003F  0080     R  	mov _timecnt[0],a
 208  0040              #line 208 "D:\WORK\Project\Github\Holtel-MCU\HT66FM5x40\HT66FM5240範例說明\NoHallExampleCode-20140819\Interrupt.c"
 208  0040  0700     R  	mov a,_ISR_ADC_2[0]
 208  0041  0A0A        	sub a,10
 208  0042  3D0A        	sz z
 208  0043  2800     R  	jmp _L31
 208  0044  0700     R  	mov a,_ISR_ADC_2[0]
 208  0045  0A14        	sub a,20
 208  0046  390A        	snz z
 208  0047  2800     R  	jmp _L28
 216  0048              #line 216 "D:\WORK\Project\Github\Holtel-MCU\HT66FM5x40\HT66FM5240範例說明\NoHallExampleCode-20140819\Interrupt.c"
 216  0048  0FF0        	mov a,240
"File: Interrupt.c   Assembler  Version HGASM0202      Page 9

 216  0049  06B8        	andm a,[56]
 217  004A              #line 217 "D:\WORK\Project\Github\Holtel-MCU\HT66FM5x40\HT66FM5240範例說明\NoHallExampleCode-20140819\Interrupt.c"
 217  004A  3038        	set [56].0
 218  004B              #line 218 "D:\WORK\Project\Github\Holtel-MCU\HT66FM5x40\HT66FM5240範例說明\NoHallExampleCode-20140819\Interrupt.c"
 218  004B  0F02        	mov a,2
 218  004C  0080     E  	mov _ChannelCnt[0],a
 219  004D              #line 219 "D:\WORK\Project\Github\Holtel-MCU\HT66FM5x40\HT66FM5240範例說明\NoHallExampleCode-20140819\Interrupt.c"
 219  004D  1F00     R  	clr _timecnt[0]
 220  004E              #line 220 "D:\WORK\Project\Github\Holtel-MCU\HT66FM5x40\HT66FM5240範例說明\NoHallExampleCode-20140819\Interrupt.c"
 220  004E  2800     R  	jmp _L28
 220  004F              _L31:
 211  004F              #line 211 "D:\WORK\Project\Github\Holtel-MCU\HT66FM5x40\HT66FM5240範例說明\NoHallExampleCode-20140819\Interrupt.c"
 211  004F  0FF0        	mov a,240
 211  0050  06B8        	andm a,[56]
 212  0051              #line 212 "D:\WORK\Project\Github\Holtel-MCU\HT66FM5x40\HT66FM5240範例說明\NoHallExampleCode-20140819\Interrupt.c"
 212  0051  0F07        	mov a,7
 212  0052  05B8        	orm a,[56]
 213  0053              #line 213 "D:\WORK\Project\Github\Holtel-MCU\HT66FM5x40\HT66FM5240範例說明\NoHallExampleCode-20140819\Interrupt.c"
 213  0053  0F01        	mov a,1
 213  0054  0080     E  	mov _ChannelCnt[0],a
 214  0055              #line 214 "D:\WORK\Project\Github\Holtel-MCU\HT66FM5x40\HT66FM5240範例說明\NoHallExampleCode-20140819\Interrupt.c"
 214  0055  2800     R  	jmp _L28
 214  0056              _L30:
 227  0056              #line 227 "D:\WORK\Project\Github\Holtel-MCU\HT66FM5x40\HT66FM5240範例說明\NoHallExampleCode-20140819\Interrupt.c"
 227  0056  0FF0        	mov a,240
 227  0057  06B8        	andm a,[56]
 229  0058              #line 229 "D:\WORK\Project\Github\Holtel-MCU\HT66FM5x40\HT66FM5240範例說明\NoHallExampleCode-20140819\Interrupt.c"
 229  0058  1F00     E  	clr _ChannelCnt[0]
 229  0059              _L28:
 229  0059  0700     E  	mov a,r2
 229  005A  008A        	mov status,a
 229  005B  0700     E  	mov a,r3
 229  005C  0083        	mov mp,a
 229  005D  0700     E  	mov a,r4
 229  005E  0084        	mov sbp,a
 229  005F  0700     E  	mov a,r5
 229  0060  0087        	mov tblp,a
 229  0061  0700     E  	mov a,r6
 229  0062  0089        	mov tbhp,a
 229  0063  1D05        	tabrdc acc
 229  0064  0700     E  	mov a,r1
 229  0065  0004        	reti
 229  0066              _ISR_ADC endp
 229  0066              
 229  0066              #line 229 "D:\WORK\Project\Github\Holtel-MCU\HT66FM5x40\HT66FM5240範例說明\NoHallExampleCode-20140819\Interrupt.c"
 229  0066              #pragma debug scope 1 1
 229  0066              ___intc1 equ [22]
 229  0066              ___mptc1 equ [75]
 229  0066              public _ISR_CAPTM
 229  0066              #pragma debug scope 8 1
 235  0066              #line 235 "D:\WORK\Project\Github\Holtel-MCU\HT66FM5x40\HT66FM5240範例說明\NoHallExampleCode-20140819\Interrupt.c"
 235  0000              @ISR_CAPTM_code .section at 24 'code'
 235  0000              ifdef INTERRUPT_DELAY
 235  0000  0000        	nop
 235  0001              endif
 235  0001  0080     E  	mov r1,a
 235  0002  070A        	mov a,status
 235  0003              ifndef INTERRUPT_DELAY
 235  0003              	mov r2,a
 235  0003              endif
"File: Interrupt.c   Assembler  Version HGASM0202      Page 10

 235  0003  2800     R  	jmp _ISR_CAPTM
 235  0004              #pragma debug scope 1 1
 235  0004              @dummy24 endp
 235  0004              #pragma debug scope 9 1
 235  0000              _ISR_CAPTM .section 'code'
 235  0000              _ISR_CAPTM proc
 235  0000              ifdef INTERRUPT_DELAY
 235  0000  0080     E  	mov r2,a
 235  0001              endif
 236  0001              #line 236 "D:\WORK\Project\Github\Holtel-MCU\HT66FM5x40\HT66FM5240範例說明\NoHallExampleCode-20140819\Interrupt.c"
 236  0001  3B16        	snz [22].6
 236  0002  2800     R  	jmp _L36
 238  0003              #line 238 "D:\WORK\Project\Github\Holtel-MCU\HT66FM5x40\HT66FM5240範例說明\NoHallExampleCode-20140819\Interrupt.c"
 238  0003  3716        	clr [22].6
 240  0004              #line 240 "D:\WORK\Project\Github\Holtel-MCU\HT66FM5x40\HT66FM5240範例說明\NoHallExampleCode-20140819\Interrupt.c"
 240  0004  3000     E  	set _Flag01[0].6
 241  0005              #line 241 "D:\WORK\Project\Github\Holtel-MCU\HT66FM5x40\HT66FM5240範例說明\NoHallExampleCode-20140819\Interrupt.c"
 241  0005  1F4A        	clr [74]
 242  0006              #line 242 "D:\WORK\Project\Github\Holtel-MCU\HT66FM5x40\HT66FM5240範例說明\NoHallExampleCode-20140819\Interrupt.c"
 242  0006  3000     E  	set _Flag01[0].1
 243  0007              #line 243 "D:\WORK\Project\Github\Holtel-MCU\HT66FM5x40\HT66FM5240範例說明\NoHallExampleCode-20140819\Interrupt.c"
 243  0007  3400     E  	clr _Flag01[0].2
 245  0008              #line 245 "D:\WORK\Project\Github\Holtel-MCU\HT66FM5x40\HT66FM5240範例說明\NoHallExampleCode-20140819\Interrupt.c"
 245  0008  334B        	set [75].6
 246  0009              #line 246 "D:\WORK\Project\Github\Holtel-MCU\HT66FM5x40\HT66FM5240範例說明\NoHallExampleCode-20140819\Interrupt.c"
 246  0009  37CB        	clr [75].7
 247  000A              #line 247 "D:\WORK\Project\Github\Holtel-MCU\HT66FM5x40\HT66FM5240範例說明\NoHallExampleCode-20140819\Interrupt.c"
 247  000A  374B        	clr [75].6
 247  000B              _L36:
 247  000B  0700     E  	mov a,r2
 247  000C  008A        	mov status,a
 247  000D  0700     E  	mov a,r1
 247  000E  0004        	reti
 247  000F              _ISR_CAPTM endp
 247  000F              
 247  000F              #line 247 "D:\WORK\Project\Github\Holtel-MCU\HT66FM5x40\HT66FM5240範例說明\NoHallExampleCode-20140819\Interrupt.c"
 247  000F              #pragma debug scope 1 1
 247  000F              ___intc0 equ [21]
 247  000F              public _ISR_Protect
 247  000F              #pragma debug scope 10 1
 253  000F              #line 253 "D:\WORK\Project\Github\Holtel-MCU\HT66FM5x40\HT66FM5240範例說明\NoHallExampleCode-20140819\Interrupt.c"
 253  0000              @ISR_Protect_code .section at 8 'code'
 253  0000              ifdef INTERRUPT_DELAY
 253  0000  0000        	nop
 253  0001              endif
 253  0001  0080     E  	mov r1,a
 253  0002  070A        	mov a,status
 253  0003              ifndef INTERRUPT_DELAY
 253  0003              	mov r2,a
 253  0003              endif
 253  0003  2800     R  	jmp _ISR_Protect
 253  0004              #pragma debug scope 1 1
 253  0004              @dummy8 endp
 253  0004              #pragma debug scope 11 1
 253  0000              _ISR_Protect .section 'code'
 253  0000              _ISR_Protect proc
 253  0000              ifdef INTERRUPT_DELAY
 253  0000  0080     E  	mov r2,a
 253  0001              endif
 254  0001              #line 254 "D:\WORK\Project\Github\Holtel-MCU\HT66FM5x40\HT66FM5240範例說明\NoHallExampleCode-20140819\Interrupt.c"
"File: Interrupt.c   Assembler  Version HGASM0202      Page 11

 254  0001  3695        	clr [21].5
 257  0002              #line 257 "D:\WORK\Project\Github\Holtel-MCU\HT66FM5x40\HT66FM5240範例說明\NoHallExampleCode-20140819\Interrupt.c"
 257  0002  1F4A        	clr [74]
 258  0003              #line 258 "D:\WORK\Project\Github\Holtel-MCU\HT66FM5x40\HT66FM5240範例說明\NoHallExampleCode-20140819\Interrupt.c"
 258  0003  3000     E  	set _Flag01[0].0
 259  0004              #line 259 "D:\WORK\Project\Github\Holtel-MCU\HT66FM5x40\HT66FM5240範例說明\NoHallExampleCode-20140819\Interrupt.c"
 259  0004  3000     E  	set _Flag01[0].1
 260  0005              #line 260 "D:\WORK\Project\Github\Holtel-MCU\HT66FM5x40\HT66FM5240範例說明\NoHallExampleCode-20140819\Interrupt.c"
 260  0005  3400     E  	clr _Flag01[0].2
 260  0006  0700     E  	mov a,r2
 260  0007  008A        	mov status,a
 260  0008  0700     E  	mov a,r1
 260  0009  0004        	reti
 260  000A              _ISR_Protect endp
 260  000A              
 260  000A              #line 260 "D:\WORK\Project\Github\Holtel-MCU\HT66FM5x40\HT66FM5240範例說明\NoHallExampleCode-20140819\Interrupt.c"
 260  000A              #pragma debug scope 1 1
 260  000A              ___intc3 equ [24]
 260  000A              public _ISR_Uart_IIC
 260  000A              #pragma debug scope 12 1
 264  000A              #line 264 "D:\WORK\Project\Github\Holtel-MCU\HT66FM5x40\HT66FM5240範例說明\NoHallExampleCode-20140819\Interrupt.c"
 264  0000              @ISR_Uart_IIC_code .section at 60 'code'
 264  0000              ifdef INTERRUPT_DELAY
 264  0000  0000        	nop
 264  0001              endif
 264  0001  0080     E  	mov r1,a
 264  0002  070A        	mov a,status
 264  0003              ifndef INTERRUPT_DELAY
 264  0003              	mov r2,a
 264  0003              endif
 264  0003  2800     R  	jmp _ISR_Uart_IIC
 264  0004              #pragma debug scope 1 1
 264  0004              @dummy60 endp
 264  0004              #pragma debug scope 13 1
 264  0000              _ISR_Uart_IIC .section 'code'
 264  0000              _ISR_Uart_IIC proc
 264  0000              ifdef INTERRUPT_DELAY
 264  0000  0080     E  	mov r2,a
 264  0001              endif
 321  0001              #line 321 "D:\WORK\Project\Github\Holtel-MCU\HT66FM5x40\HT66FM5240範例說明\NoHallExampleCode-20140819\Interrupt.c"
 321  0001  3798        	clr [24].7
 321  0002  0700     E  	mov a,r2
 321  0003  008A        	mov status,a
 321  0004  0700     E  	mov a,r1
 321  0005  0004        	reti
 321  0006              _ISR_Uart_IIC endp
 321  0006              
 321  0006              #line 321 "D:\WORK\Project\Github\Holtel-MCU\HT66FM5x40\HT66FM5240範例說明\NoHallExampleCode-20140819\Interrupt.c"
 321  0006              #pragma debug scope 1 1
 321  0006              ___mfi4 equ [29]
 321  0006              public _ISR_PT0
 321  0006              #pragma debug scope 14 1
 393  0006              #line 393 "D:\WORK\Project\Github\Holtel-MCU\HT66FM5x40\HT66FM5240範例說明\NoHallExampleCode-20140819\Interrupt.c"
 393  0000              @ISR_PT0_code .section at 40 'code'
 393  0000              ifdef INTERRUPT_DELAY
 393  0000  0000        	nop
 393  0001              endif
 393  0001  0080     E  	mov r1,a
 393  0002  070A        	mov a,status
 393  0003              ifndef INTERRUPT_DELAY
"File: Interrupt.c   Assembler  Version HGASM0202      Page 12

 393  0003              	mov r2,a
 393  0003              endif
 393  0003  2800     R  	jmp _ISR_PT0
 393  0004              #pragma debug scope 1 1
 393  0004              @dummy40 endp
 393  0004              #pragma debug scope 15 1
 393  0000              _ISR_PT0 .section 'code'
 393  0000              _ISR_PT0 proc
 393  0000              ifdef INTERRUPT_DELAY
 393  0000  0080     E  	mov r2,a
 393  0001              endif
 394  0001              #line 394 "D:\WORK\Project\Github\Holtel-MCU\HT66FM5x40\HT66FM5240範例說明\NoHallExampleCode-20140819\Interrupt.c"
 394  0001  369D        	clr [29].5
 395  0002              #line 395 "D:\WORK\Project\Github\Holtel-MCU\HT66FM5x40\HT66FM5240範例說明\NoHallExampleCode-20140819\Interrupt.c"
 395  0002  35CF        	clr [79].3
 396  0003              #line 396 "D:\WORK\Project\Github\Holtel-MCU\HT66FM5x40\HT66FM5240範例說明\NoHallExampleCode-20140819\Interrupt.c"
 396  0003  0700     E  	mov a,_MC_NewHall[0]
 396  0004  00CA        	mov [74],a
 396  0005  0700     E  	mov a,r2
 396  0006  008A        	mov status,a
 396  0007  0700     E  	mov a,r1
 396  0008  0004        	reti
 396  0009              _ISR_PT0 endp
 396  0009              
 396  0009              #line 396 "D:\WORK\Project\Github\Holtel-MCU\HT66FM5x40\HT66FM5240範例說明\NoHallExampleCode-20140819\Interrupt.c"
 396  0009              #pragma debug scope 1 1
 192  0009              #line 192 "D:\WORK\Project\Github\Holtel-MCU\HT66FM5x40\HT66FM5240範例說明\NoHallExampleCode-20140819\Interrupt.c"
 192  0009              public _timecnt
 192  0000              @HCCINIT0_timecnt .section 'data'
 192  0000              _timecnt	db 0
 192  0001              #pragma debug variable 8 1 _timecnt "timecnt"
 192  0001              
 192  0000              @HCCINIT .section 'data'
  92  0000              #line 92 "D:\WORK\Project\Github\Holtel-MCU\HT66FM5x40\HT66FM5240範例說明\NoHallExampleCode-20140819\Interrupt.c"
  92  0000              public _temp
  92  0000              @HCCINIT0_temp .section 'data'
  92  0000              _temp	db 0
  92  0001              #pragma debug variable 8 1 _temp "temp"
  92  0001              
  92  0000              @HCCINIT .section 'data'
  15  0000              #line 15 "D:\WORK\Project\Github\Holtel-MCU\HT66FM5x40\HT66FM5240範例說明\NoHallExampleCode-20140819\Interrupt.c"
  15  0000              public _TakeTurnTimeCnt
  15  0000              @HCCINIT0_TakeTurnTimeCnt .section 'data'
  15  0000              _TakeTurnTimeCnt	db 0
  15  0001              #pragma debug variable 8 1 _TakeTurnTimeCnt "TakeTurnTimeCnt"
  15  0001              
  15  0000              @HCCINIT .section 'data'
  14  0000              #line 14 "D:\WORK\Project\Github\Holtel-MCU\HT66FM5x40\HT66FM5240範例說明\NoHallExampleCode-20140819\Interrupt.c"
  14  0000              public _TakeTurnOkCnt
  14  0000              @HCCINIT0_TakeTurnOkCnt .section 'data'
  14  0000              _TakeTurnOkCnt	db 0
  14  0001              #pragma debug variable 8 1 _TakeTurnOkCnt "TakeTurnOkCnt"
  14  0001              
  14  0000              @HCCINIT .section 'data'
  14  0000              #pragma debug struct_end
  14  0000              #pragma debug struct_end
  14  0000              #pragma debug union_end
  14  0000              #pragma debug union_end
  14  0000              #pragma debug variable 43 1 ___intc0 "__intc0" 1
  14  0000              #pragma debug struct_end
"File: Interrupt.c   Assembler  Version HGASM0202      Page 13

  14  0000              #pragma debug struct_end
  14  0000              #pragma debug union_end
  14  0000              #pragma debug union_end
  14  0000              #pragma debug variable 45 1 ___intc1 "__intc1" 1
  14  0000              #pragma debug struct_end
  14  0000              #pragma debug struct_end
  14  0000              #pragma debug union_end
  14  0000              #pragma debug union_end
  14  0000              #pragma debug variable 47 1 ___intc3 "__intc3" 1
  14  0000              #pragma debug struct_end
  14  0000              #pragma debug struct_end
  14  0000              #pragma debug union_end
  14  0000              #pragma debug union_end
  14  0000              #pragma debug variable 49 1 ___mfi0 "__mfi0" 1
  14  0000              #pragma debug struct_end
  14  0000              #pragma debug struct_end
  14  0000              #pragma debug union_end
  14  0000              #pragma debug union_end
  14  0000              #pragma debug variable 51 1 ___mfi1 "__mfi1" 1
  14  0000              #pragma debug struct_end
  14  0000              #pragma debug struct_end
  14  0000              #pragma debug union_end
  14  0000              #pragma debug union_end
  14  0000              #pragma debug variable 53 1 ___mfi2 "__mfi2" 1
  14  0000              #pragma debug struct_end
  14  0000              #pragma debug struct_end
  14  0000              #pragma debug union_end
  14  0000              #pragma debug union_end
  14  0000              #pragma debug variable 55 1 ___mfi4 "__mfi4" 1
  14  0000              #pragma debug struct_end
  14  0000              #pragma debug struct_end
  14  0000              #pragma debug union_end
  14  0000              #pragma debug union_end
  14  0000              #pragma debug variable 57 1 ___pa "__pa" 1
  14  0000              #pragma debug struct_end
  14  0000              #pragma debug struct_end
  14  0000              #pragma debug union_end
  14  0000              #pragma debug union_end
  14  0000              #pragma debug variable 59 1 ___adcr0 "__adcr0" 1
  14  0000              #pragma debug struct_end
  14  0000              #pragma debug struct_end
  14  0000              #pragma debug union_end
  14  0000              #pragma debug union_end
  14  0000              #pragma debug variable 61 1 ___hdcd "__hdcd" 1
  14  0000              #pragma debug struct_end
  14  0000              #pragma debug struct_end
  14  0000              #pragma debug union_end
  14  0000              #pragma debug union_end
  14  0000              #pragma debug variable 63 1 ___mptc1 "__mptc1" 1
  14  0000              #pragma debug struct_end
  14  0000              #pragma debug struct_end
  14  0000              #pragma debug union_end
  14  0000              #pragma debug union_end
  14  0000              #pragma debug variable 65 1 ___ptm0c0 "__ptm0c0" 1
  14  0000              #pragma debug variable 8 1 ___ptm0al "__ptm0al" 1
  14  0000              #pragma debug variable 8 1 ___ptm0ah "__ptm0ah" 1
  14  0000              #pragma debug struct_end
  14  0000              #pragma debug struct_end
  14  0000              #pragma debug union_end
  14  0000              #pragma debug union_end
"File: Interrupt.c   Assembler  Version HGASM0202      Page 14

  14  0000              #pragma debug variable 67 1 ___mcd "__mcd" 1
  14  0000              #pragma debug variable 12 1 __addata "_addata" 2
  14  0000              
  14  0000              ; output external variables
  14  0000              extern _AdData:byte
  14  0000              extern _ChannelCnt:byte
  14  0000              extern _MC_MotorStartCnt:byte
  14  0000              extern _MC_HallDelayTime:byte
  14  0000              extern _MC_PrevSpeedTime:byte
  14  0000              extern _MC_HallPortVal:byte
  14  0000              extern _ucNextHall:near
  14  0000              extern _MC_NewHall:byte
  14  0000              extern _ucPrevHall:near
  14  0000              extern _Flag02:byte
  14  0000              extern _Flag01:byte
  14  0000              extern _Time1msCnt:byte
  14  0000              extern _MC_SpeedTime:byte
  14  0000              extern r1:byte
  14  0000              extern r2:byte
  14  0000              extern r3:byte
  14  0000              extern r4:byte
  14  0000              extern r5:byte
  14  0000              extern r6:byte
  14  0000              
  14  0000              ; 
  14  0000              ; Generated by holtek-gcc v3.19, Mon Jun 17 17:35:21 2019
  14  0000              ; Rebuild 115
  14  0000              ; end of file


        0 Errors, 0