"File: Main.c        Assembler  Version HGASM0202      Page 1


   1  0000              ; Generated by holtek-gcc v3.19, Mon Jun 17 17:35:21 2019
   2  0000              ; 
   3  0000              ; Configuration:
   4  0000              ;       with long instruction
   5  0000              ;       Single ROM, Multi-RAM
   6  0000              ;       bits_per_rom_unit:16
   7  0000              ;       with mp1
   8  0000              ;       with tbhp, address(0x9)
   9  0000              ;          Use tabrd-const
  10  0000              ;       
  11  0000              ; SFR address of long-instruction arch:
  12  0000              ;    mp0 = -1,1,0
  13  0000              ;    mp1 = 4,3,2
  14  0000              ;    mp2 = 14,13,12
  15  0000              ;    tbp = 9,7,8
  16  0000              ;    acc = 5
  17  0000              ;    pcl = 6
  18  0000              ;    status = 10
  19  0000              ;    bp = 11
  20  0000              ;    intc = 21
  21  0000              ;       
  22  0000              ;       
  23  0000              ; use 'tabrdc' instead of 'tabrd'
  24  0000              ;       
  25  0000              
  26  0000              #pragma translator "holtek-gcc 4.6.4" "3.19" "build 20130711"
  27  0000              ; Rebuild 115
  28  0000              
  29  0000              ir equ [2]
  30  0000              mp equ [3]
  31  0000              sbp equ [4]
  32  0000              acc equ [5]
  33  0000              bp equ [11]
  34  0000              tblp equ [7]
  35  0000              tbhp equ [9]
  36  0000              status equ [10]
  37  0000              c equ [10].0
  38  0000              ac equ [10].1
  39  0000              z equ [10].2
  40  0000              ov equ [10].3
  41  0000              cz equ [10].6
  42  0000              sc equ [10].7
  43  0000              intc equ [21]
  44  0000              mdu0r0 equ [73h]
  45  0000              mdu0r1 equ [74h]
  46  0000              mdu0ctrl equ [75h]
  47  0000              mduwr0 equ [76h]
  48  0000              mduwr1 equ [77h]
  49  0000              mduwr2 equ [78h]
  50  0000              mduwr3 equ [7ah]
  51  0000              mduwr4 equ [7bh]
  52  0000              mduwr5 equ [7ch]
  53  0000              mduwrctrl equ [7dh]
  54  0000              
  55  0000              extern ra:byte
  56  0000              extern rb:byte
  57  0000              extern rc:byte
  58  0000              extern rd:byte
  59  0000              extern re:byte
"File: Main.ASM      Assembler  Version HGASM0202      Page 2

  60  0000              extern rf:byte
  61  0000              extern rg:byte
  62  0000              extern rh:byte
  63  0000              extern _Crom2Prom:near
  64  0000              extern _Crom2PromNext:near
  65  0000              
  66  0000              RAMBANK 0 @BITDATASEC, @BITDATASEC1
  67  0000              @HCCINIT	.section 'data'
  68  0000              @HCCINIT0	.section 'data'
  69  0000              @BITDATASEC	 .section 'data'
  70  0000              @BITDATASEC1	 .section 'data'
  71  0000              
  72  0000              #pragma debug scope 1 1
  73  0000              	extern __DELAY3:near
  74  0000              	extern __DELAYX3:near
  75  0000              	extern __DELAYX6:near
  76  0000              	extern __DELAYY5:near
  77  0000              	extern __DELAYY3:near
  78  0000              	extern _builtin_holtek_delay_2:byte
  79  0000              ___intc0 equ [21]
  80  0000              public _main
  81  0000              #pragma debug scope 2 1

  28  0000              #line 28 "D:\WORK\Project\Github\Holtel-MCU\HT66FM5x40\HT66FM5240範例說明\NoHallExampleCode-20140819\Main.c"
  28  0000              IFDEF WITH_DEFAULT_STARTUP
  28  0000              extern _main_initial0:near
  28  0000              extern _main_startup:near
  28  0000              ENDIF
  28  0000              
  28  0000              ROMBANK 0 @start
  28  0000              @start .section com_l 'code'
  28  0000              _main_startup1:
  28  0000              @start .section com_e 'code'
  28  0000  2800     R  	jmp _main
  28  0001              
  28  0000              _main .section 'code'
  28  0000              _main proc
  29  0000              #line 29 "D:\WORK\Project\Github\Holtel-MCU\HT66FM5x40\HT66FM5240範例說明\NoHallExampleCode-20140819\Main.c"
  29  0000  3415        	clr [21].0
  30  0001              #line 30 "D:\WORK\Project\Github\Holtel-MCU\HT66FM5x40\HT66FM5240範例說明\NoHallExampleCode-20140819\Main.c"
  30  0001  2000     E  	call _SystemInit
  32  0002              #line 32 "D:\WORK\Project\Github\Holtel-MCU\HT66FM5x40\HT66FM5240範例說明\NoHallExampleCode-20140819\Main.c"
  32  0002  1F00     R  	clr _AdData[2]
  32  0003  1F00     R  	clr _AdData[3]
  37  0004              #line 37 "D:\WORK\Project\Github\Holtel-MCU\HT66FM5x40\HT66FM5240範例說明\NoHallExampleCode-20140819\Main.c"
  37  0004  3400     R  	clr _Flag01[0].3
  38  0005              #line 38 "D:\WORK\Project\Github\Holtel-MCU\HT66FM5x40\HT66FM5240範例說明\NoHallExampleCode-20140819\Main.c"
  38  0005  3400     R  	clr _Flag01[0].5
  39  0006              #line 39 "D:\WORK\Project\Github\Holtel-MCU\HT66FM5x40\HT66FM5240範例說明\NoHallExampleCode-20140819\Main.c"
  39  0006  3400     R  	clr _Flag01[0].0
  40  0007              #line 40 "D:\WORK\Project\Github\Holtel-MCU\HT66FM5x40\HT66FM5240範例說明\NoHallExampleCode-20140819\Main.c"
  40  0007  3400     R  	clr _Flag01[0].2
  41  0008              #line 41 "D:\WORK\Project\Github\Holtel-MCU\HT66FM5x40\HT66FM5240範例說明\NoHallExampleCode-20140819\Main.c"
  41  0008  3400     R  	clr _Flag01[0].7
  42  0009              #line 42 "D:\WORK\Project\Github\Holtel-MCU\HT66FM5x40\HT66FM5240範例說明\NoHallExampleCode-20140819\Main.c"
  42  0009  3400     R  	clr _Flag02[0].0
  43  000A              #line 43 "D:\WORK\Project\Github\Holtel-MCU\HT66FM5x40\HT66FM5240範例說明\NoHallExampleCode-20140819\Main.c"
  43  000A  1F00     E  	clr _MC_HanderBarAD[0]
  43  000B  1F00     E  	clr _MC_HanderBarAD[1]
  44  000C              #line 44 "D:\WORK\Project\Github\Holtel-MCU\HT66FM5x40\HT66FM5240範例說明\NoHallExampleCode-20140819\Main.c"
"File: Main.c        Assembler  Version HGASM0202      Page 3

  44  000C  1F00     R  	clr _Time1msCnt[0]
  46  000D              #line 46 "D:\WORK\Project\Github\Holtel-MCU\HT66FM5x40\HT66FM5240範例說明\NoHallExampleCode-20140819\Main.c"
  46  000D  3800     R  	snz _Flag01[0].3
  46  000E  2800     R  	jmp _L2
  48  000F              #line 48 "D:\WORK\Project\Github\Holtel-MCU\HT66FM5x40\HT66FM5240範例說明\NoHallExampleCode-20140819\Main.c"
  48  000F  0F02        	mov a,2
  48  0010  0080     E  	mov _MC_ErrHallVal1[0],a
  49  0011              #line 49 "D:\WORK\Project\Github\Holtel-MCU\HT66FM5x40\HT66FM5240範例說明\NoHallExampleCode-20140819\Main.c"
  49  0011  0F05        	mov a,5
  49  0012  0080     E  	mov _MC_ErrHallVal2[0],a
  49  0013  2800     R  	jmp _L3
  49  0014              _L2:
  53  0014              #line 53 "D:\WORK\Project\Github\Holtel-MCU\HT66FM5x40\HT66FM5240範例說明\NoHallExampleCode-20140819\Main.c"
  53  0014  1F00     E  	clr _MC_ErrHallVal1[0]
  54  0015              #line 54 "D:\WORK\Project\Github\Holtel-MCU\HT66FM5x40\HT66FM5240範例說明\NoHallExampleCode-20140819\Main.c"
  54  0015  0F07        	mov a,7
  54  0016  0080     E  	mov _MC_ErrHallVal2[0],a
  54  0017              _L3:
  56  0017              #line 56 "D:\WORK\Project\Github\Holtel-MCU\HT66FM5x40\HT66FM5240範例說明\NoHallExampleCode-20140819\Main.c"
  56  0017  1F00     R  	clr _ChannelCnt[0]
  57  0018              #line 57 "D:\WORK\Project\Github\Holtel-MCU\HT66FM5x40\HT66FM5240範例說明\NoHallExampleCode-20140819\Main.c"
  57  0018  3015        	set [21].0
  57  0019              _L5:
  94  0019              #line 94 "D:\WORK\Project\Github\Holtel-MCU\HT66FM5x40\HT66FM5240範例說明\NoHallExampleCode-20140819\Main.c"
  94  0019  3800     R  	snz _Flag01[0].4
  94  001A  2800     R  	jmp _L4
  96  001B              #line 96 "D:\WORK\Project\Github\Holtel-MCU\HT66FM5x40\HT66FM5240範例說明\NoHallExampleCode-20140819\Main.c"
  96  001B  3400     R  	clr _Flag01[0].4
  97  001C              #line 97 "D:\WORK\Project\Github\Holtel-MCU\HT66FM5x40\HT66FM5240範例說明\NoHallExampleCode-20140819\Main.c"
  97  001C  2000     E  	call _HandleSpeed
  97  001D              _L4:
 100  001D              #line 100 "D:\WORK\Project\Github\Holtel-MCU\HT66FM5x40\HT66FM5240範例說明\NoHallExampleCode-20140819\Main.c"
 100  001D              ;# 100 "D:\WORK\Project\Github\Holtel-MCU\HT66FM5x40\HT66FM5240範例說明\NoHallExampleCode-20140819\Main.c" 1
 100  001D  0001        	clr wdt
 101  001E              #line 101 "D:\WORK\Project\Github\Holtel-MCU\HT66FM5x40\HT66FM5240範例說明\NoHallExampleCode-20140819\Main.c"
 101  001E  2800     R  	jmp _L5
 101  001F  2800     R  	jmp $
 101  0020              _main endp
 101  0020              
 101  0020              @dummy endp
 101  0020              
 101  0020              #line 101 "D:\WORK\Project\Github\Holtel-MCU\HT66FM5x40\HT66FM5240範例說明\NoHallExampleCode-20140819\Main.c"
 101  0020              #pragma debug scope 1 1
 101  0020              public _Delay_2us
 101  0020              #pragma debug scope 3 1
 106  0020              #line 106 "D:\WORK\Project\Github\Holtel-MCU\HT66FM5x40\HT66FM5240範例說明\NoHallExampleCode-20140819\Main.c"
 106  0000              _Delay_2us .section 'code'
 106  0000              _Delay_2us proc
 106  0000              public _Delay_2us_2
 106  0000  0002[           local _Delay_2us_2 db 2 dup(?)	; 2,0
            00
            ]
 106  0002              #pragma debug variable 12 3 _Delay_2us_2+0 "t"
 107  0002              #line 107 "D:\WORK\Project\Github\Holtel-MCU\HT66FM5x40\HT66FM5240範例說明\NoHallExampleCode-20140819\Main.c"
 107  0000  2800     R  	jmp _L11
 107  0001              _L12:
 109  0001              #line 109 "D:\WORK\Project\Github\Holtel-MCU\HT66FM5x40\HT66FM5240範例說明\NoHallExampleCode-20140819\Main.c"
 109  0001  0FFF        	mov a,255
 109  0002  0380     R  	addm a,_Delay_2us_2[0]
 109  0003  0FFF        	mov a,255
"File: Main.c        Assembler  Version HGASM0202      Page 4

 109  0004  1380     R  	adcm a,_Delay_2us_2[1]
 110  0005              #line 110 "D:\WORK\Project\Github\Holtel-MCU\HT66FM5x40\HT66FM5240範例說明\NoHallExampleCode-20140819\Main.c"
 110  0005              ;# 110 "D:\WORK\Project\Github\Holtel-MCU\HT66FM5x40\HT66FM5240範例說明\NoHallExampleCode-20140819\Main.c" 1
 110  0005  0001        	clr wdt
 110  0006              _L11:
 107  0006              #line 107 "D:\WORK\Project\Github\Holtel-MCU\HT66FM5x40\HT66FM5240範例說明\NoHallExampleCode-20140819\Main.c"
 107  0006  0700     R  	mov a,_Delay_2us_2[0]
 107  0007  0500     R  	or a,_Delay_2us_2[1]
 107  0008  390A        	snz z
 107  0009  2800     R  	jmp _L12
 107  000A  0003        	ret
 107  000B              _Delay_2us endp
 107  000B              #line 107 "D:\WORK\Project\Github\Holtel-MCU\HT66FM5x40\HT66FM5240範例說明\NoHallExampleCode-20140819\Main.c"
 107  000B              #pragma debug scope 1 1
 107  000B              public _Delay_1ms
 107  000B              #pragma debug scope 4 1
 116  000B              #line 116 "D:\WORK\Project\Github\Holtel-MCU\HT66FM5x40\HT66FM5240範例說明\NoHallExampleCode-20140819\Main.c"
 116  0000              _Delay_1ms .section 'code'
 116  0000              _Delay_1ms proc
 116  0000              public _Delay_1ms_2
 116  0000  0002[           local _Delay_1ms_2 db 2 dup(?)	; 2,0
            00
            ]
 116  0002              #pragma debug variable 12 4 _Delay_1ms_2+0 "t"
 116  0000              _L14:
 118  0000              #line 118 "D:\WORK\Project\Github\Holtel-MCU\HT66FM5x40\HT66FM5240範例說明\NoHallExampleCode-20140819\Main.c"
 118  0000  0700     R  	mov a,_Delay_1ms_2[0]
 118  0001  0500     R  	or a,_Delay_1ms_2[1]
 118  0002  3D0A        	sz z
 118  0003  2800     R  	jmp _L13
 118  0004  0F90        	mov a,-112
 118  0005  0080     E  	mov rb,a
 118  0006  0F01        	mov a,1
 118  0007  0080     E  	mov rc,a
 118  0008              _L17:
 124  0008              #line 124 "D:\WORK\Project\Github\Holtel-MCU\HT66FM5x40\HT66FM5240範例說明\NoHallExampleCode-20140819\Main.c"
 124  0008              ;# 124 "D:\WORK\Project\Github\Holtel-MCU\HT66FM5x40\HT66FM5240範例說明\NoHallExampleCode-20140819\Main.c" 1
 124  0008  0001        	clr wdt
 124  0009  0FFF        	mov a,255
 124  000A  0380     E  	addm a,rb
 124  000B  0FFF        	mov a,255
 124  000C  1380     E  	adcm a,rc
 121  000D              #line 121 "D:\WORK\Project\Github\Holtel-MCU\HT66FM5x40\HT66FM5240範例說明\NoHallExampleCode-20140819\Main.c"
 121  000D  0700     E  	mov a,rb
 121  000E  0500     E  	or a,rc
 121  000F  390A        	snz z
 121  0010  2800     R  	jmp _L17
 126  0011              #line 126 "D:\WORK\Project\Github\Holtel-MCU\HT66FM5x40\HT66FM5240範例說明\NoHallExampleCode-20140819\Main.c"
 126  0011  0FFF        	mov a,255
 126  0012  0380     R  	addm a,_Delay_1ms_2[0]
 126  0013  0FFF        	mov a,255
 126  0014  1380     R  	adcm a,_Delay_1ms_2[1]
 126  0015  2800     R  	jmp _L14
 126  0016              _L13:
 126  0016  0003        	ret
 126  0017              _Delay_1ms endp
 126  0017              #line 126 "D:\WORK\Project\Github\Holtel-MCU\HT66FM5x40\HT66FM5240範例說明\NoHallExampleCode-20140819\Main.c"
 126  0017              #pragma debug scope 1 1
  19  0017              #line 19 "D:\WORK\Project\Github\Holtel-MCU\HT66FM5x40\HT66FM5240範例說明\NoHallExampleCode-20140819\Main.c"
  19  0017              public _Flag02
"File: Main.c        Assembler  Version HGASM0202      Page 5

  19  0000              @HCCINIT0_Flag02 .section 'data'
  19  0000              _Flag02	db 0
  19  0001              #pragma debug struct_end
  19  0001              #pragma debug struct_end
  19  0001              #pragma debug variable 42 1 _Flag02 "Flag02"
  19  0001              
  19  0000              @HCCINIT .section 'data'
  18  0000              #line 18 "D:\WORK\Project\Github\Holtel-MCU\HT66FM5x40\HT66FM5240範例說明\NoHallExampleCode-20140819\Main.c"
  18  0000              public _Flag01
  18  0000              @HCCINIT0_Flag01 .section 'data'
  18  0000              _Flag01	db 0
  18  0001              #pragma debug variable 42 1 _Flag01 "Flag01"
  18  0001              
  18  0000              @HCCINIT .section 'data'
   7  0000              #line 7 "D:\WORK\Project\Github\Holtel-MCU\HT66FM5x40\HT66FM5240範例說明\NoHallExampleCode-20140819\Main.c"
   7  0000              public _Time1msCnt
   7  0000              @HCCINIT0_Time1msCnt .section 'data'
   7  0000              _Time1msCnt	db 0
   7  0001              #pragma debug variable 8 1 _Time1msCnt "Time1msCnt"
   7  0001              
   7  0000              @HCCINIT .section 'data'
   6  0000              #line 6 "D:\WORK\Project\Github\Holtel-MCU\HT66FM5x40\HT66FM5240範例說明\NoHallExampleCode-20140819\Main.c"
   6  0000              public _ChannelCnt
   6  0000              @HCCINIT0_ChannelCnt .section 'data'
   6  0000              _ChannelCnt	db 0
   6  0001              #pragma debug variable 8 1 _ChannelCnt "ChannelCnt"
   6  0001              
   6  0000              @HCCINIT .section 'data'
   5  0000              #line 5 "D:\WORK\Project\Github\Holtel-MCU\HT66FM5x40\HT66FM5240範例說明\NoHallExampleCode-20140819\Main.c"
   5  0000              public _AdData
   5  0000              @HCCINIT0_AdData .section 'data'
   5  0000  0008[       _AdData	db 8 dup(0)
            00
            ]
   5  0008              #pragma debug array 43 12 4 1
   5  0008              #pragma debug array 43 12 4 1
   5  0008              #pragma debug variable 43 1 _AdData "AdData"
   5  0008              
   5  0000              @HCCINIT .section 'data'
   4  0000              #line 4 "D:\WORK\Project\Github\Holtel-MCU\HT66FM5x40\HT66FM5240範例說明\NoHallExampleCode-20140819\Main.c"
   4  0000              public _TimeCnt
   4  0000              @HCCINIT0_TimeCnt .section 'data'
   4  0000  0002[       _TimeCnt	db 2 dup(0)
            00
            ]
   4  0002              #pragma debug variable 12 1 _TimeCnt "TimeCnt"
   4  0002              
   4  0000              @HCCINIT .section 'data'
   4  0000              #pragma debug struct_end
   4  0000              #pragma debug struct_end
   4  0000              #pragma debug union_end
   4  0000              #pragma debug union_end
   4  0000              #pragma debug variable 45 1 ___intc0 "__intc0" 1
   4  0000              
   4  0000              ; output external variables
   4  0000              extern _MC_ErrHallVal2:byte
   4  0000              extern _MC_ErrHallVal1:byte
   4  0000              extern _MC_HanderBarAD:byte
  28  0000              #line 28 "D:\WORK\Project\Github\Holtel-MCU\HT66FM5x40\HT66FM5240範例說明\NoHallExampleCode-20140819\Main.c"
  28  0000              @code .section at 0 'code'
"File: Main.c        Assembler  Version HGASM0202      Page 6

  28  0000  2800     R  	jmp _main_startup1
  28  0001              
  28  0001              extern _SystemInit:near
  28  0001              extern _HandleSpeed:near
  28  0001              
  28  0001              ; 
  28  0001              ; Generated by holtek-gcc v3.19, Mon Jun 17 17:35:21 2019
  28  0001              ; Rebuild 115
  28  0001              ; end of file


        0 Errors, 0