"File: NFIN_TEST.c   Assembler  Version HGASM0202      Page 1


   1  0000              ; Generated by holtek-gcc v3.19, Fri Aug 16 19:04:09 2019
   2  0000              ; 
   3  0000              ; Configuration:
   4  0000              ;       with long instruction
   5  0000              ;       Single ROM, Multi-RAM
   6  0000              ;       bits_per_rom_unit:16
   7  0000              ;       with mp1
   8  0000              ;       with tbhp, address(0x9)
   9  0000              ;          Use tabrd-const
  10  0000              ;       
  11  0000              ; SFR address of long-instruction arch:
  12  0000              ;    mp0 = -1,1,0
  13  0000              ;    mp1 = 4,3,2
  14  0000              ;    mp2 = 14,13,12
  15  0000              ;    tbp = 9,7,8
  16  0000              ;    acc = 5
  17  0000              ;    pcl = 6
  18  0000              ;    status = 10
  19  0000              ;    bp = 11
  20  0000              ;    intc = 21
  21  0000              ;       
  22  0000              ;       
  23  0000              ; use 'tabrdc' instead of 'tabrd'
  24  0000              ;       
  25  0000              
  26  0000              #pragma translator "holtek-gcc 4.6.4" "3.19" "build 20130711"
  27  0000              ; Rebuild 115
  28  0000              
  29  0000              ir equ [2]
  30  0000              mp equ [3]
  31  0000              sbp equ [4]
  32  0000              acc equ [5]
  33  0000              bp equ [11]
  34  0000              tblp equ [7]
  35  0000              tbhp equ [9]
  36  0000              status equ [10]
  37  0000              c equ [10].0
  38  0000              ac equ [10].1
  39  0000              z equ [10].2
  40  0000              ov equ [10].3
  41  0000              cz equ [10].6
  42  0000              sc equ [10].7
  43  0000              intc equ [21]
  44  0000              mdu0r0 equ [73h]
  45  0000              mdu0r1 equ [74h]
  46  0000              mdu0ctrl equ [75h]
  47  0000              mduwr0 equ [76h]
  48  0000              mduwr1 equ [77h]
  49  0000              mduwr2 equ [78h]
  50  0000              mduwr3 equ [7ah]
  51  0000              mduwr4 equ [7bh]
  52  0000              mduwr5 equ [7ch]
  53  0000              mduwrctrl equ [7dh]
  54  0000              
  55  0000              extern ra:byte
  56  0000              extern rb:byte
  57  0000              extern rc:byte
  58  0000              extern rd:byte
  59  0000              extern re:byte
"File: NFIN_TEST.ASM  Assembler  Version HGASM0202      Page 2

  60  0000              extern rf:byte
  61  0000              extern rg:byte
  62  0000              extern rh:byte
  63  0000              extern _Crom2Prom:near
  64  0000              extern _Crom2PromNext:near
  65  0000              
  66  0000              RAMBANK 0 @BITDATASEC, @BITDATASEC1
  67  0000              @HCCINIT	.section 'data'
  68  0000              @HCCINIT0	.section 'data'
  69  0000              @BITDATASEC	 .section 'data'
  70  0000              @BITDATASEC1	 .section 'data'
  71  0000              
  72  0000              #pragma debug scope 1 1
  73  0000              	extern __DELAY3:near
  74  0000              	extern __DELAYX3:near
  75  0000              	extern __DELAYX6:near
  76  0000              	extern __DELAYY5:near
  77  0000              	extern __DELAYY3:near
  78  0000              	extern _builtin_holtek_delay_2:byte
  79  0000              ___pa equ [35]
  80  0000              ___pac equ [36]
  81  0000              public _Init_GPIO
  82  0000              #pragma debug scope 2 1

 136  0000              #line 136 "D:\WORK\Project\Github\Holtel-MCU\Code\HT66FM5440\NFIN_TEST\NFIN_TEST.c"
 136  0000              _Init_GPIO .section 'code'
 136  0000              _Init_GPIO proc
 137  0000              #line 137 "D:\WORK\Project\Github\Holtel-MCU\Code\HT66FM5440\NFIN_TEST\NFIN_TEST.c"
 137  0000  3723        	clr [35].6
 138  0001              #line 138 "D:\WORK\Project\Github\Holtel-MCU\Code\HT66FM5440\NFIN_TEST\NFIN_TEST.c"
 138  0001  3724        	clr [36].6
 140  0002              #line 140 "D:\WORK\Project\Github\Holtel-MCU\Code\HT66FM5440\NFIN_TEST\NFIN_TEST.c"
 140  0002  36A3        	clr [35].5
 141  0003              #line 141 "D:\WORK\Project\Github\Holtel-MCU\Code\HT66FM5440\NFIN_TEST\NFIN_TEST.c"
 141  0003  36A4        	clr [36].5
 141  0004  0003        	ret
 141  0005              _Init_GPIO endp
 141  0005              #line 141 "D:\WORK\Project\Github\Holtel-MCU\Code\HT66FM5440\NFIN_TEST\NFIN_TEST.c"
 141  0005              #pragma debug scope 1 1
 141  0005              ___nf_vih equ [126]
 141  0005              ___nf_vil equ [127]
 141  0005              ___intc3 equ [24]
 141  0005              public _Init_NFIN
 141  0005              #pragma debug scope 3 1
 145  0005              #line 145 "D:\WORK\Project\Github\Holtel-MCU\Code\HT66FM5440\NFIN_TEST\NFIN_TEST.c"
 145  0000              _Init_NFIN .section 'code'
 145  0000              _Init_NFIN proc
 146  0000              #line 146 "D:\WORK\Project\Github\Holtel-MCU\Code\HT66FM5440\NFIN_TEST\NFIN_TEST.c"
 146  0000  33A3        	set [35].7
 147  0001              #line 147 "D:\WORK\Project\Github\Holtel-MCU\Code\HT66FM5440\NFIN_TEST\NFIN_TEST.c"
 147  0001  33A4        	set [36].7
 150  0002              #line 150 "D:\WORK\Project\Github\Holtel-MCU\Code\HT66FM5440\NFIN_TEST\NFIN_TEST.c"
 150  0002  0FE0        	mov a,224
 150  0003  06FE        	andm a,[126]
 151  0004              #line 151 "D:\WORK\Project\Github\Holtel-MCU\Code\HT66FM5440\NFIN_TEST\NFIN_TEST.c"
 151  0004  0FE0        	mov a,224
 151  0005  06FF        	andm a,[127]
 152  0006              #line 152 "D:\WORK\Project\Github\Holtel-MCU\Code\HT66FM5440\NFIN_TEST\NFIN_TEST.c"
 152  0006  307E        	set [126].0
 154  0007              #line 154 "D:\WORK\Project\Github\Holtel-MCU\Code\HT66FM5440\NFIN_TEST\NFIN_TEST.c"
"File: NFIN_TEST.c   Assembler  Version HGASM0202      Page 3

 154  0007  33FE        	set [126].7
 155  0008              #line 155 "D:\WORK\Project\Github\Holtel-MCU\Code\HT66FM5440\NFIN_TEST\NFIN_TEST.c"
 155  0008  337E        	set [126].6
 157  0009              #line 157 "D:\WORK\Project\Github\Holtel-MCU\Code\HT66FM5440\NFIN_TEST\NFIN_TEST.c"
 157  0009  33FF        	set [127].7
 158  000A              #line 158 "D:\WORK\Project\Github\Holtel-MCU\Code\HT66FM5440\NFIN_TEST\NFIN_TEST.c"
 158  000A  337F        	set [127].6
 162  000B              #line 162 "D:\WORK\Project\Github\Holtel-MCU\Code\HT66FM5440\NFIN_TEST\NFIN_TEST.c"
 162  000B  3698        	clr [24].5
 163  000C              #line 163 "D:\WORK\Project\Github\Holtel-MCU\Code\HT66FM5440\NFIN_TEST\NFIN_TEST.c"
 163  000C  3098        	set [24].1
 163  000D  0003        	ret
 163  000E              _Init_NFIN endp
 163  000E              #line 163 "D:\WORK\Project\Github\Holtel-MCU\Code\HT66FM5440\NFIN_TEST\NFIN_TEST.c"
 163  000E              #pragma debug scope 1 1
 163  000E              ___ptm0c0 equ [79]
 163  000E              ___ptm0c1 equ [80]
 163  000E              ___ptm0c2 equ [290]
 163  000E              ___mfi4 equ [29]
 163  000E              ___intc2 equ [23]
 163  000E              public _Init_PTM0
 163  000E              #pragma debug scope 4 1
 167  000E              #line 167 "D:\WORK\Project\Github\Holtel-MCU\Code\HT66FM5440\NFIN_TEST\NFIN_TEST.c"
 167  0000              _Init_PTM0 .section 'code'
 167  0000              _Init_PTM0 proc
 169  0000              #line 169 "D:\WORK\Project\Github\Holtel-MCU\Code\HT66FM5440\NFIN_TEST\NFIN_TEST.c"
 169  0000  0F30        	mov a,48
 169  0001  00CF        	mov [79],a
 170  0002              #line 170 "D:\WORK\Project\Github\Holtel-MCU\Code\HT66FM5440\NFIN_TEST\NFIN_TEST.c"
 170  0002  0F62        	mov a,98
 170  0003  00D0        	mov [80],a
 172  0004              #line 172 "D:\WORK\Project\Github\Holtel-MCU\Code\HT66FM5440\NFIN_TEST\NFIN_TEST.c"
 172  0004  0F06        	mov a,6
 172  0005  80A2 0001   	lmov [290],a
 173  0007              #line 173 "D:\WORK\Project\Github\Holtel-MCU\Code\HT66FM5440\NFIN_TEST\NFIN_TEST.c"
 173  0007  31CF        	set [79].3
 175  0008              #line 175 "D:\WORK\Project\Github\Holtel-MCU\Code\HT66FM5440\NFIN_TEST\NFIN_TEST.c"
 175  0008  361D        	clr [29].4
 176  0009              #line 176 "D:\WORK\Project\Github\Holtel-MCU\Code\HT66FM5440\NFIN_TEST\NFIN_TEST.c"
 176  0009  369D        	clr [29].5
 177  000A              #line 177 "D:\WORK\Project\Github\Holtel-MCU\Code\HT66FM5440\NFIN_TEST\NFIN_TEST.c"
 177  000A  301D        	set [29].0
 178  000B              #line 178 "D:\WORK\Project\Github\Holtel-MCU\Code\HT66FM5440\NFIN_TEST\NFIN_TEST.c"
 178  000B  309D        	set [29].1
 179  000C              #line 179 "D:\WORK\Project\Github\Holtel-MCU\Code\HT66FM5440\NFIN_TEST\NFIN_TEST.c"
 179  000C  3717        	clr [23].6
 180  000D              #line 180 "D:\WORK\Project\Github\Holtel-MCU\Code\HT66FM5440\NFIN_TEST\NFIN_TEST.c"
 180  000D  3117        	set [23].2
 180  000E  0003        	ret
 180  000F              _Init_PTM0 endp
 180  000F              #line 180 "D:\WORK\Project\Github\Holtel-MCU\Code\HT66FM5440\NFIN_TEST\NFIN_TEST.c"
 180  000F              #pragma debug scope 1 1
 180  000F              ___tbc equ [275]
 180  000F              ___mfi7 equ [32]
 180  000F              public _Init_TimeBase
 180  000F              #pragma debug scope 5 1
 184  000F              #line 184 "D:\WORK\Project\Github\Holtel-MCU\Code\HT66FM5440\NFIN_TEST\NFIN_TEST.c"
 184  0000              _Init_TimeBase .section 'code'
 184  0000              _Init_TimeBase proc
 185  0000              #line 185 "D:\WORK\Project\Github\Holtel-MCU\Code\HT66FM5440\NFIN_TEST\NFIN_TEST.c"
"File: NFIN_TEST.c   Assembler  Version HGASM0202      Page 4

 185  0000  0FC0        	mov a,192
 185  0001  8093 0001   	lmov [275],a
 186  0003              #line 186 "D:\WORK\Project\Github\Holtel-MCU\Code\HT66FM5440\NFIN_TEST\NFIN_TEST.c"
 186  0003  31A0        	set [32].3
 187  0004              #line 187 "D:\WORK\Project\Github\Holtel-MCU\Code\HT66FM5440\NFIN_TEST\NFIN_TEST.c"
 187  0004  37A0        	clr [32].7
 188  0005              #line 188 "D:\WORK\Project\Github\Holtel-MCU\Code\HT66FM5440\NFIN_TEST\NFIN_TEST.c"
 188  0005  3198        	set [24].3
 189  0006              #line 189 "D:\WORK\Project\Github\Holtel-MCU\Code\HT66FM5440\NFIN_TEST\NFIN_TEST.c"
 189  0006  3798        	clr [24].7
 189  0007  0003        	ret
 189  0008              _Init_TimeBase endp
 189  0008              #line 189 "D:\WORK\Project\Github\Holtel-MCU\Code\HT66FM5440\NFIN_TEST\NFIN_TEST.c"
 189  0008              #pragma debug scope 1 1
 189  0008              ___pbps1 equ [67]
 189  0008              ___ucr1 equ [110]
 189  0008              ___ucr2 equ [111]
 189  0008              ___brg equ [112]
 189  0008              public _Init_Uart
 189  0008              #pragma debug scope 6 1
 193  0008              #line 193 "D:\WORK\Project\Github\Holtel-MCU\Code\HT66FM5440\NFIN_TEST\NFIN_TEST.c"
 193  0000              _Init_Uart .section 'code'
 193  0000              _Init_Uart proc
 196  0000              #line 196 "D:\WORK\Project\Github\Holtel-MCU\Code\HT66FM5440\NFIN_TEST\NFIN_TEST.c"
 196  0000  3243        	set [67].4
 197  0001              #line 197 "D:\WORK\Project\Github\Holtel-MCU\Code\HT66FM5440\NFIN_TEST\NFIN_TEST.c"
 197  0001  36C3        	clr [67].5
 198  0002              #line 198 "D:\WORK\Project\Github\Holtel-MCU\Code\HT66FM5440\NFIN_TEST\NFIN_TEST.c"
 198  0002  3343        	set [67].6
 199  0003              #line 199 "D:\WORK\Project\Github\Holtel-MCU\Code\HT66FM5440\NFIN_TEST\NFIN_TEST.c"
 199  0003  37C3        	clr [67].7
 201  0004              #line 201 "D:\WORK\Project\Github\Holtel-MCU\Code\HT66FM5440\NFIN_TEST\NFIN_TEST.c"
 201  0004  0F80        	mov a,128
 201  0005  00EE        	mov [110],a
 202  0006              #line 202 "D:\WORK\Project\Github\Holtel-MCU\Code\HT66FM5440\NFIN_TEST\NFIN_TEST.c"
 202  0006  0FE4        	mov a,228
 202  0007  00EF        	mov [111],a
 203  0008              #line 203 "D:\WORK\Project\Github\Holtel-MCU\Code\HT66FM5440\NFIN_TEST\NFIN_TEST.c"
 203  0008  0F67        	mov a,103
 203  0009  00F0        	mov [112],a
 205  000A              #line 205 "D:\WORK\Project\Github\Holtel-MCU\Code\HT66FM5440\NFIN_TEST\NFIN_TEST.c"
 205  000A  36A0        	clr [32].5
 206  000B              #line 206 "D:\WORK\Project\Github\Holtel-MCU\Code\HT66FM5440\NFIN_TEST\NFIN_TEST.c"
 206  000B  30A0        	set [32].1
 208  000C              #line 208 "D:\WORK\Project\Github\Holtel-MCU\Code\HT66FM5440\NFIN_TEST\NFIN_TEST.c"
 208  000C  3798        	clr [24].7
 209  000D              #line 209 "D:\WORK\Project\Github\Holtel-MCU\Code\HT66FM5440\NFIN_TEST\NFIN_TEST.c"
 209  000D  3198        	set [24].3
 211  000E              #line 211 "D:\WORK\Project\Github\Holtel-MCU\Code\HT66FM5440\NFIN_TEST\NFIN_TEST.c"
 211  000E  1F00     R  	clr _rxcnt[0]
 214  000F              #line 214 "D:\WORK\Project\Github\Holtel-MCU\Code\HT66FM5440\NFIN_TEST\NFIN_TEST.c"
 214  000F  1F00     R  	clr _rxbuff[0]
 214  0010  1F00     R  	clr _rxbuff[1]
 214  0011  1F00     R  	clr _rxbuff[2]
 214  0012  1F00     R  	clr _rxbuff[3]
 214  0013  1F00     R  	clr _rxbuff[4]
 214  0014  1F00     R  	clr _rxbuff[5]
 214  0015  0003        	ret
 214  0016              _Init_Uart endp
 214  0016              #line 214 "D:\WORK\Project\Github\Holtel-MCU\Code\HT66FM5440\NFIN_TEST\NFIN_TEST.c"
"File: NFIN_TEST.c   Assembler  Version HGASM0202      Page 5

 214  0016              #pragma debug scope 1 1
 214  0016              public _ISR_NFIN
 214  0016              #pragma debug scope 7 1
 221  0016              #line 221 "D:\WORK\Project\Github\Holtel-MCU\Code\HT66FM5440\NFIN_TEST\NFIN_TEST.c"
 221  0000              @ISR_NFIN_code .section at 52 'code'
 221  0000              ifdef INTERRUPT_DELAY
 221  0000  0000        	nop
 221  0001              endif
 221  0001  0080     E  	mov r1,a
 221  0002  070A        	mov a,status
 221  0003              ifndef INTERRUPT_DELAY
 221  0003              	mov r2,a
 221  0003              endif
 221  0003  2800     R  	jmp _ISR_NFIN
 221  0004              #pragma debug scope 1 1
 221  0004              @dummy52 endp
 221  0004              #pragma debug scope 8 1
 221  0000              _ISR_NFIN .section 'code'
 221  0000              _ISR_NFIN proc
 221  0000              ifdef INTERRUPT_DELAY
 221  0000  0080     E  	mov r2,a
 221  0001              endif
 222  0001              #line 222 "D:\WORK\Project\Github\Holtel-MCU\Code\HT66FM5440\NFIN_TEST\NFIN_TEST.c"
 222  0001  3698        	clr [24].5
 223  0002              #line 223 "D:\WORK\Project\Github\Holtel-MCU\Code\HT66FM5440\NFIN_TEST\NFIN_TEST.c"
 223  0002  3F23        	sz [35].6
 223  0003  2800     R  	jmp _L7
 224  0004              #line 224 "D:\WORK\Project\Github\Holtel-MCU\Code\HT66FM5440\NFIN_TEST\NFIN_TEST.c"
 224  0004  36A3        	clr [35].5
 224  0005  2800     R  	jmp _L6
 224  0006              _L7:
 226  0006              #line 226 "D:\WORK\Project\Github\Holtel-MCU\Code\HT66FM5440\NFIN_TEST\NFIN_TEST.c"
 226  0006  32A3        	set [35].5
 226  0007              _L6:
 226  0007  0700     E  	mov a,r2
 226  0008  008A        	mov status,a
 226  0009  0700     E  	mov a,r1
 226  000A  0004        	reti
 226  000B              _ISR_NFIN endp
 226  000B              
 226  000B              #line 226 "D:\WORK\Project\Github\Holtel-MCU\Code\HT66FM5440\NFIN_TEST\NFIN_TEST.c"
 226  000B              #pragma debug scope 1 1
 226  000B              ___ptm0bh equ [303]
 226  000B              ___ptm0bl equ [302]
 226  000B              ___ptm0ah equ [84]
 226  000B              ___ptm0al equ [83]
 226  000B              public _ISR_PTM0
 226  000B              #pragma debug scope 9 1
 232  000B              #line 232 "D:\WORK\Project\Github\Holtel-MCU\Code\HT66FM5440\NFIN_TEST\NFIN_TEST.c"
 232  0000              @ISR_PTM0_code .section at 40 'code'
 232  0000              ifdef INTERRUPT_DELAY
 232  0000  0000        	nop
 232  0001              endif
 232  0001  0080     E  	mov r1,a
 232  0002  070A        	mov a,status
 232  0003              ifndef INTERRUPT_DELAY
 232  0003              	mov r2,a
 232  0003              endif
 232  0003  2800     R  	jmp _ISR_PTM0
 232  0004              #pragma debug scope 1 1
"File: NFIN_TEST.c   Assembler  Version HGASM0202      Page 6

 232  0004              @dummy40 endp
 232  0004              #pragma debug scope 10 1
 232  0000              _ISR_PTM0 .section 'code'
 232  0000              _ISR_PTM0 proc
 232  0000              ifdef INTERRUPT_DELAY
 232  0000  0080     E  	mov r2,a
 232  0001              endif
 235  0001              #line 235 "D:\WORK\Project\Github\Holtel-MCU\Code\HT66FM5440\NFIN_TEST\NFIN_TEST.c"
 235  0001  3A1D        	snz [29].4
 235  0002  2800     R  	jmp _L11
 237  0003              #line 237 "D:\WORK\Project\Github\Holtel-MCU\Code\HT66FM5440\NFIN_TEST\NFIN_TEST.c"
 237  0003  1600     R  	siza _cnt_ov[0]
 237  0004  2800     R  	jmp _LI1
 237  0005  2800     R  	jmp _L12
 237  0006              _LI1:
 238  0006              #line 238 "D:\WORK\Project\Github\Holtel-MCU\Code\HT66FM5440\NFIN_TEST\NFIN_TEST.c"
 238  0006  1480     R  	inc _cnt_ov[0]
 238  0007              _L12:
 239  0007              #line 239 "D:\WORK\Project\Github\Holtel-MCU\Code\HT66FM5440\NFIN_TEST\NFIN_TEST.c"
 239  0007  361D        	clr [29].4
 239  0008              _L11:
 242  0008              #line 242 "D:\WORK\Project\Github\Holtel-MCU\Code\HT66FM5440\NFIN_TEST\NFIN_TEST.c"
 242  0008  3A9D        	snz [29].5
 242  0009  2800     R  	jmp _L13
 244  000A              #line 244 "D:\WORK\Project\Github\Holtel-MCU\Code\HT66FM5440\NFIN_TEST\NFIN_TEST.c"
 244  000A  1F00     R  	clr _cnt_ov[0]
 245  000B              #line 245 "D:\WORK\Project\Github\Holtel-MCU\Code\HT66FM5440\NFIN_TEST\NFIN_TEST.c"
 245  000B  B822 0001   	lsnz [290].0
 245  000D  2800     R  	jmp _L14
 249  000E              #line 249 "D:\WORK\Project\Github\Holtel-MCU\Code\HT66FM5440\NFIN_TEST\NFIN_TEST.c"
 249  000E  872F 0001   	lmov a,[303]
 249  0010  0080     E  	mov rc,a
 249  0011  1F00     E  	clr rb
 249  0012  0700     E  	mov a,rc
 249  0013  0080     R  	mov _ipl[1],a
 249  0014  872E 0001   	lmov a,[302]
 249  0016  0500     E  	or a,rb
 249  0017  0080     R  	mov _ipl[0],a
 249  0018  2800     R  	jmp _L15
 249  0019              _L14:
 255  0019              #line 255 "D:\WORK\Project\Github\Holtel-MCU\Code\HT66FM5440\NFIN_TEST\NFIN_TEST.c"
 255  0019  0754        	mov a,[84]
 255  001A  0080     E  	mov rc,a
 255  001B  1F00     E  	clr rb
 255  001C  0700     E  	mov a,rc
 255  001D  0080     R  	mov _iph[1],a
 255  001E  0753        	mov a,[83]
 255  001F  0500     E  	or a,rb
 255  0020  0080     R  	mov _iph[0],a
 255  0021              _L15:
 257  0021              #line 257 "D:\WORK\Project\Github\Holtel-MCU\Code\HT66FM5440\NFIN_TEST\NFIN_TEST.c"
 257  0021  369D        	clr [29].5
 257  0022              _L13:
 259  0022              #line 259 "D:\WORK\Project\Github\Holtel-MCU\Code\HT66FM5440\NFIN_TEST\NFIN_TEST.c"
 259  0022  3717        	clr [23].6
 259  0023  0700     E  	mov a,r2
 259  0024  008A        	mov status,a
 259  0025  0700     E  	mov a,r1
 259  0026  0004        	reti
 259  0027              _ISR_PTM0 endp
"File: NFIN_TEST.c   Assembler  Version HGASM0202      Page 7

 259  0027              
 259  0027              #line 259 "D:\WORK\Project\Github\Holtel-MCU\Code\HT66FM5440\NFIN_TEST\NFIN_TEST.c"
 259  0027              #pragma debug scope 1 1
 259  0027              ___usr equ [109]
 259  0027              ___txr_rxr equ [113]
 259  0027              public _ISR_TimeBase_Uart
 259  0027              #pragma debug scope 11 1
 263  0027              #line 263 "D:\WORK\Project\Github\Holtel-MCU\Code\HT66FM5440\NFIN_TEST\NFIN_TEST.c"
 263  0000              @ISR_TimeBase_Uart_code .section at 60 'code'
 263  0000              ifdef INTERRUPT_DELAY
 263  0000  0000        	nop
 263  0001              endif
 263  0001  0080     E  	mov r1,a
 263  0002  070A        	mov a,status
 263  0003              ifndef INTERRUPT_DELAY
 263  0003              	mov r2,a
 263  0003              endif
 263  0003  2800     R  	jmp _ISR_TimeBase_Uart
 263  0004              #pragma debug scope 1 1
 263  0004              @dummy60 endp
 263  0004              #pragma debug scope 12 1
 263  0000              _ISR_TimeBase_Uart .section 'code'
 263  0000              _ISR_TimeBase_Uart proc
 263  0000              ifdef INTERRUPT_DELAY
 263  0000  0080     E  	mov r2,a
 263  0001              endif
 263  0001  0703        	mov a,mp
 263  0002  0080     E  	mov r3,a
 263  0003  0704        	mov a,sbp
 263  0004  0080     E  	mov r4,a
 266  0005              #line 266 "D:\WORK\Project\Github\Holtel-MCU\Code\HT66FM5440\NFIN_TEST\NFIN_TEST.c"
 266  0005              ;# 266 "D:\WORK\Project\Github\Holtel-MCU\Code\HT66FM5440\NFIN_TEST\NFIN_TEST.c" 1
 266  0005  0001        	clr wdt
 268  0006              #line 268 "D:\WORK\Project\Github\Holtel-MCU\Code\HT66FM5440\NFIN_TEST\NFIN_TEST.c"
 268  0006  3798        	clr [24].7
 270  0007              #line 270 "D:\WORK\Project\Github\Holtel-MCU\Code\HT66FM5440\NFIN_TEST\NFIN_TEST.c"
 270  0007  3AA0        	snz [32].5
 270  0008  2800     R  	jmp _L27
 272  0009              #line 272 "D:\WORK\Project\Github\Holtel-MCU\Code\HT66FM5440\NFIN_TEST\NFIN_TEST.c"
 272  0009  36A0        	clr [32].5
 274  000A              #line 274 "D:\WORK\Project\Github\Holtel-MCU\Code\HT66FM5440\NFIN_TEST\NFIN_TEST.c"
 274  000A  396D        	snz [109].2
 274  000B  2800     R  	jmp _L27
 276  000C              #line 276 "D:\WORK\Project\Github\Holtel-MCU\Code\HT66FM5440\NFIN_TEST\NFIN_TEST.c"
 276  000C  0771        	mov a,[113]
 276  000D  0A23        	sub a,35
 276  000E  390A        	snz z
 276  000F  2800     R  	jmp _L29
 278  0010              #line 278 "D:\WORK\Project\Github\Holtel-MCU\Code\HT66FM5440\NFIN_TEST\NFIN_TEST.c"
 278  0010  1F00     R  	clr _rxcnt[0]
 281  0011              #line 281 "D:\WORK\Project\Github\Holtel-MCU\Code\HT66FM5440\NFIN_TEST\NFIN_TEST.c"
 281  0011  1F00     R  	clr _rxbuff[0]
 281  0012  1F00     R  	clr _rxbuff[1]
 281  0013  1F00     R  	clr _rxbuff[2]
 281  0014  1F00     R  	clr _rxbuff[3]
 281  0015  1F00     R  	clr _rxbuff[4]
 281  0016  1F00     R  	clr _rxbuff[5]
 281  0017  2800     R  	jmp _L27
 281  0018              _L29:
 284  0018              #line 284 "D:\WORK\Project\Github\Holtel-MCU\Code\HT66FM5440\NFIN_TEST\NFIN_TEST.c"
"File: NFIN_TEST.c   Assembler  Version HGASM0202      Page 8

 284  0018  0F05        	mov a,5
 284  0019  0200     R  	sub a,_rxcnt[0]
 284  001A  380A        	snz c
 284  001B  2800     R  	jmp _L27
 286  001C              #line 286 "D:\WORK\Project\Github\Holtel-MCU\Code\HT66FM5440\NFIN_TEST\NFIN_TEST.c"
 286  001C  0F00     R  	mov a,low offset _rxbuff
 286  001D  0300     R  	add a,_rxcnt[0]
 286  001E  0083        	mov mp,a
 286  001F  0F00     R  	mov a,high offset _rxbuff
 286  0020  1F04        	clr sbp
 286  0021  1384        	adcm a,sbp
 286  0022  0771        	mov a,[113]
 286  0023  0082        	mov ir,a
 287  0024              #line 287 "D:\WORK\Project\Github\Holtel-MCU\Code\HT66FM5440\NFIN_TEST\NFIN_TEST.c"
 287  0024  1480     R  	inc _rxcnt[0]
 287  0025              _L27:
 292  0025              #line 292 "D:\WORK\Project\Github\Holtel-MCU\Code\HT66FM5440\NFIN_TEST\NFIN_TEST.c"
 292  0025  3BA0        	snz [32].7
 292  0026  2800     R  	jmp _L25
 294  0027              #line 294 "D:\WORK\Project\Github\Holtel-MCU\Code\HT66FM5440\NFIN_TEST\NFIN_TEST.c"
 294  0027  0700     R  	mov a,_cnt1_1ms[0]
 294  0028  0500     R  	or a,_cnt1_1ms[1]
 294  0029  3D0A        	sz z
 294  002A  2800     R  	jmp _L31
 295  002B              #line 295 "D:\WORK\Project\Github\Holtel-MCU\Code\HT66FM5440\NFIN_TEST\NFIN_TEST.c"
 295  002B  0FFF        	mov a,255
 295  002C  0380     R  	addm a,_cnt1_1ms[0]
 295  002D  0FFF        	mov a,255
 295  002E  1380     R  	adcm a,_cnt1_1ms[1]
 295  002F  2800     R  	jmp _L32
 295  0030              _L31:
 297  0030              #line 297 "D:\WORK\Project\Github\Holtel-MCU\Code\HT66FM5440\NFIN_TEST\NFIN_TEST.c"
 297  0030  3000     R  	set _bTimeup1
 297  0031              _L32:
 299  0031              #line 299 "D:\WORK\Project\Github\Holtel-MCU\Code\HT66FM5440\NFIN_TEST\NFIN_TEST.c"
 299  0031  0700     R  	mov a,_cnt2_1ms[0]
 299  0032  0500     R  	or a,_cnt2_1ms[1]
 299  0033  3D0A        	sz z
 299  0034  2800     R  	jmp _L33
 300  0035              #line 300 "D:\WORK\Project\Github\Holtel-MCU\Code\HT66FM5440\NFIN_TEST\NFIN_TEST.c"
 300  0035  0FFF        	mov a,255
 300  0036  0380     R  	addm a,_cnt2_1ms[0]
 300  0037  0FFF        	mov a,255
 300  0038  1380     R  	adcm a,_cnt2_1ms[1]
 300  0039  2800     R  	jmp _L34
 300  003A              _L33:
 302  003A              #line 302 "D:\WORK\Project\Github\Holtel-MCU\Code\HT66FM5440\NFIN_TEST\NFIN_TEST.c"
 302  003A  3000     R  	set _bTimeup2
 302  003B              _L34:
 304  003B              #line 304 "D:\WORK\Project\Github\Holtel-MCU\Code\HT66FM5440\NFIN_TEST\NFIN_TEST.c"
 304  003B  37A0        	clr [32].7
 304  003C              _L25:
 304  003C  0700     E  	mov a,r2
 304  003D  008A        	mov status,a
 304  003E  0700     E  	mov a,r3
 304  003F  0083        	mov mp,a
 304  0040  0700     E  	mov a,r4
 304  0041  0084        	mov sbp,a
 304  0042  0700     E  	mov a,r1
 304  0043  0004        	reti
"File: NFIN_TEST.c   Assembler  Version HGASM0202      Page 9

 304  0044              _ISR_TimeBase_Uart endp
 304  0044              
 304  0044              #line 304 "D:\WORK\Project\Github\Holtel-MCU\Code\HT66FM5440\NFIN_TEST\NFIN_TEST.c"
 304  0044              #pragma debug scope 1 1
 304  0044              public _print_string
 304  0044              #pragma debug scope 13 1
 311  0044              #line 311 "D:\WORK\Project\Github\Holtel-MCU\Code\HT66FM5440\NFIN_TEST\NFIN_TEST.c"
 311  0000              _print_string .section 'code'
 311  0000              _print_string proc
 311  0000              public _print_string_2
 311  0000  0003[           local _print_string_2 db 3 dup(?)	; 3,0
            00
            ]
 311  0003              #pragma debug pointer 42 7 13
 311  0003              #pragma debug pointer 42 7 13
 311  0003              #pragma debug variable 42 13 _print_string_2+0 "txdata"
 311  0003              #pragma debug variable 8 13 _print_string_2+2 "cnt"
 313  0003              #line 313 "D:\WORK\Project\Github\Holtel-MCU\Code\HT66FM5440\NFIN_TEST\NFIN_TEST.c"
 313  0000  1F00     E  	clr ra
 313  0001  2800     R  	jmp _L42
 313  0002              _L45:
 315  0002              #line 315 "D:\WORK\Project\Github\Holtel-MCU\Code\HT66FM5440\NFIN_TEST\NFIN_TEST.c"
 315  0002  3C6D        	sz [109].0
 315  0003  2800     R  	jmp _L46
 316  0004              #line 316 "D:\WORK\Project\Github\Holtel-MCU\Code\HT66FM5440\NFIN_TEST\NFIN_TEST.c"
 316  0004              ;# 316 "D:\WORK\Project\Github\Holtel-MCU\Code\HT66FM5440\NFIN_TEST\NFIN_TEST.c" 1
 316  0004  0001        	clr wdt
 316  0005  2800     R  	jmp _L45
 316  0006              _L46:
 317  0006              #line 317 "D:\WORK\Project\Github\Holtel-MCU\Code\HT66FM5440\NFIN_TEST\NFIN_TEST.c"
 317  0006  0700     E  	mov a,ra
 317  0007  0300     R  	add a,_print_string_2[0]
 317  0008  0083        	mov mp,a
 317  0009  1F05        	clr acc
 317  000A  1300     R  	adc a,_print_string_2[1]
 317  000B  0084        	mov sbp,a
 317  000C  2000     E  	call _Crom2Prom
 317  000D  00F1        	mov [113],a
 313  000E              #line 313 "D:\WORK\Project\Github\Holtel-MCU\Code\HT66FM5440\NFIN_TEST\NFIN_TEST.c"
 313  000E  1480     E  	inc ra
 313  000F              _L42:
 313  000F  0700     E  	mov a,ra
 313  0010  0200     R  	sub a,_print_string_2[2]
 313  0011  380A        	snz c
 313  0012  2800     R  	jmp _L45
 313  0013  0003        	ret
 313  0014              _print_string endp
 313  0014              #line 313 "D:\WORK\Project\Github\Holtel-MCU\Code\HT66FM5440\NFIN_TEST\NFIN_TEST.c"
 313  0014              #pragma debug scope 1 1
 313  0014              public _byte2str10
 313  0014              #pragma debug scope 14 1
 323  0014              #line 323 "D:\WORK\Project\Github\Holtel-MCU\Code\HT66FM5440\NFIN_TEST\NFIN_TEST.c"
 323  0000              _byte2str10 .section 'code'
 323  0000              _byte2str10 proc
 323  0000              public _byte2str10_2
 323  0000  0005[           local _byte2str10_2 db 5 dup(?)	; 3,2
            00
            ]
 323  0005              #pragma debug pointer 43 7 14
 323  0005              #pragma debug pointer 43 7 14
"File: NFIN_TEST.c   Assembler  Version HGASM0202      Page 10

 323  0005              #pragma debug variable 43 14 _byte2str10_2+0 "str"
 323  0005              #pragma debug variable 8 14 _byte2str10_2+2 "num"
 323  0005              #pragma debug variable 8 14 _byte2str10_2+4 "quo"
 323  0005              #pragma debug variable 8 14 _byte2str10_2+3 "rem"
 326  0005              #line 326 "D:\WORK\Project\Github\Holtel-MCU\Code\HT66FM5440\NFIN_TEST\NFIN_TEST.c"
 326  0000  0F0A        	mov a,10
 326  0001  0080     E  	mov _div8_8_2[5],a
 326  0002  0700     R  	mov a,_byte2str10_2[2]
 326  0003  0080     E  	mov _div8_8_2[4],a
 326  0004  0F00     R  	mov a,low offset _byte2str10_2
 326  0005  0080     E  	mov ra,a
 326  0006  0F00     R  	mov a,high offset _byte2str10_2
 326  0007  0080     E  	mov rb,a
 326  0008  0F03        	mov a,3
 326  0009  0300     E  	add a,ra
 326  000A  0080     E  	mov _div8_8_2[2],a
 326  000B  0F00        	mov a,0
 326  000C  1300     E  	adc a,rb
 326  000D  0080     E  	mov _div8_8_2[3],a
 326  000E  0F04        	mov a,4
 326  000F  0300     E  	add a,ra
 326  0010  0080     E  	mov _div8_8_2[0],a
 326  0011  0F00        	mov a,0
 326  0012  1300     E  	adc a,rb
 326  0013  0080     E  	mov _div8_8_2[1],a
 326  0014  2000     E  	call _div8_8
 327  0015              #line 327 "D:\WORK\Project\Github\Holtel-MCU\Code\HT66FM5440\NFIN_TEST\NFIN_TEST.c"
 327  0015  0700     R  	mov a,_byte2str10_2[3]
 327  0016  0B30        	add a,48
 327  0017  0080     E  	mov ra,a
 327  0018  0F02        	mov a,2
 327  0019  0300     R  	add a,_byte2str10_2[0]
 327  001A  0083        	mov mp,a
 327  001B  0F00        	mov a,0
 327  001C  1300     R  	adc a,_byte2str10_2[1]
 327  001D  0084        	mov sbp,a
 327  001E  0700     E  	mov a,ra
 327  001F  0082        	mov ir,a
 329  0020              #line 329 "D:\WORK\Project\Github\Holtel-MCU\Code\HT66FM5440\NFIN_TEST\NFIN_TEST.c"
 329  0020  0F0A        	mov a,10
 329  0021  0080     E  	mov _div8_8_2[5],a
 329  0022  0700     R  	mov a,_byte2str10_2[4]
 329  0023  0080     E  	mov _div8_8_2[4],a
 329  0024  0F00     R  	mov a,low offset _byte2str10_2
 329  0025  0080     E  	mov ra,a
 329  0026  0F00     R  	mov a,high offset _byte2str10_2
 329  0027  0080     E  	mov rb,a
 329  0028  0F03        	mov a,3
 329  0029  0300     E  	add a,ra
 329  002A  0080     E  	mov _div8_8_2[2],a
 329  002B  0F00        	mov a,0
 329  002C  1300     E  	adc a,rb
 329  002D  0080     E  	mov _div8_8_2[3],a
 329  002E  0F04        	mov a,4
 329  002F  0300     E  	add a,ra
 329  0030  0080     E  	mov _div8_8_2[0],a
 329  0031  0F00        	mov a,0
 329  0032  1300     E  	adc a,rb
 329  0033  0080     E  	mov _div8_8_2[1],a
 329  0034  2000     E  	call _div8_8
"File: NFIN_TEST.c   Assembler  Version HGASM0202      Page 11

 330  0035              #line 330 "D:\WORK\Project\Github\Holtel-MCU\Code\HT66FM5440\NFIN_TEST\NFIN_TEST.c"
 330  0035  0700     R  	mov a,_byte2str10_2[3]
 330  0036  0B30        	add a,48
 330  0037  0080     E  	mov ra,a
 330  0038  0F01        	mov a,1
 330  0039  0300     R  	add a,_byte2str10_2[0]
 330  003A  0083        	mov mp,a
 330  003B  0F00        	mov a,0
 330  003C  1300     R  	adc a,_byte2str10_2[1]
 330  003D  0084        	mov sbp,a
 330  003E  0700     E  	mov a,ra
 330  003F  0082        	mov ir,a
 331  0040              #line 331 "D:\WORK\Project\Github\Holtel-MCU\Code\HT66FM5440\NFIN_TEST\NFIN_TEST.c"
 331  0040  0700     R  	mov a,_byte2str10_2[4]
 331  0041  0B30        	add a,48
 331  0042  0080     E  	mov ra,a
 331  0043  0700     R  	mov a,_byte2str10_2[0]
 331  0044  0083        	mov mp,a
 331  0045  0700     R  	mov a,_byte2str10_2[1]
 331  0046  0084        	mov sbp,a
 331  0047  0700     E  	mov a,ra
 331  0048  0082        	mov ir,a
 331  0049  0003        	ret
 331  004A              _byte2str10 endp
 331  004A              #line 331 "D:\WORK\Project\Github\Holtel-MCU\Code\HT66FM5440\NFIN_TEST\NFIN_TEST.c"
 331  004A              #pragma debug scope 1 1
 331  004A              public _int2str10
 331  004A              #pragma debug scope 15 1
 336  004A              #line 336 "D:\WORK\Project\Github\Holtel-MCU\Code\HT66FM5440\NFIN_TEST\NFIN_TEST.c"
 336  0000              _int2str10 .section 'code'
 336  0000              _int2str10 proc
 336  0000              public _int2str10_2
 336  0000  0008[           local _int2str10_2 db 8 dup(?)	; 4,4
            00
            ]
 336  0008              #pragma debug pointer 44 7 15
 336  0008              #pragma debug pointer 44 7 15
 336  0008              #pragma debug variable 44 15 _int2str10_2+0 "str"
 336  0008              #pragma debug variable 12 15 _int2str10_2+2 "num"
 336  0008              #pragma debug variable 12 15 _int2str10_2+6 "quo"
 336  0008              #pragma debug variable 12 15 _int2str10_2+4 "rem"
 339  0008              #line 339 "D:\WORK\Project\Github\Holtel-MCU\Code\HT66FM5440\NFIN_TEST\NFIN_TEST.c"
 339  0000  0F0A        	mov a,10
 339  0001  0080     E  	mov _div16_16_2[6],a
 339  0002  1F00     E  	clr _div16_16_2[7]
 339  0003  0700     R  	mov a,_int2str10_2[2]
 339  0004  0080     E  	mov _div16_16_2[4],a
 339  0005  0700     R  	mov a,_int2str10_2[3]
 339  0006  0080     E  	mov _div16_16_2[5],a
 339  0007  0F00     R  	mov a,low offset _int2str10_2
 339  0008  0080     E  	mov ra,a
 339  0009  0F00     R  	mov a,high offset _int2str10_2
 339  000A  0080     E  	mov rb,a
 339  000B  0F04        	mov a,4
 339  000C  0300     E  	add a,ra
 339  000D  0080     E  	mov _div16_16_2[2],a
 339  000E  0F00        	mov a,0
 339  000F  1300     E  	adc a,rb
 339  0010  0080     E  	mov _div16_16_2[3],a
 339  0011  0F06        	mov a,6
"File: NFIN_TEST.c   Assembler  Version HGASM0202      Page 12

 339  0012  0300     E  	add a,ra
 339  0013  0080     E  	mov _div16_16_2[0],a
 339  0014  0F00        	mov a,0
 339  0015  1300     E  	adc a,rb
 339  0016  0080     E  	mov _div16_16_2[1],a
 339  0017  2000     E  	call _div16_16
 340  0018              #line 340 "D:\WORK\Project\Github\Holtel-MCU\Code\HT66FM5440\NFIN_TEST\NFIN_TEST.c"
 340  0018  0700     R  	mov a,_int2str10_2[4]
 340  0019  0B30        	add a,48
 340  001A  0080     E  	mov ra,a
 340  001B  0F04        	mov a,4
 340  001C  0300     R  	add a,_int2str10_2[0]
 340  001D  0083        	mov mp,a
 340  001E  0F00        	mov a,0
 340  001F  1300     R  	adc a,_int2str10_2[1]
 340  0020  0084        	mov sbp,a
 340  0021  0700     E  	mov a,ra
 340  0022  0082        	mov ir,a
 342  0023              #line 342 "D:\WORK\Project\Github\Holtel-MCU\Code\HT66FM5440\NFIN_TEST\NFIN_TEST.c"
 342  0023  0F0A        	mov a,10
 342  0024  0080     E  	mov _div16_16_2[6],a
 342  0025  1F00     E  	clr _div16_16_2[7]
 342  0026  0700     R  	mov a,_int2str10_2[6]
 342  0027  0080     E  	mov _div16_16_2[4],a
 342  0028  0700     R  	mov a,_int2str10_2[7]
 342  0029  0080     E  	mov _div16_16_2[5],a
 342  002A  0F00     R  	mov a,low offset _int2str10_2
 342  002B  0080     E  	mov ra,a
 342  002C  0F00     R  	mov a,high offset _int2str10_2
 342  002D  0080     E  	mov rb,a
 342  002E  0F04        	mov a,4
 342  002F  0300     E  	add a,ra
 342  0030  0080     E  	mov _div16_16_2[2],a
 342  0031  0F00        	mov a,0
 342  0032  1300     E  	adc a,rb
 342  0033  0080     E  	mov _div16_16_2[3],a
 342  0034  0F06        	mov a,6
 342  0035  0300     E  	add a,ra
 342  0036  0080     E  	mov _div16_16_2[0],a
 342  0037  0F00        	mov a,0
 342  0038  1300     E  	adc a,rb
 342  0039  0080     E  	mov _div16_16_2[1],a
 342  003A  2000     E  	call _div16_16
 343  003B              #line 343 "D:\WORK\Project\Github\Holtel-MCU\Code\HT66FM5440\NFIN_TEST\NFIN_TEST.c"
 343  003B  0700     R  	mov a,_int2str10_2[4]
 343  003C  0B30        	add a,48
 343  003D  0080     E  	mov ra,a
 343  003E  0F03        	mov a,3
 343  003F  0300     R  	add a,_int2str10_2[0]
 343  0040  0083        	mov mp,a
 343  0041  0F00        	mov a,0
 343  0042  1300     R  	adc a,_int2str10_2[1]
 343  0043  0084        	mov sbp,a
 343  0044  0700     E  	mov a,ra
 343  0045  0082        	mov ir,a
 345  0046              #line 345 "D:\WORK\Project\Github\Holtel-MCU\Code\HT66FM5440\NFIN_TEST\NFIN_TEST.c"
 345  0046  0F0A        	mov a,10
 345  0047  0080     E  	mov _div16_16_2[6],a
 345  0048  1F00     E  	clr _div16_16_2[7]
 345  0049  0700     R  	mov a,_int2str10_2[6]
"File: NFIN_TEST.c   Assembler  Version HGASM0202      Page 13

 345  004A  0080     E  	mov _div16_16_2[4],a
 345  004B  0700     R  	mov a,_int2str10_2[7]
 345  004C  0080     E  	mov _div16_16_2[5],a
 345  004D  0F00     R  	mov a,low offset _int2str10_2
 345  004E  0080     E  	mov ra,a
 345  004F  0F00     R  	mov a,high offset _int2str10_2
 345  0050  0080     E  	mov rb,a
 345  0051  0F04        	mov a,4
 345  0052  0300     E  	add a,ra
 345  0053  0080     E  	mov _div16_16_2[2],a
 345  0054  0F00        	mov a,0
 345  0055  1300     E  	adc a,rb
 345  0056  0080     E  	mov _div16_16_2[3],a
 345  0057  0F06        	mov a,6
 345  0058  0300     E  	add a,ra
 345  0059  0080     E  	mov _div16_16_2[0],a
 345  005A  0F00        	mov a,0
 345  005B  1300     E  	adc a,rb
 345  005C  0080     E  	mov _div16_16_2[1],a
 345  005D  2000     E  	call _div16_16
 346  005E              #line 346 "D:\WORK\Project\Github\Holtel-MCU\Code\HT66FM5440\NFIN_TEST\NFIN_TEST.c"
 346  005E  0700     R  	mov a,_int2str10_2[4]
 346  005F  0B30        	add a,48
 346  0060  0080     E  	mov ra,a
 346  0061  0F02        	mov a,2
 346  0062  0300     R  	add a,_int2str10_2[0]
 346  0063  0083        	mov mp,a
 346  0064  0F00        	mov a,0
 346  0065  1300     R  	adc a,_int2str10_2[1]
 346  0066  0084        	mov sbp,a
 346  0067  0700     E  	mov a,ra
 346  0068  0082        	mov ir,a
 348  0069              #line 348 "D:\WORK\Project\Github\Holtel-MCU\Code\HT66FM5440\NFIN_TEST\NFIN_TEST.c"
 348  0069  0F0A        	mov a,10
 348  006A  0080     E  	mov _div16_16_2[6],a
 348  006B  1F00     E  	clr _div16_16_2[7]
 348  006C  0700     R  	mov a,_int2str10_2[6]
 348  006D  0080     E  	mov _div16_16_2[4],a
 348  006E  0700     R  	mov a,_int2str10_2[7]
 348  006F  0080     E  	mov _div16_16_2[5],a
 348  0070  0F00     R  	mov a,low offset _int2str10_2
 348  0071  0080     E  	mov ra,a
 348  0072  0F00     R  	mov a,high offset _int2str10_2
 348  0073  0080     E  	mov rb,a
 348  0074  0F04        	mov a,4
 348  0075  0300     E  	add a,ra
 348  0076  0080     E  	mov _div16_16_2[2],a
 348  0077  0F00        	mov a,0
 348  0078  1300     E  	adc a,rb
 348  0079  0080     E  	mov _div16_16_2[3],a
 348  007A  0F06        	mov a,6
 348  007B  0300     E  	add a,ra
 348  007C  0080     E  	mov _div16_16_2[0],a
 348  007D  0F00        	mov a,0
 348  007E  1300     E  	adc a,rb
 348  007F  0080     E  	mov _div16_16_2[1],a
 348  0080  2000     E  	call _div16_16
 349  0081              #line 349 "D:\WORK\Project\Github\Holtel-MCU\Code\HT66FM5440\NFIN_TEST\NFIN_TEST.c"
 349  0081  0700     R  	mov a,_int2str10_2[4]
 349  0082  0B30        	add a,48
"File: NFIN_TEST.c   Assembler  Version HGASM0202      Page 14

 349  0083  0080     E  	mov ra,a
 349  0084  0F01        	mov a,1
 349  0085  0300     R  	add a,_int2str10_2[0]
 349  0086  0083        	mov mp,a
 349  0087  0F00        	mov a,0
 349  0088  1300     R  	adc a,_int2str10_2[1]
 349  0089  0084        	mov sbp,a
 349  008A  0700     E  	mov a,ra
 349  008B  0082        	mov ir,a
 350  008C              #line 350 "D:\WORK\Project\Github\Holtel-MCU\Code\HT66FM5440\NFIN_TEST\NFIN_TEST.c"
 350  008C  0700     R  	mov a,_int2str10_2[6]
 350  008D  0B30        	add a,48
 350  008E  0080     E  	mov ra,a
 350  008F  0700     R  	mov a,_int2str10_2[0]
 350  0090  0083        	mov mp,a
 350  0091  0700     R  	mov a,_int2str10_2[1]
 350  0092  0084        	mov sbp,a
 350  0093  0700     E  	mov a,ra
 350  0094  0082        	mov ir,a
 350  0095  0003        	ret
 350  0096              _int2str10 endp
 350  0096              #line 350 "D:\WORK\Project\Github\Holtel-MCU\Code\HT66FM5440\NFIN_TEST\NFIN_TEST.c"
 350  0096              #pragma debug scope 1 1
 350  0000              @crom	.section 'crom'
 350  0000              _LC0:
 350  0000              	db 048h,065h,06ch,06ch,06fh,020h,057h,06fh,072h,06ch
 350  0005              	db 064h,021h,021h,0dh,0ah,00h
 350  0008              ___intc0 equ [21]
 350  0008              public _main
 350  0008              #pragma debug scope 16 1
  52  0008              #line 52 "D:\WORK\Project\Github\Holtel-MCU\Code\HT66FM5440\NFIN_TEST\NFIN_TEST.c"
  52  0008              IFDEF WITH_DEFAULT_STARTUP
  52  0008              extern _main_initial0:near
  52  0008              extern _main_startup:near
  52  0008              ENDIF
  52  0008              
  52  0008              ROMBANK 0 @start
  52  0000              @start .section com_l 'code'
  52  0000              _main_startup1:
  52  0000              @start .section com_e 'code'
  52  0000  2800     R  	jmp _main
  52  0001              
  52  0000              _main .section 'code'
  52  0000              _main proc
  55  0000              #line 55 "D:\WORK\Project\Github\Holtel-MCU\Code\HT66FM5440\NFIN_TEST\NFIN_TEST.c"
  55  0000  2000     R  	call _Init_GPIO
  56  0001              #line 56 "D:\WORK\Project\Github\Holtel-MCU\Code\HT66FM5440\NFIN_TEST\NFIN_TEST.c"
  56  0001  2000     R  	call _Init_NFIN
  57  0002              #line 57 "D:\WORK\Project\Github\Holtel-MCU\Code\HT66FM5440\NFIN_TEST\NFIN_TEST.c"
  57  0002  2000     R  	call _Init_PTM0
  58  0003              #line 58 "D:\WORK\Project\Github\Holtel-MCU\Code\HT66FM5440\NFIN_TEST\NFIN_TEST.c"
  58  0003  2000     R  	call _Init_TimeBase
  59  0004              #line 59 "D:\WORK\Project\Github\Holtel-MCU\Code\HT66FM5440\NFIN_TEST\NFIN_TEST.c"
  59  0004  2000     R  	call _Init_Uart
  61  0005              #line 61 "D:\WORK\Project\Github\Holtel-MCU\Code\HT66FM5440\NFIN_TEST\NFIN_TEST.c"
  61  0005  0F0F        	mov a,15
  61  0006  0080     E  	mov _strncpy_2[4],a
  61  0007  1F00     E  	clr _strncpy_2[5]
  61  0008  0F00     R  	mov a,low offset _LC0
  61  0009  0080     E  	mov _strncpy_2[2],a
"File: NFIN_TEST.c   Assembler  Version HGASM0202      Page 15

  61  000A  0F00     R  	mov a,high offset _LC0
  61  000B  0080     E  	mov _strncpy_2[3],a
  61  000C  0F00     R  	mov a,low offset _txbuff
  61  000D  0080     E  	mov _strncpy_2[0],a
  61  000E  0F00     R  	mov a,high offset _txbuff
  61  000F  0080     E  	mov _strncpy_2[1],a
  61  0010  2000     E  	call _strncpy
  62  0011              #line 62 "D:\WORK\Project\Github\Holtel-MCU\Code\HT66FM5440\NFIN_TEST\NFIN_TEST.c"
  62  0011  0F0F        	mov a,15
  62  0012  0080     R  	mov _print_string_2[2],a
  62  0013  0F00     R  	mov a,low offset _txbuff
  62  0014  0080     R  	mov _print_string_2[0],a
  62  0015  0F00     R  	mov a,high offset _txbuff
  62  0016  0080     R  	mov _print_string_2[1],a
  62  0017  2000     R  	call _print_string
  63  0018              #line 63 "D:\WORK\Project\Github\Holtel-MCU\Code\HT66FM5440\NFIN_TEST\NFIN_TEST.c"
  63  0018  3015        	set [21].0
  63  0019              _L51:
  67  0019              #line 67 "D:\WORK\Project\Github\Holtel-MCU\Code\HT66FM5440\NFIN_TEST\NFIN_TEST.c"
  67  0019              ;# 67 "D:\WORK\Project\Github\Holtel-MCU\Code\HT66FM5440\NFIN_TEST\NFIN_TEST.c" 1
  67  0019  0001        	clr wdt
  69  001A              #line 69 "D:\WORK\Project\Github\Holtel-MCU\Code\HT66FM5440\NFIN_TEST\NFIN_TEST.c"
  69  001A  33FE        	set [126].7
  70  001B              #line 70 "D:\WORK\Project\Github\Holtel-MCU\Code\HT66FM5440\NFIN_TEST\NFIN_TEST.c"
  70  001B  3800     R  	snz _bTimeup1
  70  001C  2800     R  	jmp _L51
  72  001D              #line 72 "D:\WORK\Project\Github\Holtel-MCU\Code\HT66FM5440\NFIN_TEST\NFIN_TEST.c"
  72  001D  3400     R  	clr _bTimeup1
  73  001E              #line 73 "D:\WORK\Project\Github\Holtel-MCU\Code\HT66FM5440\NFIN_TEST\NFIN_TEST.c"
  73  001E  0FE8        	mov a,-24
  73  001F  0080     R  	mov _cnt1_1ms[0],a
  73  0020  0F03        	mov a,3
  73  0021  0080     R  	mov _cnt1_1ms[1],a
  73  0022  0F02        	mov a,2
  73  0023  0080     E  	mov ra,a
  73  0024              _L53:
  75  0024              #line 75 "D:\WORK\Project\Github\Holtel-MCU\Code\HT66FM5440\NFIN_TEST\NFIN_TEST.c"
  75  0024              ;# 75 "D:\WORK\Project\Github\Holtel-MCU\Code\HT66FM5440\NFIN_TEST\NFIN_TEST.c" 1
  75  0024              	IF 3200>263690
  75  0024              ;# 75 "D:\WORK\Project\Github\Holtel-MCU\Code\HT66FM5440\NFIN_TEST\NFIN_TEST.c" 1
  75  0024              	ERRMESSAGE 'the value 3200of the argument exceeds the maxinum 263690'
  75  0024              	ENDIF
  75  0024              ;# 75 "D:\WORK\Project\Github\Holtel-MCU\Code\HT66FM5440\NFIN_TEST\NFIN_TEST.c" 1
  75  0024              	IF 3200<0
  75  0024              ;# 75 "D:\WORK\Project\Github\Holtel-MCU\Code\HT66FM5440\NFIN_TEST\NFIN_TEST.c" 1
  75  0024              	ERRMESSAGE 'the value 3200 of the argument exceeds the mininum 0'
  75  0024              	ENDIF
  75  0024              ;# 75 "D:\WORK\Project\Github\Holtel-MCU\Code\HT66FM5440\NFIN_TEST\NFIN_TEST.c" 1
  75  0024              	IF 3200==0
  75  0024              ;# 75 "D:\WORK\Project\Github\Holtel-MCU\Code\HT66FM5440\NFIN_TEST\NFIN_TEST.c" 1
  75  0024              	JMP $
  75  0024              	ENDIF
  75  0024              ;# 75 "D:\WORK\Project\Github\Holtel-MCU\Code\HT66FM5440\NFIN_TEST\NFIN_TEST.c" 1
  75  0024              	IF 3200==1
  75  0024              ;# 75 "D:\WORK\Project\Github\Holtel-MCU\Code\HT66FM5440\NFIN_TEST\NFIN_TEST.c" 1
  75  0024              	NOP
  75  0024              	ENDIF
  75  0024              ;# 75 "D:\WORK\Project\Github\Holtel-MCU\Code\HT66FM5440\NFIN_TEST\NFIN_TEST.c" 1
  75  0024              	IF 3200==2
  75  0024              ;# 75 "D:\WORK\Project\Github\Holtel-MCU\Code\HT66FM5440\NFIN_TEST\NFIN_TEST.c" 1
"File: NFIN_TEST.c   Assembler  Version HGASM0202      Page 16

  75  0024              	NOP
  75  0024              ;# 75 "D:\WORK\Project\Github\Holtel-MCU\Code\HT66FM5440\NFIN_TEST\NFIN_TEST.c" 1
  75  0024              	NOP
  75  0024              	ENDIF
  75  0024              ;# 75 "D:\WORK\Project\Github\Holtel-MCU\Code\HT66FM5440\NFIN_TEST\NFIN_TEST.c" 1
  75  0024              	IF 3200==3
  75  0024              ;# 75 "D:\WORK\Project\Github\Holtel-MCU\Code\HT66FM5440\NFIN_TEST\NFIN_TEST.c" 1
  75  0024              	NOP
  75  0024              ;# 75 "D:\WORK\Project\Github\Holtel-MCU\Code\HT66FM5440\NFIN_TEST\NFIN_TEST.c" 1
  75  0024              	NOP
  75  0024              ;# 75 "D:\WORK\Project\Github\Holtel-MCU\Code\HT66FM5440\NFIN_TEST\NFIN_TEST.c" 1
  75  0024              	NOP
  75  0024              	ENDIF
  75  0024              ;# 75 "D:\WORK\Project\Github\Holtel-MCU\Code\HT66FM5440\NFIN_TEST\NFIN_TEST.c" 1
  75  0024              	IF (3200<8) AND (3200>3)
  75  0024              ;# 75 "D:\WORK\Project\Github\Holtel-MCU\Code\HT66FM5440\NFIN_TEST\NFIN_TEST.c" 1
  75  0024              	CALL __DELAY3 + 7 -3200
  75  0024              	ENDIF
  75  0024              ;# 75 "D:\WORK\Project\Github\Holtel-MCU\Code\HT66FM5440\NFIN_TEST\NFIN_TEST.c" 1
  75  0024              	IF (3200< 0404h) AND (3200>7)
  75  0024              ;# 75 "D:\WORK\Project\Github\Holtel-MCU\Code\HT66FM5440\NFIN_TEST\NFIN_TEST.c" 1
  75  0024              	MOV A,3200/4-1
  75  0024              ;# 75 "D:\WORK\Project\Github\Holtel-MCU\Code\HT66FM5440\NFIN_TEST\NFIN_TEST.c" 1
  75  0024              	CALL __DELAYX3 + 3 -(3200 MOD 4)
  75  0024              	ENDIF
  75  0024              ;# 75 "D:\WORK\Project\Github\Holtel-MCU\Code\HT66FM5440\NFIN_TEST\NFIN_TEST.c" 1
  75  0024              	IF (3200< 0x40B) AND (3200> 0403h)
  75  0024              ;# 75 "D:\WORK\Project\Github\Holtel-MCU\Code\HT66FM5440\NFIN_TEST\NFIN_TEST.c" 1
  75  0024              	MOV A,0 
  75  0024              ;# 75 "D:\WORK\Project\Github\Holtel-MCU\Code\HT66FM5440\NFIN_TEST\NFIN_TEST.c" 1
  75  0024              	CALL __DELAYX6 + 0x40a -3200
  75  0024              	ENDIF
  75  0024              ;# 75 "D:\WORK\Project\Github\Holtel-MCU\Code\HT66FM5440\NFIN_TEST\NFIN_TEST.c" 1
  75  0024              	IF (3200 >= 0x40b) AND ((((3200-9)%0402h)/4+1)>256)
  75  0024              ;# 75 "D:\WORK\Project\Github\Holtel-MCU\Code\HT66FM5440\NFIN_TEST\NFIN_TEST.c" 1
  75  0024              	MOV A,(3200-9)/0402h
  75  0024              ;# 75 "D:\WORK\Project\Github\Holtel-MCU\Code\HT66FM5440\NFIN_TEST\NFIN_TEST.c" 1
  75  0024              	MOV _builtin_holtek_delay_2,A
  75  0024              ;# 75 "D:\WORK\Project\Github\Holtel-MCU\Code\HT66FM5440\NFIN_TEST\NFIN_TEST.c" 1
  75  0024              	MOV A,0
  75  0024              ;# 75 "D:\WORK\Project\Github\Holtel-MCU\Code\HT66FM5440\NFIN_TEST\NFIN_TEST.c" 1
  75  0024              	CALL __DELAYY5 +5- (((3200-9)%0402h)%6)
  75  0024              	ENDIF
  75  0024              ;# 75 "D:\WORK\Project\Github\Holtel-MCU\Code\HT66FM5440\NFIN_TEST\NFIN_TEST.c" 1
  75  0024              	IF (3200 >= 0x40b) AND ((((3200-9)%0402h)/4+1)<=256)
  75  0024              ;# 75 "D:\WORK\Project\Github\Holtel-MCU\Code\HT66FM5440\NFIN_TEST\NFIN_TEST.c" 1
  75  0024  0F03        	MOV A,(3200-9)/0402h
  75  0025              ;# 75 "D:\WORK\Project\Github\Holtel-MCU\Code\HT66FM5440\NFIN_TEST\NFIN_TEST.c" 1
  75  0025  0080     E  	MOV _builtin_holtek_delay_2,A
  75  0026              ;# 75 "D:\WORK\Project\Github\Holtel-MCU\Code\HT66FM5440\NFIN_TEST\NFIN_TEST.c" 1
  75  0026  0F1D        	MOV A,((3200-9)%0402h)/4+1
  75  0027              ;# 75 "D:\WORK\Project\Github\Holtel-MCU\Code\HT66FM5440\NFIN_TEST\NFIN_TEST.c" 1
  75  0027  2000     E  	CALL __DELAYY3 +3-(((3200-9)%0402h)%4)
  75  0028              	ENDIF
  76  0028              #line 76 "D:\WORK\Project\Github\Holtel-MCU\Code\HT66FM5440\NFIN_TEST\NFIN_TEST.c"
  76  0028  3723        	clr [35].6
  77  0029              #line 77 "D:\WORK\Project\Github\Holtel-MCU\Code\HT66FM5440\NFIN_TEST\NFIN_TEST.c"
  77  0029              ;# 77 "D:\WORK\Project\Github\Holtel-MCU\Code\HT66FM5440\NFIN_TEST\NFIN_TEST.c" 1
  77  0029              	IF 16000>263690
  77  0029              ;# 77 "D:\WORK\Project\Github\Holtel-MCU\Code\HT66FM5440\NFIN_TEST\NFIN_TEST.c" 1
"File: NFIN_TEST.c   Assembler  Version HGASM0202      Page 17

  77  0029              	ERRMESSAGE 'the value 16000of the argument exceeds the maxinum 263690'
  77  0029              	ENDIF
  77  0029              ;# 77 "D:\WORK\Project\Github\Holtel-MCU\Code\HT66FM5440\NFIN_TEST\NFIN_TEST.c" 1
  77  0029              	IF 16000<0
  77  0029              ;# 77 "D:\WORK\Project\Github\Holtel-MCU\Code\HT66FM5440\NFIN_TEST\NFIN_TEST.c" 1
  77  0029              	ERRMESSAGE 'the value 16000 of the argument exceeds the mininum 0'
  77  0029              	ENDIF
  77  0029              ;# 77 "D:\WORK\Project\Github\Holtel-MCU\Code\HT66FM5440\NFIN_TEST\NFIN_TEST.c" 1
  77  0029              	IF 16000==0
  77  0029              ;# 77 "D:\WORK\Project\Github\Holtel-MCU\Code\HT66FM5440\NFIN_TEST\NFIN_TEST.c" 1
  77  0029              	JMP $
  77  0029              	ENDIF
  77  0029              ;# 77 "D:\WORK\Project\Github\Holtel-MCU\Code\HT66FM5440\NFIN_TEST\NFIN_TEST.c" 1
  77  0029              	IF 16000==1
  77  0029              ;# 77 "D:\WORK\Project\Github\Holtel-MCU\Code\HT66FM5440\NFIN_TEST\NFIN_TEST.c" 1
  77  0029              	NOP
  77  0029              	ENDIF
  77  0029              ;# 77 "D:\WORK\Project\Github\Holtel-MCU\Code\HT66FM5440\NFIN_TEST\NFIN_TEST.c" 1
  77  0029              	IF 16000==2
  77  0029              ;# 77 "D:\WORK\Project\Github\Holtel-MCU\Code\HT66FM5440\NFIN_TEST\NFIN_TEST.c" 1
  77  0029              	NOP
  77  0029              ;# 77 "D:\WORK\Project\Github\Holtel-MCU\Code\HT66FM5440\NFIN_TEST\NFIN_TEST.c" 1
  77  0029              	NOP
  77  0029              	ENDIF
  77  0029              ;# 77 "D:\WORK\Project\Github\Holtel-MCU\Code\HT66FM5440\NFIN_TEST\NFIN_TEST.c" 1
  77  0029              	IF 16000==3
  77  0029              ;# 77 "D:\WORK\Project\Github\Holtel-MCU\Code\HT66FM5440\NFIN_TEST\NFIN_TEST.c" 1
  77  0029              	NOP
  77  0029              ;# 77 "D:\WORK\Project\Github\Holtel-MCU\Code\HT66FM5440\NFIN_TEST\NFIN_TEST.c" 1
  77  0029              	NOP
  77  0029              ;# 77 "D:\WORK\Project\Github\Holtel-MCU\Code\HT66FM5440\NFIN_TEST\NFIN_TEST.c" 1
  77  0029              	NOP
  77  0029              	ENDIF
  77  0029              ;# 77 "D:\WORK\Project\Github\Holtel-MCU\Code\HT66FM5440\NFIN_TEST\NFIN_TEST.c" 1
  77  0029              	IF (16000<8) AND (16000>3)
  77  0029              ;# 77 "D:\WORK\Project\Github\Holtel-MCU\Code\HT66FM5440\NFIN_TEST\NFIN_TEST.c" 1
  77  0029              	CALL __DELAY3 + 7 -16000
  77  0029              	ENDIF
  77  0029              ;# 77 "D:\WORK\Project\Github\Holtel-MCU\Code\HT66FM5440\NFIN_TEST\NFIN_TEST.c" 1
  77  0029              	IF (16000< 0404h) AND (16000>7)
  77  0029              ;# 77 "D:\WORK\Project\Github\Holtel-MCU\Code\HT66FM5440\NFIN_TEST\NFIN_TEST.c" 1
  77  0029              	MOV A,16000/4-1
  77  0029              ;# 77 "D:\WORK\Project\Github\Holtel-MCU\Code\HT66FM5440\NFIN_TEST\NFIN_TEST.c" 1
  77  0029              	CALL __DELAYX3 + 3 -(16000 MOD 4)
  77  0029              	ENDIF
  77  0029              ;# 77 "D:\WORK\Project\Github\Holtel-MCU\Code\HT66FM5440\NFIN_TEST\NFIN_TEST.c" 1
  77  0029              	IF (16000< 0x40B) AND (16000> 0403h)
  77  0029              ;# 77 "D:\WORK\Project\Github\Holtel-MCU\Code\HT66FM5440\NFIN_TEST\NFIN_TEST.c" 1
  77  0029              	MOV A,0 
  77  0029              ;# 77 "D:\WORK\Project\Github\Holtel-MCU\Code\HT66FM5440\NFIN_TEST\NFIN_TEST.c" 1
  77  0029              	CALL __DELAYX6 + 0x40a -16000
  77  0029              	ENDIF
  77  0029              ;# 77 "D:\WORK\Project\Github\Holtel-MCU\Code\HT66FM5440\NFIN_TEST\NFIN_TEST.c" 1
  77  0029              	IF (16000 >= 0x40b) AND ((((16000-9)%0402h)/4+1)>256)
  77  0029              ;# 77 "D:\WORK\Project\Github\Holtel-MCU\Code\HT66FM5440\NFIN_TEST\NFIN_TEST.c" 1
  77  0029              	MOV A,(16000-9)/0402h
  77  0029              ;# 77 "D:\WORK\Project\Github\Holtel-MCU\Code\HT66FM5440\NFIN_TEST\NFIN_TEST.c" 1
  77  0029              	MOV _builtin_holtek_delay_2,A
  77  0029              ;# 77 "D:\WORK\Project\Github\Holtel-MCU\Code\HT66FM5440\NFIN_TEST\NFIN_TEST.c" 1
  77  0029              	MOV A,0
"File: NFIN_TEST.c   Assembler  Version HGASM0202      Page 18

  77  0029              ;# 77 "D:\WORK\Project\Github\Holtel-MCU\Code\HT66FM5440\NFIN_TEST\NFIN_TEST.c" 1
  77  0029              	CALL __DELAYY5 +5- (((16000-9)%0402h)%6)
  77  0029              	ENDIF
  77  0029              ;# 77 "D:\WORK\Project\Github\Holtel-MCU\Code\HT66FM5440\NFIN_TEST\NFIN_TEST.c" 1
  77  0029              	IF (16000 >= 0x40b) AND ((((16000-9)%0402h)/4+1)<=256)
  77  0029              ;# 77 "D:\WORK\Project\Github\Holtel-MCU\Code\HT66FM5440\NFIN_TEST\NFIN_TEST.c" 1
  77  0029  0F0F        	MOV A,(16000-9)/0402h
  77  002A              ;# 77 "D:\WORK\Project\Github\Holtel-MCU\Code\HT66FM5440\NFIN_TEST\NFIN_TEST.c" 1
  77  002A  0080     E  	MOV _builtin_holtek_delay_2,A
  77  002B              ;# 77 "D:\WORK\Project\Github\Holtel-MCU\Code\HT66FM5440\NFIN_TEST\NFIN_TEST.c" 1
  77  002B  0F97        	MOV A,((16000-9)%0402h)/4+1
  77  002C              ;# 77 "D:\WORK\Project\Github\Holtel-MCU\Code\HT66FM5440\NFIN_TEST\NFIN_TEST.c" 1
  77  002C  2000     E  	CALL __DELAYY3 +3-(((16000-9)%0402h)%4)
  77  002D              	ENDIF
  78  002D              #line 78 "D:\WORK\Project\Github\Holtel-MCU\Code\HT66FM5440\NFIN_TEST\NFIN_TEST.c"
  78  002D  3323        	set [35].6
  78  002E  1780     E  	sdz ra
  78  002F  2800     R  	jmp _L53
  81  0030              #line 81 "D:\WORK\Project\Github\Holtel-MCU\Code\HT66FM5440\NFIN_TEST\NFIN_TEST.c"
  81  0030  0700     R  	mov a,_iph[0]
  81  0031  0080     E  	mov _mul16x16_2[0],a
  81  0032  0700     R  	mov a,_iph[1]
  81  0033  0080     E  	mov _mul16x16_2[1],a
  81  0034  0F64        	mov a,100
  81  0035  0080     E  	mov _mul16x16_2[2],a
  81  0036  1F00     E  	clr _mul16x16_2[3]
  81  0037  2000     E  	call _mul16x16
  81  0038  0700     E  	mov a,ra
  81  0039  0080     R  	mov _u32temp0[0],a
  81  003A  0700     E  	mov a,rb
  81  003B  0080     R  	mov _u32temp0[1],a
  81  003C  0700     E  	mov a,rc
  81  003D  0080     R  	mov _u32temp0[2],a
  81  003E  0700     E  	mov a,rd
  81  003F  0080     R  	mov _u32temp0[3],a
  82  0040              #line 82 "D:\WORK\Project\Github\Holtel-MCU\Code\HT66FM5440\NFIN_TEST\NFIN_TEST.c"
  82  0040  0700     R  	mov a,_iph[0]
  82  0041  0300     R  	add a,_ipl[0]
  82  0042  0080     E  	mov _div32_16_2[8],a
  82  0043  0700     R  	mov a,_iph[1]
  82  0044  1300     R  	adc a,_ipl[1]
  82  0045  0080     E  	mov _div32_16_2[9],a
  82  0046  0700     E  	mov a,ra
  82  0047  0080     E  	mov _div32_16_2[4],a
  82  0048  0700     E  	mov a,rb
  82  0049  0080     E  	mov _div32_16_2[5],a
  82  004A  0700     E  	mov a,rc
  82  004B  0080     E  	mov _div32_16_2[6],a
  82  004C  0700     E  	mov a,rd
  82  004D  0080     E  	mov _div32_16_2[7],a
  82  004E  0F00     R  	mov a,low offset _u16temp0
  82  004F  0080     E  	mov _div32_16_2[2],a
  82  0050  0F00     R  	mov a,high offset _u16temp0
  82  0051  0080     E  	mov _div32_16_2[3],a
  82  0052  0F00     R  	mov a,low offset _u32temp
  82  0053  0080     E  	mov _div32_16_2[0],a
  82  0054  0F00     R  	mov a,high offset _u32temp
  82  0055  0080     E  	mov _div32_16_2[1],a
  82  0056  2000     E  	call _div32_16
  83  0057              #line 83 "D:\WORK\Project\Github\Holtel-MCU\Code\HT66FM5440\NFIN_TEST\NFIN_TEST.c"
"File: NFIN_TEST.c   Assembler  Version HGASM0202      Page 19

  83  0057  0700     R  	mov a,_u32temp[0]
  83  0058  0080     E  	mov ra,a
  83  0059  0700     E  	mov a,ra
  83  005A  0080     R  	mov _duty[0],a
  84  005B              #line 84 "D:\WORK\Project\Github\Holtel-MCU\Code\HT66FM5440\NFIN_TEST\NFIN_TEST.c"
  84  005B  0700     E  	mov a,ra
  84  005C  0080     R  	mov _byte2str10_2[2],a
  84  005D  0F00     R  	mov a,low offset _txbuff
  84  005E  0080     R  	mov _byte2str10_2[0],a
  84  005F  0F00     R  	mov a,high offset _txbuff
  84  0060  0080     R  	mov _byte2str10_2[1],a
  84  0061  2000     R  	call _byte2str10
  85  0062              #line 85 "D:\WORK\Project\Github\Holtel-MCU\Code\HT66FM5440\NFIN_TEST\NFIN_TEST.c"
  85  0062  0F3A        	mov a,58
  85  0063  0080     R  	mov _txbuff[3],a
  86  0064              #line 86 "D:\WORK\Project\Github\Holtel-MCU\Code\HT66FM5440\NFIN_TEST\NFIN_TEST.c"
  86  0064  0700     R  	mov a,_iph[0]
  86  0065  0080     R  	mov _int2str10_2[2],a
  86  0066  0700     R  	mov a,_iph[1]
  86  0067  0080     R  	mov _int2str10_2[3],a
  86  0068  0F00     R  	mov a,low (offset _txbuff+4)
  86  0069  0080     R  	mov _int2str10_2[0],a
  86  006A  0F00     R  	mov a,high (offset _txbuff+4)
  86  006B  0080     R  	mov _int2str10_2[1],a
  86  006C  2000     R  	call _int2str10
  87  006D              #line 87 "D:\WORK\Project\Github\Holtel-MCU\Code\HT66FM5440\NFIN_TEST\NFIN_TEST.c"
  87  006D  0F3A        	mov a,58
  87  006E  0080     R  	mov _txbuff[9],a
  88  006F              #line 88 "D:\WORK\Project\Github\Holtel-MCU\Code\HT66FM5440\NFIN_TEST\NFIN_TEST.c"
  88  006F  0700     R  	mov a,_ipl[0]
  88  0070  0080     R  	mov _int2str10_2[2],a
  88  0071  0700     R  	mov a,_ipl[1]
  88  0072  0080     R  	mov _int2str10_2[3],a
  88  0073  0F00     R  	mov a,low (offset _txbuff+10)
  88  0074  0080     R  	mov _int2str10_2[0],a
  88  0075  0F00     R  	mov a,high (offset _txbuff+10)
  88  0076  0080     R  	mov _int2str10_2[1],a
  88  0077  2000     R  	call _int2str10
  89  0078              #line 89 "D:\WORK\Project\Github\Holtel-MCU\Code\HT66FM5440\NFIN_TEST\NFIN_TEST.c"
  89  0078  0F0D        	mov a,13
  89  0079  0080     R  	mov _txbuff[15],a
  90  007A              #line 90 "D:\WORK\Project\Github\Holtel-MCU\Code\HT66FM5440\NFIN_TEST\NFIN_TEST.c"
  90  007A  0F0A        	mov a,10
  90  007B  0080     R  	mov _txbuff[16],a
  91  007C              #line 91 "D:\WORK\Project\Github\Holtel-MCU\Code\HT66FM5440\NFIN_TEST\NFIN_TEST.c"
  91  007C  0F11        	mov a,17
  91  007D  0080     R  	mov _print_string_2[2],a
  91  007E  0F00     R  	mov a,low offset _txbuff
  91  007F  0080     R  	mov _print_string_2[0],a
  91  0080  0F00     R  	mov a,high offset _txbuff
  91  0081  0080     R  	mov _print_string_2[1],a
  91  0082  2000     R  	call _print_string
  91  0083  0F02        	mov a,2
  91  0084  0080     E  	mov ra,a
  91  0085              _L55:
  94  0085              #line 94 "D:\WORK\Project\Github\Holtel-MCU\Code\HT66FM5440\NFIN_TEST\NFIN_TEST.c"
  94  0085              ;# 94 "D:\WORK\Project\Github\Holtel-MCU\Code\HT66FM5440\NFIN_TEST\NFIN_TEST.c" 1
  94  0085              	IF 4800>263690
  94  0085              ;# 94 "D:\WORK\Project\Github\Holtel-MCU\Code\HT66FM5440\NFIN_TEST\NFIN_TEST.c" 1
  94  0085              	ERRMESSAGE 'the value 4800of the argument exceeds the maxinum 263690'
"File: NFIN_TEST.c   Assembler  Version HGASM0202      Page 20

  94  0085              	ENDIF
  94  0085              ;# 94 "D:\WORK\Project\Github\Holtel-MCU\Code\HT66FM5440\NFIN_TEST\NFIN_TEST.c" 1
  94  0085              	IF 4800<0
  94  0085              ;# 94 "D:\WORK\Project\Github\Holtel-MCU\Code\HT66FM5440\NFIN_TEST\NFIN_TEST.c" 1
  94  0085              	ERRMESSAGE 'the value 4800 of the argument exceeds the mininum 0'
  94  0085              	ENDIF
  94  0085              ;# 94 "D:\WORK\Project\Github\Holtel-MCU\Code\HT66FM5440\NFIN_TEST\NFIN_TEST.c" 1
  94  0085              	IF 4800==0
  94  0085              ;# 94 "D:\WORK\Project\Github\Holtel-MCU\Code\HT66FM5440\NFIN_TEST\NFIN_TEST.c" 1
  94  0085              	JMP $
  94  0085              	ENDIF
  94  0085              ;# 94 "D:\WORK\Project\Github\Holtel-MCU\Code\HT66FM5440\NFIN_TEST\NFIN_TEST.c" 1
  94  0085              	IF 4800==1
  94  0085              ;# 94 "D:\WORK\Project\Github\Holtel-MCU\Code\HT66FM5440\NFIN_TEST\NFIN_TEST.c" 1
  94  0085              	NOP
  94  0085              	ENDIF
  94  0085              ;# 94 "D:\WORK\Project\Github\Holtel-MCU\Code\HT66FM5440\NFIN_TEST\NFIN_TEST.c" 1
  94  0085              	IF 4800==2
  94  0085              ;# 94 "D:\WORK\Project\Github\Holtel-MCU\Code\HT66FM5440\NFIN_TEST\NFIN_TEST.c" 1
  94  0085              	NOP
  94  0085              ;# 94 "D:\WORK\Project\Github\Holtel-MCU\Code\HT66FM5440\NFIN_TEST\NFIN_TEST.c" 1
  94  0085              	NOP
  94  0085              	ENDIF
  94  0085              ;# 94 "D:\WORK\Project\Github\Holtel-MCU\Code\HT66FM5440\NFIN_TEST\NFIN_TEST.c" 1
  94  0085              	IF 4800==3
  94  0085              ;# 94 "D:\WORK\Project\Github\Holtel-MCU\Code\HT66FM5440\NFIN_TEST\NFIN_TEST.c" 1
  94  0085              	NOP
  94  0085              ;# 94 "D:\WORK\Project\Github\Holtel-MCU\Code\HT66FM5440\NFIN_TEST\NFIN_TEST.c" 1
  94  0085              	NOP
  94  0085              ;# 94 "D:\WORK\Project\Github\Holtel-MCU\Code\HT66FM5440\NFIN_TEST\NFIN_TEST.c" 1
  94  0085              	NOP
  94  0085              	ENDIF
  94  0085              ;# 94 "D:\WORK\Project\Github\Holtel-MCU\Code\HT66FM5440\NFIN_TEST\NFIN_TEST.c" 1
  94  0085              	IF (4800<8) AND (4800>3)
  94  0085              ;# 94 "D:\WORK\Project\Github\Holtel-MCU\Code\HT66FM5440\NFIN_TEST\NFIN_TEST.c" 1
  94  0085              	CALL __DELAY3 + 7 -4800
  94  0085              	ENDIF
  94  0085              ;# 94 "D:\WORK\Project\Github\Holtel-MCU\Code\HT66FM5440\NFIN_TEST\NFIN_TEST.c" 1
  94  0085              	IF (4800< 0404h) AND (4800>7)
  94  0085              ;# 94 "D:\WORK\Project\Github\Holtel-MCU\Code\HT66FM5440\NFIN_TEST\NFIN_TEST.c" 1
  94  0085              	MOV A,4800/4-1
  94  0085              ;# 94 "D:\WORK\Project\Github\Holtel-MCU\Code\HT66FM5440\NFIN_TEST\NFIN_TEST.c" 1
  94  0085              	CALL __DELAYX3 + 3 -(4800 MOD 4)
  94  0085              	ENDIF
  94  0085              ;# 94 "D:\WORK\Project\Github\Holtel-MCU\Code\HT66FM5440\NFIN_TEST\NFIN_TEST.c" 1
  94  0085              	IF (4800< 0x40B) AND (4800> 0403h)
  94  0085              ;# 94 "D:\WORK\Project\Github\Holtel-MCU\Code\HT66FM5440\NFIN_TEST\NFIN_TEST.c" 1
  94  0085              	MOV A,0 
  94  0085              ;# 94 "D:\WORK\Project\Github\Holtel-MCU\Code\HT66FM5440\NFIN_TEST\NFIN_TEST.c" 1
  94  0085              	CALL __DELAYX6 + 0x40a -4800
  94  0085              	ENDIF
  94  0085              ;# 94 "D:\WORK\Project\Github\Holtel-MCU\Code\HT66FM5440\NFIN_TEST\NFIN_TEST.c" 1
  94  0085              	IF (4800 >= 0x40b) AND ((((4800-9)%0402h)/4+1)>256)
  94  0085              ;# 94 "D:\WORK\Project\Github\Holtel-MCU\Code\HT66FM5440\NFIN_TEST\NFIN_TEST.c" 1
  94  0085              	MOV A,(4800-9)/0402h
  94  0085              ;# 94 "D:\WORK\Project\Github\Holtel-MCU\Code\HT66FM5440\NFIN_TEST\NFIN_TEST.c" 1
  94  0085              	MOV _builtin_holtek_delay_2,A
  94  0085              ;# 94 "D:\WORK\Project\Github\Holtel-MCU\Code\HT66FM5440\NFIN_TEST\NFIN_TEST.c" 1
  94  0085              	MOV A,0
  94  0085              ;# 94 "D:\WORK\Project\Github\Holtel-MCU\Code\HT66FM5440\NFIN_TEST\NFIN_TEST.c" 1
"File: NFIN_TEST.c   Assembler  Version HGASM0202      Page 21

  94  0085              	CALL __DELAYY5 +5- (((4800-9)%0402h)%6)
  94  0085              	ENDIF
  94  0085              ;# 94 "D:\WORK\Project\Github\Holtel-MCU\Code\HT66FM5440\NFIN_TEST\NFIN_TEST.c" 1
  94  0085              	IF (4800 >= 0x40b) AND ((((4800-9)%0402h)/4+1)<=256)
  94  0085              ;# 94 "D:\WORK\Project\Github\Holtel-MCU\Code\HT66FM5440\NFIN_TEST\NFIN_TEST.c" 1
  94  0085  0F04        	MOV A,(4800-9)/0402h
  94  0086              ;# 94 "D:\WORK\Project\Github\Holtel-MCU\Code\HT66FM5440\NFIN_TEST\NFIN_TEST.c" 1
  94  0086  0080     E  	MOV _builtin_holtek_delay_2,A
  94  0087              ;# 94 "D:\WORK\Project\Github\Holtel-MCU\Code\HT66FM5440\NFIN_TEST\NFIN_TEST.c" 1
  94  0087  0FAC        	MOV A,((4800-9)%0402h)/4+1
  94  0088              ;# 94 "D:\WORK\Project\Github\Holtel-MCU\Code\HT66FM5440\NFIN_TEST\NFIN_TEST.c" 1
  94  0088  2000     E  	CALL __DELAYY3 +3-(((4800-9)%0402h)%4)
  94  0089              	ENDIF
  95  0089              #line 95 "D:\WORK\Project\Github\Holtel-MCU\Code\HT66FM5440\NFIN_TEST\NFIN_TEST.c"
  95  0089  3723        	clr [35].6
  96  008A              #line 96 "D:\WORK\Project\Github\Holtel-MCU\Code\HT66FM5440\NFIN_TEST\NFIN_TEST.c"
  96  008A              ;# 96 "D:\WORK\Project\Github\Holtel-MCU\Code\HT66FM5440\NFIN_TEST\NFIN_TEST.c" 1
  96  008A              	IF 16000>263690
  96  008A              ;# 96 "D:\WORK\Project\Github\Holtel-MCU\Code\HT66FM5440\NFIN_TEST\NFIN_TEST.c" 1
  96  008A              	ERRMESSAGE 'the value 16000of the argument exceeds the maxinum 263690'
  96  008A              	ENDIF
  96  008A              ;# 96 "D:\WORK\Project\Github\Holtel-MCU\Code\HT66FM5440\NFIN_TEST\NFIN_TEST.c" 1
  96  008A              	IF 16000<0
  96  008A              ;# 96 "D:\WORK\Project\Github\Holtel-MCU\Code\HT66FM5440\NFIN_TEST\NFIN_TEST.c" 1
  96  008A              	ERRMESSAGE 'the value 16000 of the argument exceeds the mininum 0'
  96  008A              	ENDIF
  96  008A              ;# 96 "D:\WORK\Project\Github\Holtel-MCU\Code\HT66FM5440\NFIN_TEST\NFIN_TEST.c" 1
  96  008A              	IF 16000==0
  96  008A              ;# 96 "D:\WORK\Project\Github\Holtel-MCU\Code\HT66FM5440\NFIN_TEST\NFIN_TEST.c" 1
  96  008A              	JMP $
  96  008A              	ENDIF
  96  008A              ;# 96 "D:\WORK\Project\Github\Holtel-MCU\Code\HT66FM5440\NFIN_TEST\NFIN_TEST.c" 1
  96  008A              	IF 16000==1
  96  008A              ;# 96 "D:\WORK\Project\Github\Holtel-MCU\Code\HT66FM5440\NFIN_TEST\NFIN_TEST.c" 1
  96  008A              	NOP
  96  008A              	ENDIF
  96  008A              ;# 96 "D:\WORK\Project\Github\Holtel-MCU\Code\HT66FM5440\NFIN_TEST\NFIN_TEST.c" 1
  96  008A              	IF 16000==2
  96  008A              ;# 96 "D:\WORK\Project\Github\Holtel-MCU\Code\HT66FM5440\NFIN_TEST\NFIN_TEST.c" 1
  96  008A              	NOP
  96  008A              ;# 96 "D:\WORK\Project\Github\Holtel-MCU\Code\HT66FM5440\NFIN_TEST\NFIN_TEST.c" 1
  96  008A              	NOP
  96  008A              	ENDIF
  96  008A              ;# 96 "D:\WORK\Project\Github\Holtel-MCU\Code\HT66FM5440\NFIN_TEST\NFIN_TEST.c" 1
  96  008A              	IF 16000==3
  96  008A              ;# 96 "D:\WORK\Project\Github\Holtel-MCU\Code\HT66FM5440\NFIN_TEST\NFIN_TEST.c" 1
  96  008A              	NOP
  96  008A              ;# 96 "D:\WORK\Project\Github\Holtel-MCU\Code\HT66FM5440\NFIN_TEST\NFIN_TEST.c" 1
  96  008A              	NOP
  96  008A              ;# 96 "D:\WORK\Project\Github\Holtel-MCU\Code\HT66FM5440\NFIN_TEST\NFIN_TEST.c" 1
  96  008A              	NOP
  96  008A              	ENDIF
  96  008A              ;# 96 "D:\WORK\Project\Github\Holtel-MCU\Code\HT66FM5440\NFIN_TEST\NFIN_TEST.c" 1
  96  008A              	IF (16000<8) AND (16000>3)
  96  008A              ;# 96 "D:\WORK\Project\Github\Holtel-MCU\Code\HT66FM5440\NFIN_TEST\NFIN_TEST.c" 1
  96  008A              	CALL __DELAY3 + 7 -16000
  96  008A              	ENDIF
  96  008A              ;# 96 "D:\WORK\Project\Github\Holtel-MCU\Code\HT66FM5440\NFIN_TEST\NFIN_TEST.c" 1
  96  008A              	IF (16000< 0404h) AND (16000>7)
  96  008A              ;# 96 "D:\WORK\Project\Github\Holtel-MCU\Code\HT66FM5440\NFIN_TEST\NFIN_TEST.c" 1
"File: NFIN_TEST.c   Assembler  Version HGASM0202      Page 22

  96  008A              	MOV A,16000/4-1
  96  008A              ;# 96 "D:\WORK\Project\Github\Holtel-MCU\Code\HT66FM5440\NFIN_TEST\NFIN_TEST.c" 1
  96  008A              	CALL __DELAYX3 + 3 -(16000 MOD 4)
  96  008A              	ENDIF
  96  008A              ;# 96 "D:\WORK\Project\Github\Holtel-MCU\Code\HT66FM5440\NFIN_TEST\NFIN_TEST.c" 1
  96  008A              	IF (16000< 0x40B) AND (16000> 0403h)
  96  008A              ;# 96 "D:\WORK\Project\Github\Holtel-MCU\Code\HT66FM5440\NFIN_TEST\NFIN_TEST.c" 1
  96  008A              	MOV A,0 
  96  008A              ;# 96 "D:\WORK\Project\Github\Holtel-MCU\Code\HT66FM5440\NFIN_TEST\NFIN_TEST.c" 1
  96  008A              	CALL __DELAYX6 + 0x40a -16000
  96  008A              	ENDIF
  96  008A              ;# 96 "D:\WORK\Project\Github\Holtel-MCU\Code\HT66FM5440\NFIN_TEST\NFIN_TEST.c" 1
  96  008A              	IF (16000 >= 0x40b) AND ((((16000-9)%0402h)/4+1)>256)
  96  008A              ;# 96 "D:\WORK\Project\Github\Holtel-MCU\Code\HT66FM5440\NFIN_TEST\NFIN_TEST.c" 1
  96  008A              	MOV A,(16000-9)/0402h
  96  008A              ;# 96 "D:\WORK\Project\Github\Holtel-MCU\Code\HT66FM5440\NFIN_TEST\NFIN_TEST.c" 1
  96  008A              	MOV _builtin_holtek_delay_2,A
  96  008A              ;# 96 "D:\WORK\Project\Github\Holtel-MCU\Code\HT66FM5440\NFIN_TEST\NFIN_TEST.c" 1
  96  008A              	MOV A,0
  96  008A              ;# 96 "D:\WORK\Project\Github\Holtel-MCU\Code\HT66FM5440\NFIN_TEST\NFIN_TEST.c" 1
  96  008A              	CALL __DELAYY5 +5- (((16000-9)%0402h)%6)
  96  008A              	ENDIF
  96  008A              ;# 96 "D:\WORK\Project\Github\Holtel-MCU\Code\HT66FM5440\NFIN_TEST\NFIN_TEST.c" 1
  96  008A              	IF (16000 >= 0x40b) AND ((((16000-9)%0402h)/4+1)<=256)
  96  008A              ;# 96 "D:\WORK\Project\Github\Holtel-MCU\Code\HT66FM5440\NFIN_TEST\NFIN_TEST.c" 1
  96  008A  0F0F        	MOV A,(16000-9)/0402h
  96  008B              ;# 96 "D:\WORK\Project\Github\Holtel-MCU\Code\HT66FM5440\NFIN_TEST\NFIN_TEST.c" 1
  96  008B  0080     E  	MOV _builtin_holtek_delay_2,A
  96  008C              ;# 96 "D:\WORK\Project\Github\Holtel-MCU\Code\HT66FM5440\NFIN_TEST\NFIN_TEST.c" 1
  96  008C  0F97        	MOV A,((16000-9)%0402h)/4+1
  96  008D              ;# 96 "D:\WORK\Project\Github\Holtel-MCU\Code\HT66FM5440\NFIN_TEST\NFIN_TEST.c" 1
  96  008D  2000     E  	CALL __DELAYY3 +3-(((16000-9)%0402h)%4)
  96  008E              	ENDIF
  97  008E              #line 97 "D:\WORK\Project\Github\Holtel-MCU\Code\HT66FM5440\NFIN_TEST\NFIN_TEST.c"
  97  008E  3323        	set [35].6
  97  008F  1780     E  	sdz ra
  97  0090  2800     R  	jmp _L55
 100  0091              #line 100 "D:\WORK\Project\Github\Holtel-MCU\Code\HT66FM5440\NFIN_TEST\NFIN_TEST.c"
 100  0091  0700     R  	mov a,_iph[0]
 100  0092  0080     E  	mov _mul16x16_2[0],a
 100  0093  0700     R  	mov a,_iph[1]
 100  0094  0080     E  	mov _mul16x16_2[1],a
 100  0095  0F64        	mov a,100
 100  0096  0080     E  	mov _mul16x16_2[2],a
 100  0097  1F00     E  	clr _mul16x16_2[3]
 100  0098  2000     E  	call _mul16x16
 100  0099  0700     E  	mov a,ra
 100  009A  0080     R  	mov _u32temp0[0],a
 100  009B  0700     E  	mov a,rb
 100  009C  0080     R  	mov _u32temp0[1],a
 100  009D  0700     E  	mov a,rc
 100  009E  0080     R  	mov _u32temp0[2],a
 100  009F  0700     E  	mov a,rd
 100  00A0  0080     R  	mov _u32temp0[3],a
 101  00A1              #line 101 "D:\WORK\Project\Github\Holtel-MCU\Code\HT66FM5440\NFIN_TEST\NFIN_TEST.c"
 101  00A1  0700     R  	mov a,_iph[0]
 101  00A2  0300     R  	add a,_ipl[0]
 101  00A3  0080     E  	mov _div32_16_2[8],a
 101  00A4  0700     R  	mov a,_iph[1]
 101  00A5  1300     R  	adc a,_ipl[1]
"File: NFIN_TEST.c   Assembler  Version HGASM0202      Page 23

 101  00A6  0080     E  	mov _div32_16_2[9],a
 101  00A7  0700     E  	mov a,ra
 101  00A8  0080     E  	mov _div32_16_2[4],a
 101  00A9  0700     E  	mov a,rb
 101  00AA  0080     E  	mov _div32_16_2[5],a
 101  00AB  0700     E  	mov a,rc
 101  00AC  0080     E  	mov _div32_16_2[6],a
 101  00AD  0700     E  	mov a,rd
 101  00AE  0080     E  	mov _div32_16_2[7],a
 101  00AF  0F00     R  	mov a,low offset _u16temp0
 101  00B0  0080     E  	mov _div32_16_2[2],a
 101  00B1  0F00     R  	mov a,high offset _u16temp0
 101  00B2  0080     E  	mov _div32_16_2[3],a
 101  00B3  0F00     R  	mov a,low offset _u32temp
 101  00B4  0080     E  	mov _div32_16_2[0],a
 101  00B5  0F00     R  	mov a,high offset _u32temp
 101  00B6  0080     E  	mov _div32_16_2[1],a
 101  00B7  2000     E  	call _div32_16
 102  00B8              #line 102 "D:\WORK\Project\Github\Holtel-MCU\Code\HT66FM5440\NFIN_TEST\NFIN_TEST.c"
 102  00B8  0700     R  	mov a,_u32temp[0]
 102  00B9  0080     E  	mov ra,a
 102  00BA  0700     E  	mov a,ra
 102  00BB  0080     R  	mov _duty[0],a
 103  00BC              #line 103 "D:\WORK\Project\Github\Holtel-MCU\Code\HT66FM5440\NFIN_TEST\NFIN_TEST.c"
 103  00BC  0700     E  	mov a,ra
 103  00BD  0080     R  	mov _byte2str10_2[2],a
 103  00BE  0F00     R  	mov a,low offset _txbuff
 103  00BF  0080     R  	mov _byte2str10_2[0],a
 103  00C0  0F00     R  	mov a,high offset _txbuff
 103  00C1  0080     R  	mov _byte2str10_2[1],a
 103  00C2  2000     R  	call _byte2str10
 104  00C3              #line 104 "D:\WORK\Project\Github\Holtel-MCU\Code\HT66FM5440\NFIN_TEST\NFIN_TEST.c"
 104  00C3  0F3A        	mov a,58
 104  00C4  0080     R  	mov _txbuff[3],a
 105  00C5              #line 105 "D:\WORK\Project\Github\Holtel-MCU\Code\HT66FM5440\NFIN_TEST\NFIN_TEST.c"
 105  00C5  0700     R  	mov a,_iph[0]
 105  00C6  0080     R  	mov _int2str10_2[2],a
 105  00C7  0700     R  	mov a,_iph[1]
 105  00C8  0080     R  	mov _int2str10_2[3],a
 105  00C9  0F00     R  	mov a,low (offset _txbuff+4)
 105  00CA  0080     R  	mov _int2str10_2[0],a
 105  00CB  0F00     R  	mov a,high (offset _txbuff+4)
 105  00CC  0080     R  	mov _int2str10_2[1],a
 105  00CD  2000     R  	call _int2str10
 106  00CE              #line 106 "D:\WORK\Project\Github\Holtel-MCU\Code\HT66FM5440\NFIN_TEST\NFIN_TEST.c"
 106  00CE  0F3A        	mov a,58
 106  00CF  0080     R  	mov _txbuff[9],a
 107  00D0              #line 107 "D:\WORK\Project\Github\Holtel-MCU\Code\HT66FM5440\NFIN_TEST\NFIN_TEST.c"
 107  00D0  0700     R  	mov a,_ipl[0]
 107  00D1  0080     R  	mov _int2str10_2[2],a
 107  00D2  0700     R  	mov a,_ipl[1]
 107  00D3  0080     R  	mov _int2str10_2[3],a
 107  00D4  0F00     R  	mov a,low (offset _txbuff+10)
 107  00D5  0080     R  	mov _int2str10_2[0],a
 107  00D6  0F00     R  	mov a,high (offset _txbuff+10)
 107  00D7  0080     R  	mov _int2str10_2[1],a
 107  00D8  2000     R  	call _int2str10
 108  00D9              #line 108 "D:\WORK\Project\Github\Holtel-MCU\Code\HT66FM5440\NFIN_TEST\NFIN_TEST.c"
 108  00D9  0F0D        	mov a,13
 108  00DA  0080     R  	mov _txbuff[15],a
"File: NFIN_TEST.c   Assembler  Version HGASM0202      Page 24

 109  00DB              #line 109 "D:\WORK\Project\Github\Holtel-MCU\Code\HT66FM5440\NFIN_TEST\NFIN_TEST.c"
 109  00DB  0F0A        	mov a,10
 109  00DC  0080     R  	mov _txbuff[16],a
 110  00DD              #line 110 "D:\WORK\Project\Github\Holtel-MCU\Code\HT66FM5440\NFIN_TEST\NFIN_TEST.c"
 110  00DD  0F11        	mov a,17
 110  00DE  0080     R  	mov _print_string_2[2],a
 110  00DF  0F00     R  	mov a,low offset _txbuff
 110  00E0  0080     R  	mov _print_string_2[0],a
 110  00E1  0F00     R  	mov a,high offset _txbuff
 110  00E2  0080     R  	mov _print_string_2[1],a
 110  00E3  2000     R  	call _print_string
 110  00E4  2800     R  	jmp _L51
 110  00E5  2800     R  	jmp $
 110  00E6              _main endp
 110  00E6              
 110  00E6              @dummy endp
 110  00E6              
 110  00E6              #line 110 "D:\WORK\Project\Github\Holtel-MCU\Code\HT66FM5440\NFIN_TEST\NFIN_TEST.c"
 110  00E6              #pragma debug scope 1 1
 110  00E6              public _duty
 110  0000              @HCCINIT	.section 'data'
  39  0000              #line 39 "D:\WORK\Project\Github\Holtel-MCU\Code\HT66FM5440\NFIN_TEST\NFIN_TEST.c"
  39  0000              @HCCINIT_duty .section 'data'
  39  0000              _duty label byte
  39  0000              #pragma debug variable 8 1 _duty "duty"
  39  0000              	db 0
  39  0000              @ROMDATA_BASE .section inpage 'code'
  39  0000              	db 0
  39  0001              @HCCINIT_duty .section 'data'
  38  0001              #line 38 "D:\WORK\Project\Github\Holtel-MCU\Code\HT66FM5440\NFIN_TEST\NFIN_TEST.c"
  38  0001              public _u32temp0
  38  0000              @HCCINIT0_u32temp0 .section 'data'
  38  0000  0004[       _u32temp0	db 4 dup(0)
            00
            ]
  38  0004              #pragma debug variable 14 1 _u32temp0 "u32temp0"
  38  0004              
  38  0000              @HCCINIT .section 'data'
  37  0000              #line 37 "D:\WORK\Project\Github\Holtel-MCU\Code\HT66FM5440\NFIN_TEST\NFIN_TEST.c"
  37  0000              public _u16temp1
  37  0000              @HCCINIT0_u16temp1 .section 'data'
  37  0000  0002[       _u16temp1	db 2 dup(0)
            00
            ]
  37  0002              #pragma debug variable 12 1 _u16temp1 "u16temp1"
  37  0002              
  37  0000              @HCCINIT .section 'data'
  37  0000              #line 37 "D:\WORK\Project\Github\Holtel-MCU\Code\HT66FM5440\NFIN_TEST\NFIN_TEST.c"
  37  0000              public _u16temp0
  37  0000              @HCCINIT0_u16temp0 .section 'data'
  37  0000  0002[       _u16temp0	db 2 dup(0)
            00
            ]
  37  0002              #pragma debug variable 12 1 _u16temp0 "u16temp0"
  37  0002              
  37  0000              @HCCINIT .section 'data'
  36  0000              #line 36 "D:\WORK\Project\Github\Holtel-MCU\Code\HT66FM5440\NFIN_TEST\NFIN_TEST.c"
  36  0000              public _u32temp
  36  0000              @HCCINIT0_u32temp .section 'data'
  36  0000  0004[       _u32temp	db 4 dup(0)
"File: NFIN_TEST.c   Assembler  Version HGASM0202      Page 25

            00
            ]
  36  0004              #pragma debug variable 14 1 _u32temp "u32temp"
  36  0004              
  36  0000              @HCCINIT .section 'data'
  36  0000              public _txcnt
  34  0000              #line 34 "D:\WORK\Project\Github\Holtel-MCU\Code\HT66FM5440\NFIN_TEST\NFIN_TEST.c"
  34  0000              @HCCINIT_txcnt .section 'data'
  34  0000              _txcnt label byte
  34  0000              #pragma debug variable 8 1 _txcnt "txcnt"
  34  0000              	db 0
  34  0001              @ROMDATA_BASE .section inpage 'code'
  34  0001              	db 0
  34  0001              @HCCINIT_txcnt .section 'data'
  34  0001              public _rxcnt
  34  0001              #line 34 "D:\WORK\Project\Github\Holtel-MCU\Code\HT66FM5440\NFIN_TEST\NFIN_TEST.c"
  34  0000              @HCCINIT_rxcnt .section 'data'
  34  0000              _rxcnt label byte
  34  0000              #pragma debug variable 8 1 _rxcnt "rxcnt"
  34  0000              	db 0
  34  0001              @ROMDATA_BASE .section inpage 'code'
  34  0001              	db 0
  34  0001              @HCCINIT_rxcnt .section 'data'
  33  0001              #line 33 "D:\WORK\Project\Github\Holtel-MCU\Code\HT66FM5440\NFIN_TEST\NFIN_TEST.c"
  33  0001              public _rxbuff
  33  0000              @HCCINIT0_rxbuff .section 'data'
  33  0000  0006[       _rxbuff	db 6 dup(0)
            00
            ]
  33  0006              #pragma debug array 45 7 6 1
  33  0006              #pragma debug array 45 7 6 1
  33  0006              #pragma debug variable 45 1 _rxbuff "rxbuff"
  33  0006              
  33  0000              @HCCINIT .section 'data'
  32  0000              #line 32 "D:\WORK\Project\Github\Holtel-MCU\Code\HT66FM5440\NFIN_TEST\NFIN_TEST.c"
  32  0000              public _txbuff
  32  0000              @HCCINIT0_txbuff .section 'data'
  32  0000  0020[       _txbuff	db 32 dup(0)
            00
            ]
  32  0020              #pragma debug array 46 7 32 1
  32  0020              #pragma debug array 46 7 32 1
  32  0020              #pragma debug variable 46 1 _txbuff "txbuff"
  32  0020              
  32  0000              @HCCINIT .section 'data'
  32  0000              public _bTimeup2
  29  0000              #line 29 "D:\WORK\Project\Github\Holtel-MCU\Code\HT66FM5440\NFIN_TEST\NFIN_TEST.c"
  29  0000              @BITDATASEC .section 'data'
  29  0000  00          _bTimeup2	dbit 0
  29  0001              #pragma debug variable 2 1 _bTimeup2 "bTimeup2"
  29  0001              public _bTimeup1
  29  0001              #line 29 "D:\WORK\Project\Github\Holtel-MCU\Code\HT66FM5440\NFIN_TEST\NFIN_TEST.c"
  29  0001              @BITDATASEC .section 'data'
  29  0000              _bTimeup1	dbit 0
  29  0001              #pragma debug variable 2 1 _bTimeup1 "bTimeup1"
  29  0001              public _cnt2_1ms
  28  0001              #line 28 "D:\WORK\Project\Github\Holtel-MCU\Code\HT66FM5440\NFIN_TEST\NFIN_TEST.c"
  28  0000              @HCCINIT_cnt2_1ms .section 'data'
  28  0000              _cnt2_1ms label byte
  28  0000              #pragma debug variable 12 1 _cnt2_1ms "cnt2_1ms"
"File: NFIN_TEST.c   Assembler  Version HGASM0202      Page 26

  28  0000              	db 0
  28  0002              @ROMDATA_BASE .section inpage 'code'
  28  0002              	db 0
  28  0001              @HCCINIT_cnt2_1ms .section 'data'
  28  0001              	db 0
  28  0002              @ROMDATA_BASE .section inpage 'code'
  28  0002              	db 0
  28  0002              @HCCINIT_cnt2_1ms .section 'data'
  28  0002              public _cnt1_1ms
  28  0002              #line 28 "D:\WORK\Project\Github\Holtel-MCU\Code\HT66FM5440\NFIN_TEST\NFIN_TEST.c"
  28  0000              @HCCINIT_cnt1_1ms .section 'data'
  28  0000              _cnt1_1ms label byte
  28  0000              #pragma debug variable 12 1 _cnt1_1ms "cnt1_1ms"
  28  0000              	db 0
  28  0003              @ROMDATA_BASE .section inpage 'code'
  28  0003              	db 0
  28  0001              @HCCINIT_cnt1_1ms .section 'data'
  28  0001              	db 0
  28  0003              @ROMDATA_BASE .section inpage 'code'
  28  0003              	db 0
  28  0002              @HCCINIT_cnt1_1ms .section 'data'
  28  0002              public _ipl
  25  0002              #line 25 "D:\WORK\Project\Github\Holtel-MCU\Code\HT66FM5440\NFIN_TEST\NFIN_TEST.c"
  25  0000              @HCCINIT_ipl .section 'data'
  25  0000              _ipl label byte
  25  0000              #pragma debug variable 12 1 _ipl "ipl"
  25  0000              	db 0
  25  0004              @ROMDATA_BASE .section inpage 'code'
  25  0004              	db 0
  25  0001              @HCCINIT_ipl .section 'data'
  25  0001              	db 0
  25  0004              @ROMDATA_BASE .section inpage 'code'
  25  0004              	db 0
  25  0002              @HCCINIT_ipl .section 'data'
  25  0002              public _iph
  25  0002              #line 25 "D:\WORK\Project\Github\Holtel-MCU\Code\HT66FM5440\NFIN_TEST\NFIN_TEST.c"
  25  0000              @HCCINIT_iph .section 'data'
  25  0000              _iph label byte
  25  0000              #pragma debug variable 12 1 _iph "iph"
  25  0000              	db 0
  25  0005              @ROMDATA_BASE .section inpage 'code'
  25  0005              	db 0
  25  0001              @HCCINIT_iph .section 'data'
  25  0001              	db 0
  25  0005              @ROMDATA_BASE .section inpage 'code'
  25  0005              	db 0
  25  0002              @HCCINIT_iph .section 'data'
  25  0002              public _cnt_ov
  24  0002              #line 24 "D:\WORK\Project\Github\Holtel-MCU\Code\HT66FM5440\NFIN_TEST\NFIN_TEST.c"
  24  0000              @HCCINIT_cnt_ov .section 'data'
  24  0000              _cnt_ov label byte
  24  0000              #pragma debug variable 8 1 _cnt_ov "cnt_ov"
  24  0000              	db -1
  24  0006              @ROMDATA_BASE .section inpage 'code'
  24  0006              	db -1
  24  0001              @HCCINIT_cnt_ov .section 'data'
  24  0001              #pragma debug struct_end
  24  0001              #pragma debug struct_end
  24  0001              #pragma debug union_end
  24  0001              #pragma debug union_end
"File: NFIN_TEST.c   Assembler  Version HGASM0202      Page 27

  24  0001              #pragma debug variable 48 1 ___intc0 "__intc0" 1
  24  0001              #pragma debug struct_end
  24  0001              #pragma debug struct_end
  24  0001              #pragma debug union_end
  24  0001              #pragma debug union_end
  24  0001              #pragma debug variable 50 1 ___intc2 "__intc2" 1
  24  0001              #pragma debug struct_end
  24  0001              #pragma debug struct_end
  24  0001              #pragma debug union_end
  24  0001              #pragma debug union_end
  24  0001              #pragma debug variable 52 1 ___intc3 "__intc3" 1
  24  0001              #pragma debug struct_end
  24  0001              #pragma debug struct_end
  24  0001              #pragma debug union_end
  24  0001              #pragma debug union_end
  24  0001              #pragma debug variable 54 1 ___mfi4 "__mfi4" 1
  24  0001              #pragma debug struct_end
  24  0001              #pragma debug struct_end
  24  0001              #pragma debug union_end
  24  0001              #pragma debug union_end
  24  0001              #pragma debug variable 56 1 ___mfi7 "__mfi7" 1
  24  0001              #pragma debug struct_end
  24  0001              #pragma debug struct_end
  24  0001              #pragma debug union_end
  24  0001              #pragma debug union_end
  24  0001              #pragma debug variable 58 1 ___pa "__pa" 1
  24  0001              #pragma debug struct_end
  24  0001              #pragma debug struct_end
  24  0001              #pragma debug union_end
  24  0001              #pragma debug union_end
  24  0001              #pragma debug variable 60 1 ___pac "__pac" 1
  24  0001              #pragma debug struct_end
  24  0001              #pragma debug struct_end
  24  0001              #pragma debug union_end
  24  0001              #pragma debug union_end
  24  0001              #pragma debug variable 62 1 ___pbps1 "__pbps1" 1
  24  0001              #pragma debug struct_end
  24  0001              #pragma debug struct_end
  24  0001              #pragma debug union_end
  24  0001              #pragma debug union_end
  24  0001              #pragma debug variable 64 1 ___ptm0c0 "__ptm0c0" 1
  24  0001              #pragma debug struct_end
  24  0001              #pragma debug struct_end
  24  0001              #pragma debug union_end
  24  0001              #pragma debug union_end
  24  0001              #pragma debug variable 66 1 ___ptm0c1 "__ptm0c1" 1
  24  0001              #pragma debug variable 8 1 ___ptm0al "__ptm0al" 1
  24  0001              #pragma debug variable 8 1 ___ptm0ah "__ptm0ah" 1
  24  0001              #pragma debug struct_end
  24  0001              #pragma debug struct_end
  24  0001              #pragma debug union_end
  24  0001              #pragma debug union_end
  24  0001              #pragma debug variable 68 1 ___usr "__usr" 1
  24  0001              #pragma debug struct_end
  24  0001              #pragma debug struct_end
  24  0001              #pragma debug union_end
  24  0001              #pragma debug union_end
  24  0001              #pragma debug variable 70 1 ___ucr1 "__ucr1" 1
  24  0001              #pragma debug struct_end
  24  0001              #pragma debug struct_end
"File: NFIN_TEST.c   Assembler  Version HGASM0202      Page 28

  24  0001              #pragma debug union_end
  24  0001              #pragma debug union_end
  24  0001              #pragma debug variable 72 1 ___ucr2 "__ucr2" 1
  24  0001              #pragma debug struct_end
  24  0001              #pragma debug struct_end
  24  0001              #pragma debug union_end
  24  0001              #pragma debug union_end
  24  0001              #pragma debug variable 74 1 ___brg "__brg" 1
  24  0001              #pragma debug struct_end
  24  0001              #pragma debug struct_end
  24  0001              #pragma debug union_end
  24  0001              #pragma debug union_end
  24  0001              #pragma debug variable 76 1 ___txr_rxr "__txr_rxr" 1
  24  0001              #pragma debug struct_end
  24  0001              #pragma debug struct_end
  24  0001              #pragma debug union_end
  24  0001              #pragma debug union_end
  24  0001              #pragma debug variable 78 1 ___nf_vih "__nf_vih" 1
  24  0001              #pragma debug struct_end
  24  0001              #pragma debug struct_end
  24  0001              #pragma debug union_end
  24  0001              #pragma debug union_end
  24  0001              #pragma debug variable 80 1 ___nf_vil "__nf_vil" 1
  24  0001              #pragma debug struct_end
  24  0001              #pragma debug struct_end
  24  0001              #pragma debug union_end
  24  0001              #pragma debug union_end
  24  0001              #pragma debug variable 82 1 ___tbc "__tbc" 1
  24  0001              #pragma debug struct_end
  24  0001              #pragma debug struct_end
  24  0001              #pragma debug union_end
  24  0001              #pragma debug union_end
  24  0001              #pragma debug variable 84 1 ___ptm0c2 "__ptm0c2" 1
  24  0001              #pragma debug variable 8 1 ___ptm0bl "__ptm0bl" 1
  24  0001              #pragma debug variable 8 1 ___ptm0bh "__ptm0bh" 1
  24  0001              extern r1:byte
  24  0001              extern r2:byte
  24  0001              extern r3:byte
  24  0001              extern r4:byte
  52  0001              #line 52 "D:\WORK\Project\Github\Holtel-MCU\Code\HT66FM5440\NFIN_TEST\NFIN_TEST.c"
  52  0000              @code .section at 0 'code'
  52  0000  2800     R  	jmp _main_startup1
  52  0001              
  52  0001              extern _div8_8_2:byte
  52  0001              extern _div8_8:near
  52  0001              extern _div16_16_2:byte
  52  0001              extern _div16_16:near
  52  0001              extern _strncpy_2:byte
  52  0001              extern _strncpy:near
  52  0001              extern _mul16x16_2:byte
  52  0001              extern _mul16x16:near
  52  0001              extern _div32_16_2:byte
  52  0001              extern _div32_16:near
  52  0001              
  52  0001              ; 
  52  0001              ; Generated by holtek-gcc v3.19, Fri Aug 16 19:04:09 2019
  52  0001              ; Rebuild 115
  52  0001              ; end of file


"File: NFIN_TEST.c   Assembler  Version HGASM0202      Page 29

        0 Errors, 0