"File: Leafblower.c  Assembler  Version HGASM0202      Page 1


   1  0000              ; Generated by holtek-gcc v3.14, Thu Feb 01 14:45:55 2018
   2  0000              ; 
   3  0000              ; Configuration:
   4  0000              ;       with long instruction
   5  0000              ;       Single ROM, Multi-RAM
   6  0000              ;       bits_per_rom_unit:16
   7  0000              ;       with mp1
   8  0000              ;       with tbhp, address(0x9)
   9  0000              ;          Use tabrd-const
  10  0000              ;       
  11  0000              ; SFR address of long-instruction arch:
  12  0000              ;    mp0 = -1,1,0
  13  0000              ;    mp1 = 4,3,2
  14  0000              ;    mp2 = 14,13,12
  15  0000              ;    tbp = 9,7,8
  16  0000              ;    acc = 5
  17  0000              ;    pcl = 6
  18  0000              ;    status = 10
  19  0000              ;    bp = 11
  20  0000              ;    intc = 21
  21  0000              ;       
  22  0000              ;       
  23  0000              ; use 'tabrdc' instead of 'tabrd'
  24  0000              ;       
  25  0000              
  26  0000              #pragma translator "holtek-gcc 4.6.4" "3.14" "build 20130711"
  27  0000              ; Rebuild 10
  28  0000              
  29  0000              ir equ [2]
  30  0000              mp equ [3]
  31  0000              sbp equ [4]
  32  0000              acc equ [5]
  33  0000              bp equ [11]
  34  0000              tblp equ [7]
  35  0000              tbhp equ [9]
  36  0000              status equ [10]
  37  0000              c equ [10].0
  38  0000              ac equ [10].1
  39  0000              z equ [10].2
  40  0000              ov equ [10].3
  41  0000              cz equ [10].6
  42  0000              sc equ [10].7
  43  0000              intc equ [21]
  44  0000              mdu0r0 equ [73h]
  45  0000              mdu0r1 equ [74h]
  46  0000              mdu0ctrl equ [75h]
  47  0000              mduwr0 equ [76h]
  48  0000              mduwr1 equ [77h]
  49  0000              mduwr2 equ [78h]
  50  0000              mduwr3 equ [7ah]
  51  0000              mduwr4 equ [7bh]
  52  0000              mduwr5 equ [7ch]
  53  0000              mduwrctrl equ [7dh]
  54  0000              
  55  0000              extern ra:byte
  56  0000              extern rb:byte
  57  0000              extern rc:byte
  58  0000              extern rd:byte
  59  0000              extern re:byte
"File: Leafblower.ASM  Assembler  Version HGASM0202      Page 2

  60  0000              extern rf:byte
  61  0000              extern rg:byte
  62  0000              extern rh:byte
  63  0000              extern _Crom2Prom:near
  64  0000              extern _Crom2PromNext:near
  65  0000              
  66  0000              RAMBANK 0 @BITDATASEC, @BITDATASEC1
  67  0000              @HCCINIT	.section 'data'
  68  0000              @HCCINIT0	.section 'data'
  69  0000              @BITDATASEC	 .section 'data'
  70  0000              @BITDATASEC1	 .section 'data'
  71  0000              
  72  0000              #pragma debug scope 1 1
  73  0000              	extern __DELAY3:near
  74  0000              	extern __DELAYX3:near
  75  0000              	extern __DELAYX6:near
  76  0000              	extern __DELAYY5:near
  77  0000              	extern __DELAYY3:near
  78  0000              	extern _builtin_holtek_delay_2:byte
  79  0000              	 include HT66FM5440.inc 


  80  0000              public _ucDealDragHall
  81  0000              @crom	.section 'crom'

  33  0000              #line 33 "C:\Users\steven.ho\Desktop\致新20180124\Leafblower.c"
  33  0000              @crom	.section	'crom'
  33  0000              _ucDealDragHall:
  33  0000              #pragma debug array 42 8 6 1
  33  0000              #pragma debug array 42 8 6 1
  33  0000              #pragma debug variable 42 1 _ucDealDragHall "ucDealDragHall"
  33  0000              	db 5
  33  0001              	db 1
  33  0001              	db 3
  33  0002              	db 2
  33  0002              	db 6
  33  0003              	db 4
  77  0003              #line 77 "C:\Users\steven.ho\Desktop\致新20180124\Leafblower.c"
  77  0003              public _uiDragPWM_Max
  77  0000              @HCCINIT0_uiDragPWM_Max .section 'data'
  77  0000  0002[       _uiDragPWM_Max	db 2 dup(0)
            00
            ]
  77  0002              #pragma debug variable 12 1 _uiDragPWM_Max "uiDragPWM_Max"
  77  0002              
  77  0000              @HCCINIT .section 'data'
  78  0000              #line 78 "C:\Users\steven.ho\Desktop\致新20180124\Leafblower.c"
  78  0000              public _ucDragPWM_BaseInc
  78  0000              @HCCINIT0_ucDragPWM_BaseInc .section 'data'
  78  0000              _ucDragPWM_BaseInc	db 0
  78  0001              #pragma debug variable 8 1 _ucDragPWM_BaseInc "ucDragPWM_BaseInc"
  78  0001              
  78  0000              @HCCINIT .section 'data'
  79  0000              #line 79 "C:\Users\steven.ho\Desktop\致新20180124\Leafblower.c"
  79  0000              public _ucHallCycle
  79  0000              @HCCINIT0_ucHallCycle .section 'data'
  79  0000              _ucHallCycle	db 0
  79  0001              #pragma debug variable 8 1 _ucHallCycle "ucHallCycle"
  79  0001              
  79  0000              @HCCINIT .section 'data'
"File: Leafblower.c  Assembler  Version HGASM0202      Page 3

  80  0000              #line 80 "C:\Users\steven.ho\Desktop\致新20180124\Leafblower.c"
  80  0000              public _ucDragDelayTime
  80  0000              @HCCINIT0_ucDragDelayTime .section 'data'
  80  0000              _ucDragDelayTime	db 0
  80  0001              #pragma debug variable 8 1 _ucDragDelayTime "ucDragDelayTime"
  80  0001              
  80  0000              @HCCINIT .section 'data'
  81  0000              #line 81 "C:\Users\steven.ho\Desktop\致新20180124\Leafblower.c"
  81  0000              public _ucTempDragDelayTime
  81  0000              @HCCINIT0_ucTempDragDelayTime .section 'data'
  81  0000              _ucTempDragDelayTime	db 0
  81  0001              #pragma debug variable 8 1 _ucTempDragDelayTime "ucTempDragDelayTime"
  81  0001              
  81  0000              @HCCINIT .section 'data'
  82  0000              #line 82 "C:\Users\steven.ho\Desktop\致新20180124\Leafblower.c"
  82  0000              public _ucMinDragDelayTime
  82  0000              @HCCINIT0_ucMinDragDelayTime .section 'data'
  82  0000              _ucMinDragDelayTime	db 0
  82  0001              #pragma debug variable 8 1 _ucMinDragDelayTime "ucMinDragDelayTime"
  82  0001              
  82  0000              @HCCINIT .section 'data'
  83  0000              #line 83 "C:\Users\steven.ho\Desktop\致新20180124\Leafblower.c"
  83  0000              public _uiDragPWM
  83  0000              @HCCINIT0_uiDragPWM .section 'data'
  83  0000  0002[       _uiDragPWM	db 2 dup(0)
            00
            ]
  83  0002              #pragma debug variable 12 1 _uiDragPWM "uiDragPWM"
  83  0002              
  83  0000              @HCCINIT .section 'data'
  84  0000              #line 84 "C:\Users\steven.ho\Desktop\致新20180124\Leafblower.c"
  84  0000              public _uiCount1ms
  84  0000              @HCCINIT0_uiCount1ms .section 'data'
  84  0000              _uiCount1ms	db 0
  84  0001              #pragma debug variable 8 1 _uiCount1ms "uiCount1ms"
  84  0001              
  84  0000              @HCCINIT .section 'data'
  85  0000              #line 85 "C:\Users\steven.ho\Desktop\致新20180124\Leafblower.c"
  85  0000              public _ucHallCnt
  85  0000              @HCCINIT0_ucHallCnt .section 'data'
  85  0000              _ucHallCnt	db 0
  85  0001              #pragma debug variable 8 1 _ucHallCnt "ucHallCnt"
  85  0001              
  85  0000              @HCCINIT .section 'data'
  86  0000              #line 86 "C:\Users\steven.ho\Desktop\致新20180124\Leafblower.c"
  86  0000              public _uiLastHallTime
  86  0000              @HCCINIT0_uiLastHallTime .section 'data'
  86  0000  0002[       _uiLastHallTime	db 2 dup(0)
            00
            ]
  86  0002              #pragma debug variable 12 1 _uiLastHallTime "uiLastHallTime"
  86  0002              
  86  0000              @HCCINIT .section 'data'
  87  0000              #line 87 "C:\Users\steven.ho\Desktop\致新20180124\Leafblower.c"
  87  0000              public _uiVR_Value
  87  0000              @HCCINIT0_uiVR_Value .section 'data'
  87  0000  0002[       _uiVR_Value	db 2 dup(0)
            00
            ]
  87  0002              #pragma debug variable 12 1 _uiVR_Value "uiVR_Value"
"File: Leafblower.c  Assembler  Version HGASM0202      Page 4

  87  0002              
  87  0000              @HCCINIT .section 'data'
  88  0000              #line 88 "C:\Users\steven.ho\Desktop\致新20180124\Leafblower.c"
  88  0000              public _uiTempPWM
  88  0000              @HCCINIT0_uiTempPWM .section 'data'
  88  0000  0002[       _uiTempPWM	db 2 dup(0)
            00
            ]
  88  0002              #pragma debug variable 12 1 _uiTempPWM "uiTempPWM"
  88  0002              
  88  0000              @HCCINIT .section 'data'
  89  0000              #line 89 "C:\Users\steven.ho\Desktop\致新20180124\Leafblower.c"
  89  0000              public _ValueTemp
  89  0000              @HCCINIT0_ValueTemp .section 'data'
  89  0000              _ValueTemp	db 0
  89  0001              #pragma debug variable 8 1 _ValueTemp "ValueTemp"
  89  0001              
  89  0000              @HCCINIT .section 'data'
  90  0000              #line 90 "C:\Users\steven.ho\Desktop\致新20180124\Leafblower.c"
  90  0000              public _ucHallStep
  90  0000              @HCCINIT0_ucHallStep .section 'data'
  90  0000              _ucHallStep	db 0
  90  0001              #pragma debug variable 8 1 _ucHallStep "ucHallStep"
  90  0001              
  90  0000              @HCCINIT .section 'data'
  91  0000              #line 91 "C:\Users\steven.ho\Desktop\致新20180124\Leafblower.c"
  91  0000              public _uiHallTimeCnt
  91  0000              @HCCINIT0_uiHallTimeCnt .section 'data'
  91  0000  0002[       _uiHallTimeCnt	db 2 dup(0)
            00
            ]
  91  0002              #pragma debug variable 12 1 _uiHallTimeCnt "uiHallTimeCnt"
  91  0002              
  91  0000              @HCCINIT .section 'data'
  92  0000              #line 92 "C:\Users\steven.ho\Desktop\致新20180124\Leafblower.c"
  92  0000              public _ucVoiceStep
  92  0000              @HCCINIT0_ucVoiceStep .section 'data'
  92  0000              _ucVoiceStep	db 0
  92  0001              #pragma debug variable 8 1 _ucVoiceStep "ucVoiceStep"
  92  0001              
  92  0000              @HCCINIT .section 'data'
  93  0000              #line 93 "C:\Users\steven.ho\Desktop\致新20180124\Leafblower.c"
  93  0000              public _uiVoiceTimeCnt
  93  0000              @HCCINIT0_uiVoiceTimeCnt .section 'data'
  93  0000  0002[       _uiVoiceTimeCnt	db 2 dup(0)
            00
            ]
  93  0002              #pragma debug variable 12 1 _uiVoiceTimeCnt "uiVoiceTimeCnt"
  93  0002              
  93  0000              @HCCINIT .section 'data'
  94  0000              #line 94 "C:\Users\steven.ho\Desktop\致新20180124\Leafblower.c"
  94  0000              public _ucDragCnt
  94  0000              @HCCINIT0_ucDragCnt .section 'data'
  94  0000              _ucDragCnt	db 0
  94  0001              #pragma debug variable 8 1 _ucDragCnt "ucDragCnt"
  94  0001              
  94  0000              @HCCINIT .section 'data'
  96  0000              #line 96 "C:\Users\steven.ho\Desktop\致新20180124\Leafblower.c"
  96  0000              public _ucReadADCNT
  96  0000              @HCCINIT0_ucReadADCNT .section 'data'
"File: Leafblower.c  Assembler  Version HGASM0202      Page 5

  96  0000              _ucReadADCNT	db 0
  96  0001              #pragma debug variable 8 1 _ucReadADCNT "ucReadADCNT"
  96  0001              
  96  0000              @HCCINIT .section 'data'
  97  0000              #line 97 "C:\Users\steven.ho\Desktop\致新20180124\Leafblower.c"
  97  0000              public _uiADC_ValueTemp
  97  0000              @HCCINIT0_uiADC_ValueTemp .section 'data'
  97  0000  0002[       _uiADC_ValueTemp	db 2 dup(0)
            00
            ]
  97  0002              #pragma debug variable 12 1 _uiADC_ValueTemp "uiADC_ValueTemp"
  97  0002              
  97  0000              @HCCINIT .section 'data'
  98  0000              #line 98 "C:\Users\steven.ho\Desktop\致新20180124\Leafblower.c"
  98  0000              public _uiADCSum
  98  0000              @HCCINIT0_uiADCSum .section 'data'
  98  0000  0002[       _uiADCSum	db 2 dup(0)
            00
            ]
  98  0002              #pragma debug variable 12 1 _uiADCSum "uiADCSum"
  98  0002              
  98  0000              @HCCINIT .section 'data'
  99  0000              #line 99 "C:\Users\steven.ho\Desktop\致新20180124\Leafblower.c"
  99  0000              public _ucVRIndex
  99  0000              @HCCINIT0_ucVRIndex .section 'data'
  99  0000              _ucVRIndex	db 0
  99  0001              #pragma debug variable 8 1 _ucVRIndex "ucVRIndex"
  99  0001              
  99  0000              @HCCINIT .section 'data'
 100  0000              #line 100 "C:\Users\steven.ho\Desktop\致新20180124\Leafblower.c"
 100  0000              public _uiVRValue_Final
 100  0000              @HCCINIT0_uiVRValue_Final .section 'data'
 100  0000  0002[       _uiVRValue_Final	db 2 dup(0)
            00
            ]
 100  0002              #pragma debug variable 12 1 _uiVRValue_Final "uiVRValue_Final"
 100  0002              
 100  0000              @HCCINIT .section 'data'
 101  0000              #line 101 "C:\Users\steven.ho\Desktop\致新20180124\Leafblower.c"
 101  0000              public _uiVRValue
 101  0000              @HCCINIT0_uiVRValue .section 'data'
 101  0000  0008[       _uiVRValue	db 8 dup(0)
            00
            ]
 101  0008              #pragma debug array 43 12 4 1
 101  0008              #pragma debug array 43 12 4 1
 101  0008              #pragma debug variable 43 1 _uiVRValue "uiVRValue"
 101  0008              
 101  0000              @HCCINIT .section 'data'
 102  0000              #line 102 "C:\Users\steven.ho\Desktop\致新20180124\Leafblower.c"
 102  0000              public _ucVDC_Temp
 102  0000              @HCCINIT0_ucVDC_Temp .section 'data'
 102  0000              _ucVDC_Temp	db 0
 102  0001              #pragma debug variable 8 1 _ucVDC_Temp "ucVDC_Temp"
 102  0001              
 102  0000              @HCCINIT .section 'data'
 103  0000              #line 103 "C:\Users\steven.ho\Desktop\致新20180124\Leafblower.c"
 103  0000              public _uiVDCADCSum
 103  0000              @HCCINIT0_uiVDCADCSum .section 'data'
 103  0000  0002[       _uiVDCADCSum	db 2 dup(0)
"File: Leafblower.c  Assembler  Version HGASM0202      Page 6

            00
            ]
 103  0002              #pragma debug variable 12 1 _uiVDCADCSum "uiVDCADCSum"
 103  0002              
 103  0000              @HCCINIT .section 'data'
 104  0000              #line 104 "C:\Users\steven.ho\Desktop\致新20180124\Leafblower.c"
 104  0000              public _ucVDCIndex
 104  0000              @HCCINIT0_ucVDCIndex .section 'data'
 104  0000              _ucVDCIndex	db 0
 104  0001              #pragma debug variable 8 1 _ucVDCIndex "ucVDCIndex"
 104  0001              
 104  0000              @HCCINIT .section 'data'
 105  0000              #line 105 "C:\Users\steven.ho\Desktop\致新20180124\Leafblower.c"
 105  0000              public _uiVDCValue_Final
 105  0000              @HCCINIT0_uiVDCValue_Final .section 'data'
 105  0000  0002[       _uiVDCValue_Final	db 2 dup(0)
            00
            ]
 105  0002              #pragma debug variable 12 1 _uiVDCValue_Final "uiVDCValue_Final"
 105  0002              
 105  0000              @HCCINIT .section 'data'
 106  0000              #line 106 "C:\Users\steven.ho\Desktop\致新20180124\Leafblower.c"
 106  0000              public _uiVDCValue
 106  0000              @HCCINIT0_uiVDCValue .section 'data'
 106  0000  0008[       _uiVDCValue	db 8 dup(0)
            00
            ]
 106  0008              #pragma debug variable 43 1 _uiVDCValue "uiVDCValue"
 106  0008              
 106  0000              @HCCINIT .section 'data'
 107  0000              #line 107 "C:\Users\steven.ho\Desktop\致新20180124\Leafblower.c"
 107  0000              public _uiCurrentADCSum
 107  0000              @HCCINIT0_uiCurrentADCSum .section 'data'
 107  0000  0002[       _uiCurrentADCSum	db 2 dup(0)
            00
            ]
 107  0002              #pragma debug variable 12 1 _uiCurrentADCSum "uiCurrentADCSum"
 107  0002              
 107  0000              @HCCINIT .section 'data'
 108  0000              #line 108 "C:\Users\steven.ho\Desktop\致新20180124\Leafblower.c"
 108  0000              public _ucCurrentIndex
 108  0000              @HCCINIT0_ucCurrentIndex .section 'data'
 108  0000              _ucCurrentIndex	db 0
 108  0001              #pragma debug variable 8 1 _ucCurrentIndex "ucCurrentIndex"
 108  0001              
 108  0000              @HCCINIT .section 'data'
 109  0000              #line 109 "C:\Users\steven.ho\Desktop\致新20180124\Leafblower.c"
 109  0000              public _uiCurrentValue_Final
 109  0000              @HCCINIT0_uiCurrentValue_Final .section 'data'
 109  0000  0002[       _uiCurrentValue_Final	db 2 dup(0)
            00
            ]
 109  0002              #pragma debug variable 12 1 _uiCurrentValue_Final "uiCurrentValue_Final"
 109  0002              
 109  0000              @HCCINIT .section 'data'
 110  0000              #line 110 "C:\Users\steven.ho\Desktop\致新20180124\Leafblower.c"
 110  0000              public _uiCurrentValue
 110  0000              @HCCINIT0_uiCurrentValue .section 'data'
 110  0000  0008[       _uiCurrentValue	db 8 dup(0)
            00
"File: Leafblower.c  Assembler  Version HGASM0202      Page 7

            ]
 110  0008              #pragma debug variable 43 1 _uiCurrentValue "uiCurrentValue"
 110  0008              
 110  0000              @HCCINIT .section 'data'
 111  0000              #line 111 "C:\Users\steven.ho\Desktop\致新20180124\Leafblower.c"
 111  0000              public _uiVoltageCheckCnt
 111  0000              @HCCINIT0_uiVoltageCheckCnt .section 'data'
 111  0000  0002[       _uiVoltageCheckCnt	db 2 dup(0)
            00
            ]
 111  0002              #pragma debug variable 12 1 _uiVoltageCheckCnt "uiVoltageCheckCnt"
 111  0002              
 111  0000              @HCCINIT .section 'data'
 112  0000              #line 112 "C:\Users\steven.ho\Desktop\致新20180124\Leafblower.c"
 112  0000              public _ucMTR_State
 112  0000              @HCCINIT0_ucMTR_State .section 'data'
 112  0000              _ucMTR_State	db 0
 112  0001              #pragma debug variable 8 1 _ucMTR_State "ucMTR_State"
 112  0001              
 112  0000              @HCCINIT .section 'data'
 113  0000              #line 113 "C:\Users\steven.ho\Desktop\致新20180124\Leafblower.c"
 113  0000              public _uiReleaseKey_CNT
 113  0000              @HCCINIT0_uiReleaseKey_CNT .section 'data'
 113  0000  0002[       _uiReleaseKey_CNT	db 2 dup(0)
            00
            ]
 113  0002              #pragma debug variable 12 1 _uiReleaseKey_CNT "uiReleaseKey_CNT"
 113  0002              
 113  0000              @HCCINIT .section 'data'
 114  0000              #line 114 "C:\Users\steven.ho\Desktop\致新20180124\Leafblower.c"
 114  0000              public _ucPWMUpdateCNT
 114  0000              @HCCINIT0_ucPWMUpdateCNT .section 'data'
 114  0000              _ucPWMUpdateCNT	db 0
 114  0001              #pragma debug variable 8 1 _ucPWMUpdateCNT "ucPWMUpdateCNT"
 114  0001              
 114  0000              @HCCINIT .section 'data'
 114  0000              ___intc0 equ [21]
 114  0000              ___lvdc equ [16]
 114  0000              ___mfi7 equ [32]
 114  0000              _bit_var_0 equ [128]
 114  0000              _bit_var_1 equ [129]
 114  0000              ___mptc1 equ [75]
 114  0000              _bit_var_2 equ [130]
 114  0000              ___dutr0h equ [89]
 114  0000              ___dutr0l equ [88]
 114  0000              ___pwmcs equ [341]
 114  0000              public _main
 114  0000              #pragma debug scope 2 1
 155  0000              #line 155 "C:\Users\steven.ho\Desktop\致新20180124\Leafblower.c"
 155  0000              IFDEF WITH_DEFAULT_STARTUP
 155  0000              extern _main_initial0:near
 155  0000              extern _main_startup:near
 155  0000              ENDIF
 155  0000              
 155  0000              ROMBANK 0 @start
 155  0000              @start .section com_l 'code'
 155  0000              _main_startup1:
 155  0000              @start .section com_e 'code'
 155  0000  2800     R  	jmp _main
 155  0001              
"File: Leafblower.c  Assembler  Version HGASM0202      Page 8

 155  0000              _main .section 'code'
 155  0000              _main proc
 156  0000              #line 156 "C:\Users\steven.ho\Desktop\致新20180124\Leafblower.c"
 156  0000              ;# 156 "C:\Users\steven.ho\Desktop\致新20180124\Leafblower.c" 1
 156  0000  0000        	NOP
 157  0001              #line 157 "C:\Users\steven.ho\Desktop\致新20180124\Leafblower.c"
 157  0001              ;# 157 "C:\Users\steven.ho\Desktop\致新20180124\Leafblower.c" 1
 157  0001  0000        	NOP
 158  0002              #line 158 "C:\Users\steven.ho\Desktop\致新20180124\Leafblower.c"
 158  0002              ;# 158 "C:\Users\steven.ho\Desktop\致新20180124\Leafblower.c" 1
 158  0002  0000        	NOP
 159  0003              #line 159 "C:\Users\steven.ho\Desktop\致新20180124\Leafblower.c"
 159  0003  3415        	clr [21].0
 160  0004              #line 160 "C:\Users\steven.ho\Desktop\致新20180124\Leafblower.c"
 160  0004  2000     R  	call _IO_Init
 161  0005              #line 161 "C:\Users\steven.ho\Desktop\致新20180124\Leafblower.c"
 161  0005  2000     R  	call _System_Init
 162  0006              #line 162 "C:\Users\steven.ho\Desktop\致新20180124\Leafblower.c"
 162  0006  2000     R  	call _TM1_Init
 163  0007              #line 163 "C:\Users\steven.ho\Desktop\致新20180124\Leafblower.c"
 163  0007  2000     R  	call _PWMInit
 164  0008              #line 164 "C:\Users\steven.ho\Desktop\致新20180124\Leafblower.c"
 164  0008  2000     R  	call _Hall_Init
 165  0009              #line 165 "C:\Users\steven.ho\Desktop\致新20180124\Leafblower.c"
 165  0009  2000     R  	call _ADC_Init
 166  000A              #line 166 "C:\Users\steven.ho\Desktop\致新20180124\Leafblower.c"
 166  000A  2000     R  	call _Comparator_Init
 167  000B              #line 167 "C:\Users\steven.ho\Desktop\致新20180124\Leafblower.c"
 167  000B  2000     R  	call _CAPTM_Init
 168  000C              #line 168 "C:\Users\steven.ho\Desktop\致新20180124\Leafblower.c"
 168  000C  2000     R  	call _Init_TM3
 169  000D              #line 169 "C:\Users\steven.ho\Desktop\致新20180124\Leafblower.c"
 169  000D  2000     R  	call _TimeBaseInit
 170  000E              #line 170 "C:\Users\steven.ho\Desktop\致新20180124\Leafblower.c"
 170  000E  2000     R  	call _INT_Init
 171  000F              #line 171 "C:\Users\steven.ho\Desktop\致新20180124\Leafblower.c"
 171  000F  2000     R  	call _Varitate_Init
 172  0010              #line 172 "C:\Users\steven.ho\Desktop\致新20180124\Leafblower.c"
 172  0010  3210        	set [16].4
 173  0011              #line 173 "C:\Users\steven.ho\Desktop\致新20180124\Leafblower.c"
 173  0011  3120        	set [32].2
 174  0012              #line 174 "C:\Users\steven.ho\Desktop\致新20180124\Leafblower.c"
 174  0012  3720        	clr [32].6
 175  0013              #line 175 "C:\Users\steven.ho\Desktop\致新20180124\Leafblower.c"
 175  0013  3015        	set [21].0
 176  0014              #line 176 "C:\Users\steven.ho\Desktop\致新20180124\Leafblower.c"
 176  0014  0FE8        	mov a,-24
 176  0015  0080     R  	mov _delay_2[0],a
 176  0016  0F03        	mov a,3
 176  0017  0080     R  	mov _delay_2[1],a
 176  0018  2000     R  	call _delay
 177  0019              #line 177 "C:\Users\steven.ho\Desktop\致新20180124\Leafblower.c"
 177  0019  0F11        	mov a,17
 177  001A  0080     R  	mov _uiReleaseKey_CNT[0],a
 177  001B  0F27        	mov a,39
 177  001C  0080     R  	mov _uiReleaseKey_CNT[1],a
 178  001D              #line 178 "C:\Users\steven.ho\Desktop\致新20180124\Leafblower.c"
 178  001D  1F00     R  	clr _ucMTR_State[0]
 179  001E              #line 179 "C:\Users\steven.ho\Desktop\致新20180124\Leafblower.c"
 179  001E  2000     R  	call _ReadVDC_PowerON
"File: Leafblower.c  Assembler  Version HGASM0202      Page 9

 180  001F              #line 180 "C:\Users\steven.ho\Desktop\致新20180124\Leafblower.c"
 180  001F  0FD0        	mov a,-48
 180  0020  0080     R  	mov _delay_2[0],a
 180  0021  0F07        	mov a,7
 180  0022  0080     R  	mov _delay_2[1],a
 180  0023  2000     R  	call _delay
 184  0024              #line 184 "C:\Users\steven.ho\Desktop\致新20180124\Leafblower.c"
 184  0024  2000     R  	call _CommandOK
 184  0025              _L27:
 190  0025              #line 190 "C:\Users\steven.ho\Desktop\致新20180124\Leafblower.c"
 190  0025  0700     R  	mov a,_ucReadADCNT[0]
 190  0026  0080     E  	mov ra,a
 190  0027  0F14        	mov a,20
 190  0028  0200     E  	sub a,ra
 190  0029  3C0A        	sz c
 190  002A  2800     R  	jmp _L2
 192  002B              #line 192 "C:\Users\steven.ho\Desktop\致新20180124\Leafblower.c"
 192  002B  1F00     R  	clr _ucReadADCNT[0]
 193  002C              #line 193 "C:\Users\steven.ho\Desktop\致新20180124\Leafblower.c"
 193  002C  2000     R  	call _KeyCheck
 194  002D              #line 194 "C:\Users\steven.ho\Desktop\致新20180124\Leafblower.c"
 194  002D  2000     R  	call _ReadMTRState
 195  002E              #line 195 "C:\Users\steven.ho\Desktop\致新20180124\Leafblower.c"
 195  002E  2000     R  	call _ReadVDC
 196  002F              #line 196 "C:\Users\steven.ho\Desktop\致新20180124\Leafblower.c"
 196  002F  2000     R  	call _ReadCurrent
 196  0030              _L2:
 199  0030              #line 199 "C:\Users\steven.ho\Desktop\致新20180124\Leafblower.c"
 199  0030  4700        	mov a,[128]
 199  0031  0080     E  	mov ra,a
 199  0032  0F40        	mov a,64
 199  0033  0680     E  	andm a,ra
 199  0034  1E00     E  	snz ra
 199  0035  2800     R  	jmp _L3
 201  0036              #line 201 "C:\Users\steven.ho\Desktop\致新20180124\Leafblower.c"
 201  0036  4700        	mov a,[128]
 201  0037  0080     E  	mov ra,a
 201  0038  0F20        	mov a,32
 201  0039  0680     E  	andm a,ra
 201  003A  1080     E  	sz ra
 201  003B  2800     R  	jmp _L4
 201  003C  4701        	mov a,[129]
 201  003D  0080     E  	mov ra,a
 201  003E  0F40        	mov a,64
 201  003F  0680     E  	andm a,ra
 201  0040  1080     E  	sz ra
 201  0041  2800     R  	jmp _L4
 201  0042  4701        	mov a,[129]
 201  0043  0080     E  	mov ra,a
 201  0044  0F10        	mov a,16
 201  0045  0680     E  	andm a,ra
 201  0046  1080     E  	sz ra
 201  0047  2800     R  	jmp _L4
 201  0048  4701        	mov a,[129]
 201  0049  0080     E  	mov ra,a
 201  004A  0F08        	mov a,8
 201  004B  0680     E  	andm a,ra
 201  004C  1E00     E  	snz ra
 201  004D  2800     R  	jmp _L5
 201  004E              _L4:
"File: Leafblower.c  Assembler  Version HGASM0202      Page 10

 203  004E              #line 203 "C:\Users\steven.ho\Desktop\致新20180124\Leafblower.c"
 203  004E  2000     R  	call _Motor_Stop
 203  004F              _L5:
 206  004F              #line 206 "C:\Users\steven.ho\Desktop\致新20180124\Leafblower.c"
 206  004F  4700        	mov a,[128]
 206  0050  0080     E  	mov ra,a
 206  0051  0F10        	mov a,16
 206  0052  0680     E  	andm a,ra
 206  0053  1E00     E  	snz ra
 206  0054  2800     R  	jmp _L3
 208  0055              #line 208 "C:\Users\steven.ho\Desktop\致新20180124\Leafblower.c"
 208  0055  0700     R  	mov a,_uiVR_Value[0]
 208  0056  0080     E  	mov ra,a
 208  0057  0700     R  	mov a,_uiVR_Value[1]
 208  0058  0080     E  	mov rb,a
 208  0059  0F31        	mov a,49
 208  005A  0200     E  	sub a,ra
 208  005B  0F00        	mov a,0
 208  005C  1200     E  	sbc a,rb
 208  005D  380A        	snz c
 208  005E  2800     R  	jmp _L3
 210  005F              #line 210 "C:\Users\steven.ho\Desktop\致新20180124\Leafblower.c"
 210  005F  0700     R  	mov a,_uiTempPWM[0]
 210  0060  0080     E  	mov ra,a
 210  0061  0700     R  	mov a,_uiTempPWM[1]
 210  0062  0080     E  	mov rb,a
 210  0063  0F31        	mov a,49
 210  0064  0200     E  	sub a,ra
 210  0065  0F00        	mov a,0
 210  0066  1200     E  	sbc a,rb
 210  0067  380A        	snz c
 210  0068  2800     R  	jmp _L3
 210  0069  0700     R  	mov a,_uiHallTimeCnt[0]
 210  006A  0080     E  	mov ra,a
 210  006B  0700     R  	mov a,_uiHallTimeCnt[1]
 210  006C  0080     E  	mov rb,a
 210  006D  0F05        	mov a,5
 210  006E  0200     E  	sub a,ra
 210  006F  0F00        	mov a,0
 210  0070  1200     E  	sbc a,rb
 210  0071  3C0A        	sz c
 210  0072  2800     R  	jmp _L3
 212  0073              #line 212 "C:\Users\steven.ho\Desktop\致新20180124\Leafblower.c"
 212  0073  7180        	set [128].3
 213  0074              #line 213 "C:\Users\steven.ho\Desktop\致新20180124\Leafblower.c"
 213  0074  2000     R  	call _Motor_Stop
 214  0075              #line 214 "C:\Users\steven.ho\Desktop\致新20180124\Leafblower.c"
 214  0075  2000     R  	call _Varitate_Init
 214  0076              _L3:
 220  0076              #line 220 "C:\Users\steven.ho\Desktop\致新20180124\Leafblower.c"
 220  0076  4701        	mov a,[129]
 220  0077  0080     E  	mov ra,a
 220  0078  0F04        	mov a,4
 220  0079  0680     E  	andm a,ra
 220  007A  1E00     E  	snz ra
 220  007B  2800     R  	jmp _L6
 222  007C              #line 222 "C:\Users\steven.ho\Desktop\致新20180124\Leafblower.c"
 222  007C  7501        	clr [129].2
 224  007D              #line 224 "C:\Users\steven.ho\Desktop\致新20180124\Leafblower.c"
 224  007D  4700        	mov a,[128]
"File: Leafblower.c  Assembler  Version HGASM0202      Page 11

 224  007E  0080     E  	mov ra,a
 224  007F  0F40        	mov a,64
 224  0080  0680     E  	andm a,ra
 224  0081  1E00     E  	snz ra
 224  0082  2800     R  	jmp _L7
 224  0083  4701        	mov a,[129]
 224  0084  0080     E  	mov ra,a
 224  0085  0F40        	mov a,64
 224  0086  0680     E  	andm a,ra
 224  0087  1080     E  	sz ra
 224  0088  2800     R  	jmp _L7
 224  0089  4701        	mov a,[129]
 224  008A  0080     E  	mov ra,a
 224  008B  0F10        	mov a,16
 224  008C  0680     E  	andm a,ra
 224  008D  1080     E  	sz ra
 224  008E  2800     R  	jmp _L7
 226  008F              #line 226 "C:\Users\steven.ho\Desktop\致新20180124\Leafblower.c"
 226  008F  0700     R  	mov a,_uiVRValue_Final[0]
 226  0090  0080     E  	mov ra,a
 226  0091  0700     R  	mov a,_uiVRValue_Final[1]
 226  0092  0080     E  	mov rb,a
 226  0093  0F78        	mov a,120
 226  0094  0200     E  	sub a,ra
 226  0095  0F00        	mov a,0
 226  0096  1200     E  	sbc a,rb
 226  0097  3C0A        	sz c
 226  0098  2800     R  	jmp _L8
 228  0099              #line 228 "C:\Users\steven.ho\Desktop\致新20180124\Leafblower.c"
 228  0099  7381        	set [129].7
 228  009A  2800     R  	jmp _L9
 228  009B              _L8:
 231  009B              #line 231 "C:\Users\steven.ho\Desktop\致新20180124\Leafblower.c"
 231  009B  0700     R  	mov a,_uiVRValue_Final[0]
 231  009C  0080     E  	mov ra,a
 231  009D  0700     R  	mov a,_uiVRValue_Final[1]
 231  009E  0080     E  	mov rb,a
 231  009F  0F45        	mov a,69
 231  00A0  0200     E  	sub a,ra
 231  00A1  0F00        	mov a,0
 231  00A2  1200     E  	sbc a,rb
 231  00A3  380A        	snz c
 231  00A4  2800     R  	jmp _L9
 233  00A5              #line 233 "C:\Users\steven.ho\Desktop\致新20180124\Leafblower.c"
 233  00A5  7781        	clr [129].7
 234  00A6              #line 234 "C:\Users\steven.ho\Desktop\致新20180124\Leafblower.c"
 234  00A6  7581        	clr [129].3
 235  00A7              #line 235 "C:\Users\steven.ho\Desktop\致新20180124\Leafblower.c"
 235  00A7  304B        	set [75].0
 236  00A8              #line 236 "C:\Users\steven.ho\Desktop\致新20180124\Leafblower.c"
 236  00A8  344B        	clr [75].0
 237  00A9              #line 237 "C:\Users\steven.ho\Desktop\致新20180124\Leafblower.c"
 237  00A9  304B        	set [75].0
 237  00AA              _L9:
 240  00AA              #line 240 "C:\Users\steven.ho\Desktop\致新20180124\Leafblower.c"
 240  00AA  4701        	mov a,[129]
 240  00AB  0080     E  	mov ra,a
 240  00AC  0F80        	mov a,128
 240  00AD  0680     E  	andm a,ra
 240  00AE  1E00     E  	snz ra
"File: Leafblower.c  Assembler  Version HGASM0202      Page 12

 240  00AF  2800     R  	jmp _L10
 242  00B0              #line 242 "C:\Users\steven.ho\Desktop\致新20180124\Leafblower.c"
 242  00B0  0700     R  	mov a,_uiVRValue_Final[0]
 242  00B1  0080     E  	mov ra,a
 242  00B2  0700     R  	mov a,_uiVRValue_Final[1]
 242  00B3  0080     E  	mov rb,a
 242  00B4  0700     E  	mov a,ra
 242  00B5  0080     R  	mov _uiVR_Value[0],a
 242  00B6  0700     E  	mov a,rb
 242  00B7  0080     R  	mov _uiVR_Value[1],a
 243  00B8              #line 243 "C:\Users\steven.ho\Desktop\致新20180124\Leafblower.c"
 243  00B8  4702        	mov a,[130]
 243  00B9  0080     E  	mov ra,a
 243  00BA  0F04        	mov a,4
 243  00BB  0680     E  	andm a,ra
 243  00BC  1E00     E  	snz ra
 243  00BD  2800     R  	jmp _L11
 245  00BE              #line 245 "C:\Users\steven.ho\Desktop\致新20180124\Leafblower.c"
 245  00BE  0700     R  	mov a,_uiVR_Value[0]
 245  00BF  0080     E  	mov ra,a
 245  00C0  0700     R  	mov a,_uiVR_Value[1]
 245  00C1  0080     E  	mov rb,a
 245  00C2  0F20        	mov a,32
 245  00C3  0200     E  	sub a,ra
 245  00C4  0F03        	mov a,3
 245  00C5  1200     E  	sbc a,rb
 245  00C6  3C0A        	sz c
 245  00C7  2800     R  	jmp _L14
 247  00C8              #line 247 "C:\Users\steven.ho\Desktop\致新20180124\Leafblower.c"
 247  00C8  0F20        	mov a,32
 247  00C9  0080     R  	mov _uiVR_Value[0],a
 247  00CA  0F03        	mov a,3
 247  00CB  0080     R  	mov _uiVR_Value[1],a
 247  00CC  2800     R  	jmp _L14
 247  00CD              _L11:
 252  00CD              #line 252 "C:\Users\steven.ho\Desktop\致新20180124\Leafblower.c"
 252  00CD  0700     R  	mov a,_uiVR_Value[0]
 252  00CE  0080     E  	mov ra,a
 252  00CF  0700     R  	mov a,_uiVR_Value[1]
 252  00D0  0080     E  	mov rb,a
 252  00D1  0FA0        	mov a,160
 252  00D2  0200     E  	sub a,ra
 252  00D3  0F00        	mov a,0
 252  00D4  1200     E  	sbc a,rb
 252  00D5  3C0A        	sz c
 252  00D6  2800     R  	jmp _L14
 254  00D7              #line 254 "C:\Users\steven.ho\Desktop\致新20180124\Leafblower.c"
 254  00D7  0FA0        	mov a,-96
 254  00D8  0080     R  	mov _uiVR_Value[0],a
 254  00D9  1F00     R  	clr _uiVR_Value[1]
 254  00DA  2800     R  	jmp _L14
 254  00DB              _L10:
 260  00DB              #line 260 "C:\Users\steven.ho\Desktop\致新20180124\Leafblower.c"
 260  00DB  1F00     R  	clr _uiVR_Value[0]
 260  00DC  1F00     R  	clr _uiVR_Value[1]
 260  00DD              _L14:
 264  00DD              #line 264 "C:\Users\steven.ho\Desktop\致新20180124\Leafblower.c"
 264  00DD  0700     R  	mov a,_uiVR_Value[0]
 264  00DE  0080     E  	mov ra,a
 264  00DF  0700     R  	mov a,_uiVR_Value[1]
"File: Leafblower.c  Assembler  Version HGASM0202      Page 13

 264  00E0  0080     E  	mov rb,a
 264  00E1  0F78        	mov a,120
 264  00E2  0200     E  	sub a,ra
 264  00E3  0F00        	mov a,0
 264  00E4  1200     E  	sbc a,rb
 264  00E5  3C0A        	sz c
 264  00E6  2800     R  	jmp _L15
 267  00E7              #line 267 "C:\Users\steven.ho\Desktop\致新20180124\Leafblower.c"
 267  00E7  4700        	mov a,[128]
 267  00E8  0080     E  	mov ra,a
 267  00E9  0F10        	mov a,16
 267  00EA  0680     E  	andm a,ra
 267  00EB  1E00     E  	snz ra
 267  00EC  2800     R  	jmp _L16
 267  00ED  0700     R  	mov a,_uiHallTimeCnt[0]
 267  00EE  0080     E  	mov ra,a
 267  00EF  0700     R  	mov a,_uiHallTimeCnt[1]
 267  00F0  0080     E  	mov rb,a
 267  00F1  0F64        	mov a,100
 267  00F2  0200     E  	sub a,ra
 267  00F3  0F00        	mov a,0
 267  00F4  1200     E  	sbc a,rb
 267  00F5  380A        	snz c
 267  00F6  2800     R  	jmp _L17
 267  00F7              _L16:
 267  00F7  4700        	mov a,[128]
 267  00F8  0080     E  	mov ra,a
 267  00F9  0F02        	mov a,2
 267  00FA  0680     E  	andm a,ra
 267  00FB  1E00     E  	snz ra
 267  00FC  2800     R  	jmp _L18
 267  00FD              _L17:
 269  00FD              #line 269 "C:\Users\steven.ho\Desktop\致新20180124\Leafblower.c"
 269  00FD  4700        	mov a,[128]
 269  00FE  0080     E  	mov ra,a
 269  00FF  0F20        	mov a,32
 269  0100  0680     E  	andm a,ra
 269  0101  1080     E  	sz ra
 269  0102  2800     R  	jmp _L18
 271  0103              #line 271 "C:\Users\steven.ho\Desktop\致新20180124\Leafblower.c"
 271  0103  7480        	clr [128].1
 272  0104              #line 272 "C:\Users\steven.ho\Desktop\致新20180124\Leafblower.c"
 272  0104  2000     R  	call _Motor_Stop
 273  0105              #line 273 "C:\Users\steven.ho\Desktop\致新20180124\Leafblower.c"
 273  0105  2000     R  	call _Varitate_Init
 273  0106              _L18:
 277  0106              #line 277 "C:\Users\steven.ho\Desktop\致新20180124\Leafblower.c"
 277  0106  4700        	mov a,[128]
 277  0107  0080     E  	mov ra,a
 277  0108  0F08        	mov a,8
 277  0109  0680     E  	andm a,ra
 277  010A  1E00     E  	snz ra
 277  010B  2800     R  	jmp _L21
 277  010C  4701        	mov a,[129]
 277  010D  0080     E  	mov ra,a
 277  010E  0F08        	mov a,8
 277  010F  0680     E  	andm a,ra
 277  0110  1080     E  	sz ra
 277  0111  2800     R  	jmp _L21
 279  0112              #line 279 "C:\Users\steven.ho\Desktop\致新20180124\Leafblower.c"
"File: Leafblower.c  Assembler  Version HGASM0202      Page 14

 279  0112  7580        	clr [128].3
 280  0113              #line 280 "C:\Users\steven.ho\Desktop\致新20180124\Leafblower.c"
 280  0113  4700        	mov a,[128]
 280  0114  0080     E  	mov ra,a
 280  0115  0F04        	mov a,4
 280  0116  0680     E  	andm a,ra
 280  0117  1080     E  	sz ra
 280  0118  2800     R  	jmp _L20
 282  0119              #line 282 "C:\Users\steven.ho\Desktop\致新20180124\Leafblower.c"
 282  0119  2000     R  	call _get_drag_pwm
 283  011A              #line 283 "C:\Users\steven.ho\Desktop\致新20180124\Leafblower.c"
 283  011A  0700     R  	mov a,_uiDragPWM[0]
 283  011B  0080     E  	mov ra,a
 283  011C  0700     R  	mov a,_uiDragPWM[1]
 283  011D  0080     E  	mov rb,a
 283  011E  0F05        	mov a,5
 283  011F  0380     E  	addm a,ra
 283  0120  0F00        	mov a,0
 283  0121  1380     E  	adcm a,rb
 283  0122  0700     E  	mov a,ra
 283  0123  0080     R  	mov _uiDragPWM_Max[0],a
 283  0124  0700     E  	mov a,rb
 283  0125  0080     R  	mov _uiDragPWM_Max[1],a
 284  0126              #line 284 "C:\Users\steven.ho\Desktop\致新20180124\Leafblower.c"
 284  0126  7000        	set [128].0
 284  0127              _L20:
 286  0127              #line 286 "C:\Users\steven.ho\Desktop\致新20180124\Leafblower.c"
 286  0127  7100        	set [128].2
 286  0128  2800     R  	jmp _L21
 286  0129              _L15:
 289  0129              #line 289 "C:\Users\steven.ho\Desktop\致新20180124\Leafblower.c"
 289  0129  4700        	mov a,[128]
 289  012A  0080     E  	mov ra,a
 289  012B  0F01        	mov a,1
 289  012C  0680     E  	andm a,ra
 289  012D  1E00     E  	snz ra
 289  012E  2800     R  	jmp _L21
 291  012F              #line 291 "C:\Users\steven.ho\Desktop\致新20180124\Leafblower.c"
 291  012F  7180        	set [128].3
 292  0130              #line 292 "C:\Users\steven.ho\Desktop\致新20180124\Leafblower.c"
 292  0130  2000     R  	call _Motor_Stop
 293  0131              #line 293 "C:\Users\steven.ho\Desktop\致新20180124\Leafblower.c"
 293  0131  2000     R  	call _Varitate_Init
 293  0132              _L21:
 296  0132              #line 296 "C:\Users\steven.ho\Desktop\致新20180124\Leafblower.c"
 296  0132  4700        	mov a,[128]
 296  0133  0080     E  	mov ra,a
 296  0134  0F10        	mov a,16
 296  0135  0680     E  	andm a,ra
 296  0136  1E00     E  	snz ra
 296  0137  2800     R  	jmp _L7
 298  0138              #line 298 "C:\Users\steven.ho\Desktop\致新20180124\Leafblower.c"
 298  0138  4701        	mov a,[129]
 298  0139  0080     E  	mov ra,a
 298  013A  0F20        	mov a,32
 298  013B  0680     E  	andm a,ra
 298  013C  1080     E  	sz ra
 298  013D  2800     R  	jmp _L22
 300  013E              #line 300 "C:\Users\steven.ho\Desktop\致新20180124\Leafblower.c"
 300  013E  0700     R  	mov a,_uiTempPWM[0]
"File: Leafblower.c  Assembler  Version HGASM0202      Page 15

 300  013F  0080     E  	mov rc,a
 300  0140  0700     R  	mov a,_uiTempPWM[1]
 300  0141  0080     E  	mov rd,a
 300  0142  0700     R  	mov a,_uiVR_Value[0]
 300  0143  0080     E  	mov ra,a
 300  0144  0700     R  	mov a,_uiVR_Value[1]
 300  0145  0080     E  	mov rb,a
 300  0146  0700     E  	mov a,rc
 300  0147  0200     E  	sub a,ra
 300  0148  0700     E  	mov a,rd
 300  0149  1200     E  	sbc a,rb
 300  014A  3C0A        	sz c
 300  014B  2800     R  	jmp _L23
 302  014C              #line 302 "C:\Users\steven.ho\Desktop\致新20180124\Leafblower.c"
 302  014C  0700     R  	mov a,_uiTempPWM[0]
 302  014D  0080     E  	mov ra,a
 302  014E  0700     R  	mov a,_uiTempPWM[1]
 302  014F  0080     E  	mov rb,a
 302  0150  0F05        	mov a,5
 302  0151  0380     E  	addm a,ra
 302  0152  0F00        	mov a,0
 302  0153  1380     E  	adcm a,rb
 302  0154  0700     E  	mov a,ra
 302  0155  0080     R  	mov _uiTempPWM[0],a
 302  0156  0700     E  	mov a,rb
 302  0157  0080     R  	mov _uiTempPWM[1],a
 302  0158  2800     R  	jmp _L26
 302  0159              _L23:
 306  0159              #line 306 "C:\Users\steven.ho\Desktop\致新20180124\Leafblower.c"
 306  0159  0700     R  	mov a,_uiVR_Value[0]
 306  015A  0080     E  	mov ra,a
 306  015B  0700     R  	mov a,_uiVR_Value[1]
 306  015C  0080     E  	mov rb,a
 306  015D  0F95        	mov a,149
 306  015E  0200     E  	sub a,ra
 306  015F  0F00        	mov a,0
 306  0160  1200     E  	sbc a,rb
 306  0161  3C0A        	sz c
 306  0162  2800     R  	jmp _L25
 308  0163              #line 308 "C:\Users\steven.ho\Desktop\致新20180124\Leafblower.c"
 308  0163  0700     R  	mov a,_uiTempPWM[0]
 308  0164  0080     E  	mov ra,a
 308  0165  0700     R  	mov a,_uiTempPWM[1]
 308  0166  0080     E  	mov rb,a
 308  0167  0FFF        	mov a,255
 308  0168  0380     E  	addm a,ra
 308  0169  0FFF        	mov a,255
 308  016A  1380     E  	adcm a,rb
 308  016B  0700     E  	mov a,ra
 308  016C  0080     R  	mov _uiTempPWM[0],a
 308  016D  0700     E  	mov a,rb
 308  016E  0080     R  	mov _uiTempPWM[1],a
 308  016F  2800     R  	jmp _L26
 308  0170              _L25:
 312  0170              #line 312 "C:\Users\steven.ho\Desktop\致新20180124\Leafblower.c"
 312  0170  0700     R  	mov a,_uiVR_Value[0]
 312  0171  0080     E  	mov ra,a
 312  0172  0700     R  	mov a,_uiVR_Value[1]
 312  0173  0080     E  	mov rb,a
 312  0174  0700     E  	mov a,ra
"File: Leafblower.c  Assembler  Version HGASM0202      Page 16

 312  0175  0080     R  	mov _uiTempPWM[0],a
 312  0176  0700     E  	mov a,rb
 312  0177  0080     R  	mov _uiTempPWM[1],a
 312  0178  2800     R  	jmp _L26
 312  0179              _L22:
 316  0179              #line 316 "C:\Users\steven.ho\Desktop\致新20180124\Leafblower.c"
 316  0179  0700     R  	mov a,_uiTempPWM[0]
 316  017A  0080     E  	mov rc,a
 316  017B  0700     R  	mov a,_uiTempPWM[1]
 316  017C  0080     E  	mov rd,a
 316  017D  0700     R  	mov a,_uiVR_Value[0]
 316  017E  0080     E  	mov ra,a
 316  017F  0700     R  	mov a,_uiVR_Value[1]
 316  0180  0080     E  	mov rb,a
 316  0181  0700     E  	mov a,ra
 316  0182  0200     E  	sub a,rc
 316  0183  0700     E  	mov a,rb
 316  0184  1200     E  	sbc a,rd
 316  0185  3C0A        	sz c
 316  0186  2800     R  	jmp _L26
 318  0187              #line 318 "C:\Users\steven.ho\Desktop\致新20180124\Leafblower.c"
 318  0187  0700     R  	mov a,_uiVR_Value[0]
 318  0188  0080     E  	mov ra,a
 318  0189  0700     R  	mov a,_uiVR_Value[1]
 318  018A  0080     E  	mov rb,a
 318  018B  0700     E  	mov a,ra
 318  018C  0080     R  	mov _uiTempPWM[0],a
 318  018D  0700     E  	mov a,rb
 318  018E  0080     R  	mov _uiTempPWM[1],a
 318  018F              _L26:
 321  018F              #line 321 "C:\Users\steven.ho\Desktop\致新20180124\Leafblower.c"
 321  018F  0700     R  	mov a,_uiTempPWM[0]
 321  0190  0080     E  	mov ra,a
 321  0191  0700     R  	mov a,_uiTempPWM[1]
 321  0192  0080     E  	mov rb,a
 321  0193  0700     E  	mov a,rb
 321  0194  0080     E  	mov ra,a
 321  0195  1F00     E  	clr rb
 321  0196  0700     E  	mov a,ra
 321  0197  0080     R  	mov _ValueTemp[0],a
 322  0198              #line 322 "C:\Users\steven.ho\Desktop\致新20180124\Leafblower.c"
 322  0198  0700     R  	mov a,_ValueTemp[0]
 322  0199  0080     E  	mov ra,a
 322  019A  0700     E  	mov a,ra
 322  019B  00D9        	mov [89],a
 323  019C              #line 323 "C:\Users\steven.ho\Desktop\致新20180124\Leafblower.c"
 323  019C  0700     R  	mov a,_uiTempPWM[0]
 323  019D  0080     E  	mov ra,a
 323  019E  0700     R  	mov a,_uiTempPWM[1]
 323  019F  0080     E  	mov rb,a
 323  01A0  0700     E  	mov a,ra
 323  01A1  0080     R  	mov _ValueTemp[0],a
 324  01A2              #line 324 "C:\Users\steven.ho\Desktop\致新20180124\Leafblower.c"
 324  01A2  0700     R  	mov a,_ValueTemp[0]
 324  01A3  0080     E  	mov ra,a
 324  01A4  0700     E  	mov a,ra
 324  01A5  00D8        	mov [88],a
 325  01A6              #line 325 "C:\Users\steven.ho\Desktop\致新20180124\Leafblower.c"
 325  01A6  B155 0001   	lset [341].2
 325  01A8              _L7:
"File: Leafblower.c  Assembler  Version HGASM0202      Page 17

 329  01A8              #line 329 "C:\Users\steven.ho\Desktop\致新20180124\Leafblower.c"
 329  01A8  4702        	mov a,[130]
 329  01A9  0080     E  	mov ra,a
 329  01AA  0F01        	mov a,1
 329  01AB  0680     E  	andm a,ra
 329  01AC  1E00     E  	snz ra
 329  01AD  2800     R  	jmp _L6
 331  01AE              #line 331 "C:\Users\steven.ho\Desktop\致新20180124\Leafblower.c"
 331  01AE  2000     R  	call _VoiceSpeakInit
 332  01AF              #line 332 "C:\Users\steven.ho\Desktop\致新20180124\Leafblower.c"
 332  01AF  0F06        	mov a,6
 332  01B0  0080     R  	mov _ucVoiceStep[0],a
 333  01B1              #line 333 "C:\Users\steven.ho\Desktop\致新20180124\Leafblower.c"
 333  01B1  7380        	set [128].7
 334  01B2              #line 334 "C:\Users\steven.ho\Desktop\致新20180124\Leafblower.c"
 334  01B2  7402        	clr [130].0
 334  01B3              _L6:
 337  01B3              #line 337 "C:\Users\steven.ho\Desktop\致新20180124\Leafblower.c"
 337  01B3              ;# 337 "C:\Users\steven.ho\Desktop\致新20180124\Leafblower.c" 1
 337  01B3  0001        	CLR	WDT
 338  01B4              #line 338 "C:\Users\steven.ho\Desktop\致新20180124\Leafblower.c"
 338  01B4  2800     R  	jmp _L27
 338  01B5  2800     R  	jmp $
 338  01B6              _main endp
 338  01B6              
 338  01B6              @dummy endp
 338  01B6              
 338  01B6              #line 338 "C:\Users\steven.ho\Desktop\致新20180124\Leafblower.c"
 338  01B6              #pragma debug scope 1 1
 338  01B6              ___smod equ [15]
 338  01B6              ___mp0 equ [1]
 338  01B6              ___iar0 equ [0]
 338  01B6              ___mp1h equ [4]
 338  01B6              ___mp1l equ [3]
 338  01B6              ___iar1 equ [2]
 338  01B6              ___mp2h equ [14]
 338  01B6              ___mp2l equ [13]
 338  01B6              public _System_Init
 338  01B6              #pragma debug scope 3 1
 347  01B6              #line 347 "C:\Users\steven.ho\Desktop\致新20180124\Leafblower.c"
 347  0000              _System_Init .section 'code'
 347  0000              _System_Init proc
 348  0000              #line 348 "C:\Users\steven.ho\Desktop\致新20180124\Leafblower.c"
 348  0000  0F01        	mov a,1
 348  0001  008F        	mov [15],a
 349  0002              #line 349 "C:\Users\steven.ho\Desktop\致新20180124\Leafblower.c"
 349  0002  0F80        	mov a,128
 349  0003  0081        	mov [1],a
 349  0004  2800     R  	jmp _L29
 349  0005              _L30:
 349  0005              #line 349 "C:\Users\steven.ho\Desktop\致新20180124\Leafblower.c"
 349  0005  1F00        	clr [0]
 349  0006  0701        	mov a,[1]
 349  0007  0080     E  	mov ra,a
 349  0008  1480     E  	inc ra
 349  0009  0700     E  	mov a,ra
 349  000A  0081        	mov [1],a
 349  000B              _L29:
 349  000B  0701        	mov a,[1]
 349  000C  0080     E  	mov ra,a
"File: Leafblower.c  Assembler  Version HGASM0202      Page 18

 349  000D  1080     E  	sz ra
 349  000E  2800     R  	jmp _L30
 350  000F              #line 350 "C:\Users\steven.ho\Desktop\致新20180124\Leafblower.c"
 350  000F  0F01        	mov a,1
 350  0010  0084        	mov [4],a
 351  0011              #line 351 "C:\Users\steven.ho\Desktop\致新20180124\Leafblower.c"
 351  0011  0F80        	mov a,128
 351  0012  0083        	mov [3],a
 351  0013  2800     R  	jmp _L31
 351  0014              _L32:
 351  0014  1F02        	clr [2]
 351  0015  0703        	mov a,[3]
 351  0016  0080     E  	mov ra,a
 351  0017  1480     E  	inc ra
 351  0018  0700     E  	mov a,ra
 351  0019  0083        	mov [3],a
 351  001A              _L31:
 351  001A  0703        	mov a,[3]
 351  001B  0080     E  	mov ra,a
 351  001C  1080     E  	sz ra
 351  001D  2800     R  	jmp _L32
 352  001E              #line 352 "C:\Users\steven.ho\Desktop\致新20180124\Leafblower.c"
 352  001E  0F02        	mov a,2
 352  001F  008E        	mov [14],a
 353  0020              #line 353 "C:\Users\steven.ho\Desktop\致新20180124\Leafblower.c"
 353  0020  0F80        	mov a,128
 353  0021  008D        	mov [13],a
 353  0022  2800     R  	jmp _L33
 353  0023              _L34:
 353  0023  1F02        	clr [2]
 353  0024  070D        	mov a,[13]
 353  0025  0080     E  	mov ra,a
 353  0026  1480     E  	inc ra
 353  0027  0700     E  	mov a,ra
 353  0028  008D        	mov [13],a
 353  0029              _L33:
 353  0029  070D        	mov a,[13]
 353  002A  0080     E  	mov ra,a
 353  002B  1080     E  	sz ra
 353  002C  2800     R  	jmp _L34
 354  002D              #line 354 "C:\Users\steven.ho\Desktop\致新20180124\Leafblower.c"
 354  002D  1F04        	clr [4]
 355  002E              #line 355 "C:\Users\steven.ho\Desktop\致新20180124\Leafblower.c"
 355  002E  1F0E        	clr [14]
 356  002F              #line 356 "C:\Users\steven.ho\Desktop\致新20180124\Leafblower.c"
 356  002F              ;# 356 "C:\Users\steven.ho\Desktop\致新20180124\Leafblower.c" 1
 356  002F  0001        	CLR	WDT
 356  0030  0003        	ret
 356  0031              _System_Init endp
 356  0031              #line 356 "C:\Users\steven.ho\Desktop\致新20180124\Leafblower.c"
 356  0031              #pragma debug scope 1 1
 356  0031              ___pc equ [41]
 356  0031              ___pcc equ [42]
 356  0031              ___pac equ [36]
 356  0031              ___pa equ [35]
 356  0031              ___pbc equ [39]
 356  0031              ___pb equ [38]
 356  0031              ___pbpu equ [37]
 356  0031              ___paps0 equ [378]
 356  0031              ___paps1 equ [379]
"File: Leafblower.c  Assembler  Version HGASM0202      Page 19

 356  0031              ___pbps0 equ [66]
 356  0031              ___pbps1 equ [67]
 356  0031              ___pcps0 equ [380]
 356  0031              ___pcps1 equ [381]
 356  0031              public _IO_Init
 356  0031              #pragma debug scope 4 1
 365  0031              #line 365 "C:\Users\steven.ho\Desktop\致新20180124\Leafblower.c"
 365  0000              _IO_Init .section 'code'
 365  0000              _IO_Init proc
 366  0000              #line 366 "C:\Users\steven.ho\Desktop\致新20180124\Leafblower.c"
 366  0000  1F29        	clr [41]
 367  0001              #line 367 "C:\Users\steven.ho\Desktop\致新20180124\Leafblower.c"
 367  0001  1F2A        	clr [42]
 369  0002              #line 369 "C:\Users\steven.ho\Desktop\致新20180124\Leafblower.c"
 369  0002  0FFA        	mov a,250
 369  0003  00A4        	mov [36],a
 370  0004              #line 370 "C:\Users\steven.ho\Desktop\致新20180124\Leafblower.c"
 370  0004  1F23        	clr [35]
 372  0005              #line 372 "C:\Users\steven.ho\Desktop\致新20180124\Leafblower.c"
 372  0005  0FC8        	mov a,200
 372  0006  00A7        	mov [39],a
 373  0007              #line 373 "C:\Users\steven.ho\Desktop\致新20180124\Leafblower.c"
 373  0007  1F26        	clr [38]
 374  0008              #line 374 "C:\Users\steven.ho\Desktop\致新20180124\Leafblower.c"
 374  0008  0FC0        	mov a,192
 374  0009  00A5        	mov [37],a
 376  000A              #line 376 "C:\Users\steven.ho\Desktop\致新20180124\Leafblower.c"
 376  000A  0F44        	mov a,68
 376  000B  80FA 0001   	lmov [378],a
 377  000D              #line 377 "C:\Users\steven.ho\Desktop\致新20180124\Leafblower.c"
 377  000D  0F2A        	mov a,42
 377  000E  80FB 0001   	lmov [379],a
 378  0010              #line 378 "C:\Users\steven.ho\Desktop\致新20180124\Leafblower.c"
 378  0010  0F90        	mov a,144
 378  0011  00C2        	mov [66],a
 380  0012              #line 380 "C:\Users\steven.ho\Desktop\致新20180124\Leafblower.c"
 380  0012  1F43        	clr [67]
 381  0013              #line 381 "C:\Users\steven.ho\Desktop\致新20180124\Leafblower.c"
 381  0013  9F7C 0001   	lclr [380]
 382  0015              #line 382 "C:\Users\steven.ho\Desktop\致新20180124\Leafblower.c"
 382  0015  9F7D 0001   	lclr [381]
 382  0017  0003        	ret
 382  0018              _IO_Init endp
 382  0018              #line 382 "C:\Users\steven.ho\Desktop\致新20180124\Leafblower.c"
 382  0018              #pragma debug scope 1 1
 382  0018              ___adcr0 equ [56]
 382  0018              ___adcr1 equ [57]
 382  0018              ___adcr2 equ [58]
 382  0018              ___adcr3 equ [324]
 382  0018              ___adisg1 equ [59]
 382  0018              ___adisg2 equ [60]
 382  0018              ___adbyps equ [321]
 382  0018              ___addl equ [61]
 382  0018              public _ADC_Init
 382  0018              #pragma debug scope 5 1
 392  0018              #line 392 "C:\Users\steven.ho\Desktop\致新20180124\Leafblower.c"
 392  0000              _ADC_Init .section 'code'
 392  0000              _ADC_Init proc
 393  0000              #line 393 "C:\Users\steven.ho\Desktop\致新20180124\Leafblower.c"
 393  0000  0F10        	mov a,16
"File: Leafblower.c  Assembler  Version HGASM0202      Page 20

 393  0001  00B8        	mov [56],a
 394  0002              #line 394 "C:\Users\steven.ho\Desktop\致新20180124\Leafblower.c"
 394  0002  0F04        	mov a,4
 394  0003  00B9        	mov [57],a
 395  0004              #line 395 "C:\Users\steven.ho\Desktop\致新20180124\Leafblower.c"
 395  0004  0F53        	mov a,83
 395  0005  00BA        	mov [58],a
 396  0006              #line 396 "C:\Users\steven.ho\Desktop\致新20180124\Leafblower.c"
 396  0006  0F01        	mov a,1
 396  0007  80C4 0001   	lmov [324],a
 397  0009              #line 397 "C:\Users\steven.ho\Desktop\致新20180124\Leafblower.c"
 397  0009  0F86        	mov a,134
 397  000A  00BB        	mov [59],a
 398  000B              #line 398 "C:\Users\steven.ho\Desktop\致新20180124\Leafblower.c"
 398  000B  1FBC        	set [60]
 399  000C              #line 399 "C:\Users\steven.ho\Desktop\致新20180124\Leafblower.c"
 399  000C  0F80        	mov a,128
 399  000D  80C1 0001   	lmov [321],a
 400  000F              #line 400 "C:\Users\steven.ho\Desktop\致新20180124\Leafblower.c"
 400  000F  0F14        	mov a,20
 400  0010  00BD        	mov [61],a
 402  0011              #line 402 "C:\Users\steven.ho\Desktop\致新20180124\Leafblower.c"
 402  0011  3339        	set [57].6
 403  0012              #line 403 "C:\Users\steven.ho\Desktop\致新20180124\Leafblower.c"
 403  0012  36B8        	clr [56].5
 404  0013              #line 404 "C:\Users\steven.ho\Desktop\致新20180124\Leafblower.c"
 404  0013              ;# 404 "C:\Users\steven.ho\Desktop\致新20180124\Leafblower.c" 1
 404  0013  0001        	CLR	WDT
 404  0014  0003        	ret
 404  0015              _ADC_Init endp
 404  0015              #line 404 "C:\Users\steven.ho\Desktop\致新20180124\Leafblower.c"
 404  0015              #pragma debug scope 1 1
 404  0015              ___opoms equ [366]
 404  0015              ___opa0cal equ [368]
 404  0015              ___opcm equ [367]
 404  0015              ___cmpc equ [114]
 404  0015              ___ocps equ [68]
 404  0015              public _Comparator_Init
 404  0015              #pragma debug scope 6 1
 413  0015              #line 413 "C:\Users\steven.ho\Desktop\致新20180124\Leafblower.c"
 413  0000              _Comparator_Init .section 'code'
 413  0000              _Comparator_Init proc
 414  0000              #line 414 "C:\Users\steven.ho\Desktop\致新20180124\Leafblower.c"
 414  0000  0F43        	mov a,67
 414  0001  80EE 0001   	lmov [366],a
 415  0003              #line 415 "C:\Users\steven.ho\Desktop\致新20180124\Leafblower.c"
 415  0003  0F10        	mov a,16
 415  0004  80F0 0001   	lmov [368],a
 416  0006              #line 416 "C:\Users\steven.ho\Desktop\致新20180124\Leafblower.c"
 416  0006  0FA5        	mov a,165
 416  0007  80EF 0001   	lmov [367],a
 417  0009              #line 417 "C:\Users\steven.ho\Desktop\致新20180124\Leafblower.c"
 417  0009  1FF2        	set [114]
 418  000A              #line 418 "C:\Users\steven.ho\Desktop\致新20180124\Leafblower.c"
 418  000A  31CB        	set [75].3
 419  000B              #line 419 "C:\Users\steven.ho\Desktop\致新20180124\Leafblower.c"
 419  000B  304B        	set [75].0
 420  000C              #line 420 "C:\Users\steven.ho\Desktop\致新20180124\Leafblower.c"
 420  000C  1F44        	clr [68]
 421  000D              #line 421 "C:\Users\steven.ho\Desktop\致新20180124\Leafblower.c"
"File: Leafblower.c  Assembler  Version HGASM0202      Page 21

 421  000D  3115        	set [21].2
 422  000E              #line 422 "C:\Users\steven.ho\Desktop\致新20180124\Leafblower.c"
 422  000E  3695        	clr [21].5
 422  000F  0003        	ret
 422  0010              _Comparator_Init endp
 422  0010              #line 422 "C:\Users\steven.ho\Desktop\致新20180124\Leafblower.c"
 422  0010              #pragma debug scope 1 1
 422  0010              public _ISR_OCP
 422  0010              #pragma debug scope 7 1
 430  0010              #line 430 "C:\Users\steven.ho\Desktop\致新20180124\Leafblower.c"
 430  0000              @ISR_OCP_code .section at 8 'code'
 430  0000  0080     E  	mov r1,a
 430  0001  070A        	mov a,status
 430  0002  0080     E  	mov r2,a
 430  0003  2800     R  	jmp _ISR_OCP
 430  0004              #pragma debug scope 1 1
 430  0004              @dummy8 endp
 430  0004              #pragma debug scope 8 1
 430  0000              _ISR_OCP .section 'code'
 430  0000              _ISR_OCP proc
 431  0000              #line 431 "C:\Users\steven.ho\Desktop\致新20180124\Leafblower.c"
 431  0000  3695        	clr [21].5
 432  0001              #line 432 "C:\Users\steven.ho\Desktop\致新20180124\Leafblower.c"
 432  0001  7181        	set [129].3
 432  0002  0700     E  	mov a,r2
 432  0003  008A        	mov status,a
 432  0004  0700     E  	mov a,r1
 432  0005  0004        	reti
 432  0006              _ISR_OCP endp
 432  0006              
 432  0006              #line 432 "C:\Users\steven.ho\Desktop\致新20180124\Leafblower.c"
 432  0006              #pragma debug scope 1 1
 432  0006              ___pwmc equ [87]
 432  0006              ___prdrh equ [95]
 432  0006              ___prdrl equ [94]
 432  0006              ___dutr3h equ [78]
 432  0006              ___dutr3l equ [77]
 432  0006              ___mcf equ [100]
 432  0006              ___dts equ [102]
 432  0006              ___hdcr equ [73]
 432  0006              ___integ0 equ [69]
 432  0006              ___hdcd equ [74]
 432  0006              ___pwmme equ [98]
 432  0006              ___pwmmd equ [99]
 432  0006              public _PWMInit
 432  0006              #pragma debug scope 9 1
 440  0006              #line 440 "C:\Users\steven.ho\Desktop\致新20180124\Leafblower.c"
 440  0000              _PWMInit .section 'code'
 440  0000              _PWMInit proc
 441  0000              #line 441 "C:\Users\steven.ho\Desktop\致新20180124\Leafblower.c"
 441  0000  0F31        	mov a,49
 441  0001  00D7        	mov [87],a
 442  0002              #line 442 "C:\Users\steven.ho\Desktop\致新20180124\Leafblower.c"
 442  0002  0F07        	mov a,7
 442  0003  80D5 0001   	lmov [341],a
 443  0005              #line 443 "C:\Users\steven.ho\Desktop\致新20180124\Leafblower.c"
 443  0005  0F03        	mov a,3
 443  0006  00DF        	mov [95],a
 444  0007              #line 444 "C:\Users\steven.ho\Desktop\致新20180124\Leafblower.c"
 444  0007  1FDE        	set [94]
"File: Leafblower.c  Assembler  Version HGASM0202      Page 22

 445  0008              #line 445 "C:\Users\steven.ho\Desktop\致新20180124\Leafblower.c"
 445  0008  0F01        	mov a,1
 445  0009  00CE        	mov [78],a
 446  000A              #line 446 "C:\Users\steven.ho\Desktop\致新20180124\Leafblower.c"
 446  000A  1FCD        	set [77]
 447  000B              #line 447 "C:\Users\steven.ho\Desktop\致新20180124\Leafblower.c"
 447  000B  1F59        	clr [89]
 448  000C              #line 448 "C:\Users\steven.ho\Desktop\致新20180124\Leafblower.c"
 448  000C  0F27        	mov a,39
 448  000D  00D8        	mov [88],a
 449  000E              #line 449 "C:\Users\steven.ho\Desktop\致新20180124\Leafblower.c"
 449  000E  B155 0001   	lset [341].2
 451  0010              #line 451 "C:\Users\steven.ho\Desktop\致新20180124\Leafblower.c"
 451  0010  0F0D        	mov a,13
 451  0011  00E4        	mov [100],a
 452  0012              #line 452 "C:\Users\steven.ho\Desktop\致新20180124\Leafblower.c"
 452  0012  0FE6        	mov a,230
 452  0013  00E6        	mov [102],a
 453  0014              #line 453 "C:\Users\steven.ho\Desktop\致新20180124\Leafblower.c"
 453  0014  0FD1        	mov a,209
 453  0015  00C9        	mov [73],a
 454  0016              #line 454 "C:\Users\steven.ho\Desktop\致新20180124\Leafblower.c"
 454  0016  1F45        	clr [69]
 455  0017              #line 455 "C:\Users\steven.ho\Desktop\致新20180124\Leafblower.c"
 455  0017  1F4A        	clr [74]
 456  0018              #line 456 "C:\Users\steven.ho\Desktop\致新20180124\Leafblower.c"
 456  0018  1FE2        	set [98]
 457  0019              #line 457 "C:\Users\steven.ho\Desktop\致新20180124\Leafblower.c"
 457  0019  1F63        	clr [99]
 458  001A              #line 458 "C:\Users\steven.ho\Desktop\致新20180124\Leafblower.c"
 458  001A  31D7        	set [87].3
 458  001B  0003        	ret
 458  001C              _PWMInit endp
 458  001C              #line 458 "C:\Users\steven.ho\Desktop\致新20180124\Leafblower.c"
 458  001C              #pragma debug scope 1 1
 458  001C              ___hnf_msel equ [345]
 458  001C              ___hchk_num equ [344]
 458  001C              ___hdct0 equ [354]
 458  001C              ___hdct1 equ [355]
 458  001C              ___hdct2 equ [356]
 458  001C              ___hdct3 equ [357]
 458  001C              ___hdct4 equ [358]
 458  001C              ___hdct5 equ [359]
 458  001C              ___hdct6 equ [360]
 458  001C              ___hdct7 equ [361]
 458  001C              ___hdct8 equ [362]
 458  001C              ___hdct9 equ [363]
 458  001C              ___hdct10 equ [364]
 458  001C              ___hdct11 equ [365]
 458  001C              public _Hall_Init
 458  001C              #pragma debug scope 10 1
 467  001C              #line 467 "C:\Users\steven.ho\Desktop\致新20180124\Leafblower.c"
 467  0000              _Hall_Init .section 'code'
 467  0000              _Hall_Init proc
 468  0000              #line 468 "C:\Users\steven.ho\Desktop\致新20180124\Leafblower.c"
 468  0000  0FD1        	mov a,209
 468  0001  00C9        	mov [73],a
 469  0002              #line 469 "C:\Users\steven.ho\Desktop\致新20180124\Leafblower.c"
 469  0002  1F4A        	clr [74]
 470  0003              #line 470 "C:\Users\steven.ho\Desktop\致新20180124\Leafblower.c"
"File: Leafblower.c  Assembler  Version HGASM0202      Page 23

 470  0003  0F0B        	mov a,11
 470  0004  80D9 0001   	lmov [345],a
 471  0006              #line 471 "C:\Users\steven.ho\Desktop\致新20180124\Leafblower.c"
 471  0006  0F0F        	mov a,15
 471  0007  80D8 0001   	lmov [344],a
 473  0009              #line 473 "C:\Users\steven.ho\Desktop\致新20180124\Leafblower.c"
 473  0009  0F25        	mov a,37
 473  000A  80E2 0001   	lmov [354],a
 474  000C              #line 474 "C:\Users\steven.ho\Desktop\致新20180124\Leafblower.c"
 474  000C  9F63 0001   	lclr [355]
 476  000E              #line 476 "C:\Users\steven.ho\Desktop\致新20180124\Leafblower.c"
 476  000E  0F12        	mov a,18
 476  000F  80E4 0001   	lmov [356],a
 477  0011              #line 477 "C:\Users\steven.ho\Desktop\致新20180124\Leafblower.c"
 477  0011  0F06        	mov a,6
 477  0012  80E5 0001   	lmov [357],a
 478  0014              #line 478 "C:\Users\steven.ho\Desktop\致新20180124\Leafblower.c"
 478  0014  0F24        	mov a,36
 478  0015  80E6 0001   	lmov [358],a
 479  0017              #line 479 "C:\Users\steven.ho\Desktop\致新20180124\Leafblower.c"
 479  0017  0F21        	mov a,33
 479  0018  80E7 0001   	lmov [359],a
 481  001A              #line 481 "C:\Users\steven.ho\Desktop\致新20180124\Leafblower.c"
 481  001A  0F18        	mov a,24
 481  001B  80E8 0001   	lmov [360],a
 482  001D              #line 482 "C:\Users\steven.ho\Desktop\致新20180124\Leafblower.c"
 482  001D  0F12        	mov a,18
 482  001E  80E9 0001   	lmov [361],a
 483  0020              #line 483 "C:\Users\steven.ho\Desktop\致新20180124\Leafblower.c"
 483  0020  0F06        	mov a,6
 483  0021  80EA 0001   	lmov [362],a
 484  0023              #line 484 "C:\Users\steven.ho\Desktop\致新20180124\Leafblower.c"
 484  0023  0F24        	mov a,36
 484  0024  80EB 0001   	lmov [363],a
 485  0026              #line 485 "C:\Users\steven.ho\Desktop\致新20180124\Leafblower.c"
 485  0026  0F21        	mov a,33
 485  0027  80EC 0001   	lmov [364],a
 486  0029              #line 486 "C:\Users\steven.ho\Desktop\致新20180124\Leafblower.c"
 486  0029  0F09        	mov a,9
 486  002A  80ED 0001   	lmov [365],a
 488  002C              #line 488 "C:\Users\steven.ho\Desktop\致新20180124\Leafblower.c"
 488  002C  35C9        	clr [73].3
 489  002D              #line 489 "C:\Users\steven.ho\Desktop\致新20180124\Leafblower.c"
 489  002D              ;# 489 "C:\Users\steven.ho\Desktop\致新20180124\Leafblower.c" 1
 489  002D  0001        	CLR	WDT
 489  002E  0003        	ret
 489  002F              _Hall_Init endp
 489  002F              #line 489 "C:\Users\steven.ho\Desktop\致新20180124\Leafblower.c"
 489  002F              #pragma debug scope 1 1
 489  002F              ___captc0 equ [46]
 489  002F              ___captc1 equ [47]
 489  002F              ___captmal equ [50]
 489  002F              ___captmah equ [51]
 489  002F              public _CAPTM_Init
 489  002F              #pragma debug scope 11 1
 498  002F              #line 498 "C:\Users\steven.ho\Desktop\致新20180124\Leafblower.c"
 498  0000              _CAPTM_Init .section 'code'
 498  0000              _CAPTM_Init proc
 499  0000              #line 499 "C:\Users\steven.ho\Desktop\致新20180124\Leafblower.c"
 499  0000  0F60        	mov a,96
"File: Leafblower.c  Assembler  Version HGASM0202      Page 24

 499  0001  00AE        	mov [46],a
 500  0002              #line 500 "C:\Users\steven.ho\Desktop\致新20180124\Leafblower.c"
 500  0002  0FEF        	mov a,239
 500  0003  00AF        	mov [47],a
 502  0004              #line 502 "C:\Users\steven.ho\Desktop\致新20180124\Leafblower.c"
 502  0004  1F32        	clr [50]
 503  0005              #line 503 "C:\Users\steven.ho\Desktop\致新20180124\Leafblower.c"
 503  0005  1FB3        	set [51]
 504  0006              #line 504 "C:\Users\steven.ho\Desktop\致新20180124\Leafblower.c"
 504  0006  31AE        	set [46].3
 504  0007  0003        	ret
 504  0008              _CAPTM_Init endp
 504  0008              #line 504 "C:\Users\steven.ho\Desktop\致新20180124\Leafblower.c"
 504  0008              #pragma debug scope 1 1
 504  0008              public _INT_Init
 504  0008              #pragma debug scope 12 1
 513  0008              #line 513 "C:\Users\steven.ho\Desktop\致新20180124\Leafblower.c"
 513  0000              _INT_Init .section 'code'
 513  0000              _INT_Init proc
 514  0000              #line 514 "C:\Users\steven.ho\Desktop\致新20180124\Leafblower.c"
 514  0000  3195        	set [21].3
 515  0001              #line 515 "C:\Users\steven.ho\Desktop\致新20180124\Leafblower.c"
 515  0001  3715        	clr [21].6
 515  0002  0003        	ret
 515  0003              _INT_Init endp
 515  0003              #line 515 "C:\Users\steven.ho\Desktop\致新20180124\Leafblower.c"
 515  0003              #pragma debug scope 1 1
 515  0003              ___ptm3al equ [373]
 515  0003              ___ptm3ah equ [374]
 515  0003              ___mfi0 equ [25]
 515  0003              public _Varitate_Init
 515  0003              #pragma debug scope 13 1
 523  0003              #line 523 "C:\Users\steven.ho\Desktop\致新20180124\Leafblower.c"
 523  0000              _Varitate_Init .section 'code'
 523  0000              _Varitate_Init proc
 524  0000              #line 524 "C:\Users\steven.ho\Desktop\致新20180124\Leafblower.c"
 524  0000  0F14        	mov a,20
 524  0001  0080     R  	mov _ucDragDelayTime[0],a
 525  0002              #line 525 "C:\Users\steven.ho\Desktop\致新20180124\Leafblower.c"
 525  0002  0F01        	mov a,1
 525  0003  0080     R  	mov _ucTempDragDelayTime[0],a
 526  0004              #line 526 "C:\Users\steven.ho\Desktop\致新20180124\Leafblower.c"
 526  0004  0F0A        	mov a,10
 526  0005  0080     R  	mov _ucMinDragDelayTime[0],a
 527  0006              #line 527 "C:\Users\steven.ho\Desktop\致新20180124\Leafblower.c"
 527  0006  0F06        	mov a,6
 527  0007  0080     R  	mov _ucDragPWM_BaseInc[0],a
 528  0008              #line 528 "C:\Users\steven.ho\Desktop\致新20180124\Leafblower.c"
 528  0008  0F1B        	mov a,27
 528  0009  0080     R  	mov _uiDragPWM_Max[0],a
 528  000A  0F03        	mov a,3
 528  000B  0080     R  	mov _uiDragPWM_Max[1],a
 530  000C              #line 530 "C:\Users\steven.ho\Desktop\致新20180124\Leafblower.c"
 530  000C  0F0C        	mov a,12
 530  000D  80D8 0001   	lmov [344],a
 531  000F              #line 531 "C:\Users\steven.ho\Desktop\致新20180124\Leafblower.c"
 531  000F  1F00     R  	clr _uiDragPWM[0]
 531  0010  1F00     R  	clr _uiDragPWM[1]
 532  0011              #line 532 "C:\Users\steven.ho\Desktop\致新20180124\Leafblower.c"
 532  0011  7600        	clr [128].4
"File: Leafblower.c  Assembler  Version HGASM0202      Page 25

 533  0012              #line 533 "C:\Users\steven.ho\Desktop\致新20180124\Leafblower.c"
 533  0012  1F00     R  	clr _ucHallCnt[0]
 534  0013              #line 534 "C:\Users\steven.ho\Desktop\致新20180124\Leafblower.c"
 534  0013  7500        	clr [128].2
 535  0014              #line 535 "C:\Users\steven.ho\Desktop\致新20180124\Leafblower.c"
 535  0014  7400        	clr [128].0
 536  0015              #line 536 "C:\Users\steven.ho\Desktop\致新20180124\Leafblower.c"
 536  0015  1F00     R  	clr _ucHallCycle[0]
 537  0016              #line 537 "C:\Users\steven.ho\Desktop\致新20180124\Leafblower.c"
 537  0016  7680        	clr [128].5
 538  0017              #line 538 "C:\Users\steven.ho\Desktop\致新20180124\Leafblower.c"
 538  0017  7480        	clr [128].1
 539  0018              #line 539 "C:\Users\steven.ho\Desktop\致新20180124\Leafblower.c"
 539  0018  7180        	set [128].3
 540  0019              #line 540 "C:\Users\steven.ho\Desktop\致新20180124\Leafblower.c"
 540  0019  0F20        	mov a,32
 540  001A  0080     R  	mov _uiLastHallTime[0],a
 540  001B  0F03        	mov a,3
 540  001C  0080     R  	mov _uiLastHallTime[1],a
 541  001D              #line 541 "C:\Users\steven.ho\Desktop\致新20180124\Leafblower.c"
 541  001D  0FFA        	mov a,250
 541  001E  80F5 0001   	lmov [373],a
 542  0020              #line 542 "C:\Users\steven.ho\Desktop\致新20180124\Leafblower.c"
 542  0020  9F76 0001   	lclr [374]
 544  0022              #line 544 "C:\Users\steven.ho\Desktop\致新20180124\Leafblower.c"
 544  0022  3419        	clr [25].0
 545  0023              #line 545 "C:\Users\steven.ho\Desktop\致新20180124\Leafblower.c"
 545  0023  3499        	clr [25].1
 546  0024              #line 546 "C:\Users\steven.ho\Desktop\致新20180124\Leafblower.c"
 546  0024  3519        	clr [25].2
 547  0025              #line 547 "C:\Users\steven.ho\Desktop\致新20180124\Leafblower.c"
 547  0025  3095        	set [21].1
 548  0026              #line 548 "C:\Users\steven.ho\Desktop\致新20180124\Leafblower.c"
 548  0026  3619        	clr [25].4
 549  0027              #line 549 "C:\Users\steven.ho\Desktop\致新20180124\Leafblower.c"
 549  0027  3699        	clr [25].5
 550  0028              #line 550 "C:\Users\steven.ho\Desktop\致新20180124\Leafblower.c"
 550  0028  3719        	clr [25].6
 551  0029              #line 551 "C:\Users\steven.ho\Desktop\致新20180124\Leafblower.c"
 551  0029  3615        	clr [21].4
 551  002A  0003        	ret
 551  002B              _Varitate_Init endp
 551  002B              #line 551 "C:\Users\steven.ho\Desktop\致新20180124\Leafblower.c"
 551  002B              #pragma debug scope 1 1
 551  002B              public _delay1
 551  002B              #pragma debug scope 14 1
 559  002B              #line 559 "C:\Users\steven.ho\Desktop\致新20180124\Leafblower.c"
 559  0000              _delay1 .section 'code'
 559  0000              _delay1 proc
 559  0000  0002[           local _delay1_2 db 2 dup(?)	; 0,2
            00
            ]
 559  0000  0080     R  	mov _delay1_2[1],a
 559  0001              #pragma debug variable 8 14 _delay1_2+1 "n"
 559  0001              #pragma debug variable 8 14 _delay1_2+0 "j"
 561  0001              #line 561 "C:\Users\steven.ho\Desktop\致新20180124\Leafblower.c"
 561  0001  1F00     R  	clr _delay1_2[0]
 561  0002  2800     R  	jmp _L45
 561  0003              _L46:
 562  0003              #line 562 "C:\Users\steven.ho\Desktop\致新20180124\Leafblower.c"
"File: Leafblower.c  Assembler  Version HGASM0202      Page 26

 562  0003              ;# 562 "C:\Users\steven.ho\Desktop\致新20180124\Leafblower.c" 1
 562  0003  0001        	CLR	WDT
 561  0004              #line 561 "C:\Users\steven.ho\Desktop\致新20180124\Leafblower.c"
 561  0004  0700     R  	mov a,_delay1_2[0]
 561  0005  0080     E  	mov ra,a
 561  0006  1400     E  	inca ra
 561  0007  0080     R  	mov _delay1_2[0],a
 561  0008              _L45:
 561  0008  0700     R  	mov a,_delay1_2[0]
 561  0009  0200     R  	sub a,_delay1_2[1]
 561  000A  380A        	snz c
 561  000B  2800     R  	jmp _L46
 561  000C  0003        	ret
 561  000D              _delay1 endp
 561  000D              #line 561 "C:\Users\steven.ho\Desktop\致新20180124\Leafblower.c"
 561  000D              #pragma debug scope 1 1
 561  000D              public _delay
 561  000D              #pragma debug scope 15 1
 570  000D              #line 570 "C:\Users\steven.ho\Desktop\致新20180124\Leafblower.c"
 570  0000              _delay .section 'code'
 570  0000              _delay proc
 570  0000              public _delay_2
 570  0000  0006[           local _delay_2 db 6 dup(?)	; 2,4
            00
            ]
 570  0006              #pragma debug variable 12 15 _delay_2+0 "x"
 570  0006              #pragma debug variable 12 15 _delay_2+2 "i"
 570  0006              #pragma debug variable 8 15 _delay_2+4 "j"
 570  0006              #pragma debug variable 8 15 _delay_2+5 "k"
 574  0006              #line 574 "C:\Users\steven.ho\Desktop\致新20180124\Leafblower.c"
 574  0000  1F00     R  	clr _delay_2[2]
 574  0001  1F00     R  	clr _delay_2[3]
 574  0002  2800     R  	jmp _L48
 574  0003              _L53:
 575  0003              #line 575 "C:\Users\steven.ho\Desktop\致新20180124\Leafblower.c"
 575  0003  1F00     R  	clr _delay_2[4]
 575  0004  2800     R  	jmp _L49
 575  0005              _L52:
 576  0005              #line 576 "C:\Users\steven.ho\Desktop\致新20180124\Leafblower.c"
 576  0005  1F00     R  	clr _delay_2[5]
 576  0006  2800     R  	jmp _L50
 576  0007              _L51:
 577  0007              #line 577 "C:\Users\steven.ho\Desktop\致新20180124\Leafblower.c"
 577  0007              ;# 577 "C:\Users\steven.ho\Desktop\致新20180124\Leafblower.c" 1
 577  0007  0001        	CLR	WDT
 576  0008              #line 576 "C:\Users\steven.ho\Desktop\致新20180124\Leafblower.c"
 576  0008  0700     R  	mov a,_delay_2[5]
 576  0009  0080     E  	mov ra,a
 576  000A  1400     E  	inca ra
 576  000B  0080     R  	mov _delay_2[5],a
 576  000C              _L50:
 576  000C  0F1D        	mov a,29
 576  000D  0200     R  	sub a,_delay_2[5]
 576  000E  3C0A        	sz c
 576  000F  2800     R  	jmp _L51
 575  0010              #line 575 "C:\Users\steven.ho\Desktop\致新20180124\Leafblower.c"
 575  0010  0700     R  	mov a,_delay_2[4]
 575  0011  0080     E  	mov ra,a
 575  0012  1400     E  	inca ra
 575  0013  0080     R  	mov _delay_2[4],a
"File: Leafblower.c  Assembler  Version HGASM0202      Page 27

 575  0014              _L49:
 575  0014  0F0A        	mov a,10
 575  0015  0200     R  	sub a,_delay_2[4]
 575  0016  3C0A        	sz c
 575  0017  2800     R  	jmp _L52
 574  0018              #line 574 "C:\Users\steven.ho\Desktop\致新20180124\Leafblower.c"
 574  0018  1480     R  	inc _delay_2[2]
 574  0019  3D0A        	sz z
 574  001A  1480     R  	inc _delay_2[3]
 574  001B              _L48:
 574  001B  0700     R  	mov a,_delay_2[2]
 574  001C  0200     R  	sub a,_delay_2[0]
 574  001D  0700     R  	mov a,_delay_2[3]
 574  001E  1200     R  	sbc a,_delay_2[1]
 574  001F  380A        	snz c
 574  0020  2800     R  	jmp _L53
 574  0021  0003        	ret
 574  0022              _delay endp
 574  0022              #line 574 "C:\Users\steven.ho\Desktop\致新20180124\Leafblower.c"
 574  0022              #pragma debug scope 1 1
 574  0022              ___ptm3c0 equ [369]
 574  0022              public _Drag_Motor
 574  0022              #pragma debug scope 16 1
 586  0022              #line 586 "C:\Users\steven.ho\Desktop\致新20180124\Leafblower.c"
 586  0000              _Drag_Motor .section 'code'
 586  0000              _Drag_Motor proc
 586  0000  00              local _Drag_Motor_2 db 1 dup(?)	; 0,1
 586  0001              #pragma debug variable 8 16 _Drag_Motor_2+0 "temp"
 588  0001              #line 588 "C:\Users\steven.ho\Desktop\致新20180124\Leafblower.c"
 588  0000  0700     R  	mov a,_uiDragPWM[0]
 588  0001  0080     E  	mov rc,a
 588  0002  0700     R  	mov a,_uiDragPWM[1]
 588  0003  0080     E  	mov rd,a
 588  0004  0700     R  	mov a,_uiVR_Value[0]
 588  0005  0080     E  	mov ra,a
 588  0006  0700     R  	mov a,_uiVR_Value[1]
 588  0007  0080     E  	mov rb,a
 588  0008  0700     E  	mov a,rc
 588  0009  0200     E  	sub a,ra
 588  000A  0700     E  	mov a,rd
 588  000B  1200     E  	sbc a,rb
 588  000C  3C0A        	sz c
 588  000D  2800     R  	jmp _L55
 590  000E              #line 590 "C:\Users\steven.ho\Desktop\致新20180124\Leafblower.c"
 590  000E  0700     R  	mov a,_uiVR_Value[0]
 590  000F  0080     E  	mov ra,a
 590  0010  0700     R  	mov a,_uiVR_Value[1]
 590  0011  0080     E  	mov rb,a
 590  0012  0700     E  	mov a,ra
 590  0013  0080     R  	mov _uiDragPWM[0],a
 590  0014  0700     E  	mov a,rb
 590  0015  0080     R  	mov _uiDragPWM[1],a
 590  0016              _L55:
 592  0016              #line 592 "C:\Users\steven.ho\Desktop\致新20180124\Leafblower.c"
 592  0016  0700     R  	mov a,_uiDragPWM[0]
 592  0017  0080     E  	mov ra,a
 592  0018  0700     R  	mov a,_uiDragPWM[1]
 592  0019  0080     E  	mov rb,a
 592  001A  0F06        	mov a,6
 592  001B  0380     E  	addm a,ra
"File: Leafblower.c  Assembler  Version HGASM0202      Page 28

 592  001C  0F00        	mov a,0
 592  001D  1380     E  	adcm a,rb
 592  001E  0700     E  	mov a,ra
 592  001F  0080     R  	mov _uiDragPWM[0],a
 592  0020  0700     E  	mov a,rb
 592  0021  0080     R  	mov _uiDragPWM[1],a
 593  0022              #line 593 "C:\Users\steven.ho\Desktop\致新20180124\Leafblower.c"
 593  0022  0700     R  	mov a,_uiDragPWM[0]
 593  0023  0080     E  	mov rc,a
 593  0024  0700     R  	mov a,_uiDragPWM[1]
 593  0025  0080     E  	mov rd,a
 593  0026  0700     R  	mov a,_uiDragPWM_Max[0]
 593  0027  0080     E  	mov ra,a
 593  0028  0700     R  	mov a,_uiDragPWM_Max[1]
 593  0029  0080     E  	mov rb,a
 593  002A  0700     E  	mov a,ra
 593  002B  0200     E  	sub a,rc
 593  002C  0700     E  	mov a,rb
 593  002D  1200     E  	sbc a,rd
 593  002E  3C0A        	sz c
 593  002F  2800     R  	jmp _L56
 595  0030              #line 595 "C:\Users\steven.ho\Desktop\致新20180124\Leafblower.c"
 595  0030  0700     R  	mov a,_uiDragPWM_Max[0]
 595  0031  0080     E  	mov ra,a
 595  0032  0700     R  	mov a,_uiDragPWM_Max[1]
 595  0033  0080     E  	mov rb,a
 595  0034  0700     E  	mov a,ra
 595  0035  0080     R  	mov _uiDragPWM[0],a
 595  0036  0700     E  	mov a,rb
 595  0037  0080     R  	mov _uiDragPWM[1],a
 595  0038              _L56:
 597  0038              #line 597 "C:\Users\steven.ho\Desktop\致新20180124\Leafblower.c"
 597  0038  0700     R  	mov a,_uiDragPWM[0]
 597  0039  0080     E  	mov ra,a
 597  003A  0700     R  	mov a,_uiDragPWM[1]
 597  003B  0080     E  	mov rb,a
 597  003C  0700     E  	mov a,rb
 597  003D  0080     E  	mov ra,a
 597  003E  1F00     E  	clr rb
 597  003F  0700     E  	mov a,ra
 597  0040  0080     R  	mov _Drag_Motor_2[0],a
 598  0041              #line 598 "C:\Users\steven.ho\Desktop\致新20180124\Leafblower.c"
 598  0041  0700     R  	mov a,_Drag_Motor_2[0]
 598  0042  00D9        	mov [89],a
 600  0043              #line 600 "C:\Users\steven.ho\Desktop\致新20180124\Leafblower.c"
 600  0043  0700     R  	mov a,_uiDragPWM[0]
 600  0044  0080     E  	mov ra,a
 600  0045  0700     R  	mov a,_uiDragPWM[1]
 600  0046  0080     E  	mov rb,a
 600  0047  0700     E  	mov a,ra
 600  0048  0080     R  	mov _Drag_Motor_2[0],a
 601  0049              #line 601 "C:\Users\steven.ho\Desktop\致新20180124\Leafblower.c"
 601  0049  0700     R  	mov a,_Drag_Motor_2[0]
 601  004A  00D8        	mov [88],a
 602  004B              #line 602 "C:\Users\steven.ho\Desktop\致新20180124\Leafblower.c"
 602  004B  B155 0001   	lset [341].2
 603  004D              #line 603 "C:\Users\steven.ho\Desktop\致新20180124\Leafblower.c"
 603  004D  3019        	set [25].0
 604  004E              #line 604 "C:\Users\steven.ho\Desktop\致新20180124\Leafblower.c"
 604  004E  3099        	set [25].1
"File: Leafblower.c  Assembler  Version HGASM0202      Page 29

 605  004F              #line 605 "C:\Users\steven.ho\Desktop\致新20180124\Leafblower.c"
 605  004F  3119        	set [25].2
 607  0050              #line 607 "C:\Users\steven.ho\Desktop\致新20180124\Leafblower.c"
 607  0050  2000     R  	call _commutation
 608  0051              #line 608 "C:\Users\steven.ho\Desktop\致新20180124\Leafblower.c"
 608  0051  B1F1 0001   	lset [369].3
 610  0053              #line 610 "C:\Users\steven.ho\Desktop\致新20180124\Leafblower.c"
 610  0053  0700     R  	mov a,_ucDragDelayTime[0]
 610  0054  0080     E  	mov rb,a
 610  0055  0700     R  	mov a,_ucMinDragDelayTime[0]
 610  0056  0080     E  	mov ra,a
 610  0057  0700     E  	mov a,ra
 610  0058  0200     E  	sub a,rb
 610  0059  3C0A        	sz c
 610  005A  2800     R  	jmp _L54
 612  005B              #line 612 "C:\Users\steven.ho\Desktop\致新20180124\Leafblower.c"
 612  005B  0700     R  	mov a,_ucDragDelayTime[0]
 612  005C  0080     E  	mov rb,a
 612  005D  0700     R  	mov a,_ucTempDragDelayTime[0]
 612  005E  0080     E  	mov ra,a
 612  005F  0700     E  	mov a,rb
 612  0060  0280     E  	subm a,ra
 612  0061  0700     E  	mov a,ra
 612  0062  0080     R  	mov _ucDragDelayTime[0],a
 613  0063              #line 613 "C:\Users\steven.ho\Desktop\致新20180124\Leafblower.c"
 613  0063  0700     R  	mov a,_ucTempDragDelayTime[0]
 613  0064  0080     E  	mov ra,a
 613  0065  0F03        	mov a,3
 613  0066  0200     E  	sub a,ra
 613  0067  380A        	snz c
 613  0068  2800     R  	jmp _L54
 615  0069              #line 615 "C:\Users\steven.ho\Desktop\致新20180124\Leafblower.c"
 615  0069  0700     R  	mov a,_ucTempDragDelayTime[0]
 615  006A  0080     E  	mov ra,a
 615  006B  1480     E  	inc ra
 615  006C  0700     E  	mov a,ra
 615  006D  0080     R  	mov _ucTempDragDelayTime[0],a
 615  006E              _L54:
 615  006E  0003        	ret
 615  006F              _Drag_Motor endp
 615  006F              #line 615 "C:\Users\steven.ho\Desktop\致新20180124\Leafblower.c"
 615  006F              #pragma debug scope 1 1
 615  006F              public _uiHallTimeNew
 615  0000              @HCCINIT	.section 'data'
 624  0000              #line 624 "C:\Users\steven.ho\Desktop\致新20180124\Leafblower.c"
 624  0000              @HCCINIT_uiHallTimeNew .section 'data'
 624  0000              _uiHallTimeNew label byte
 624  0000              #pragma debug variable 12 1 _uiHallTimeNew "uiHallTimeNew"
 624  0000              	db 0
 624  0000              @ROMDATA_BASE .section inpage 'code'
 624  0000              	db 0
 624  0001              @HCCINIT_uiHallTimeNew .section 'data'
 624  0001              	db 0
 624  0001              @ROMDATA_BASE .section inpage 'code'
 624  0001              	db 0
 624  0002              @HCCINIT_uiHallTimeNew .section 'data'
 624  0002              ___ptm1c0 equ [327]
 624  0002              ___ptm1dh equ [330]
 624  0002              ___ptm1dl equ [329]
 624  0002              ___intc3 equ [24]
"File: Leafblower.c  Assembler  Version HGASM0202      Page 30

 624  0002              ___mfi6 equ [31]
 624  0002              public _ISR_HALL
 624  0002              #pragma debug scope 17 1
 626  0002              #line 626 "C:\Users\steven.ho\Desktop\致新20180124\Leafblower.c"
 626  0000              @ISR_HALL_code .section at 4 'code'
 626  0000  0080     E  	mov r1,a
 626  0001  070B        	mov a,bp
 626  0002  0080     E  	mov r2,a
 626  0003  2800     R  	jmp _ISR_HALL
 626  0004              #pragma debug scope 1 1
 626  0004              @dummy4 endp
 626  0004              #pragma debug scope 18 1
 626  0000              _ISR_HALL .section 'code'
 626  0000              _ISR_HALL proc
 626  0000  0005[       local _ISR_HALL_2 db 5 dup(?)
            00
            ]
 626  0000  070A        	mov a,status
 626  0001  0080     E  	mov r3,a
 626  0002  0703        	mov a,mp
 626  0003  0080     E  	mov r4,a
 626  0004  0704        	mov a,sbp
 626  0005  0080     E  	mov r5,a
 626  0006  0707        	mov a,tblp
 626  0007  0080     E  	mov r6,a
 626  0008  0709        	mov a,tbhp
 626  0009  0080     E  	mov r7,a
 626  000A              #pragma debug variable 8 18 _ISR_HALL_2+2 "ucHallTimeTemp"
 626  000A              #pragma debug variable 12 18 _ISR_HALL_2+0 "uiHallTimeNewTemp"
 626  000A              #pragma debug variable 12 18 _ISR_HALL_2+3 "uiHallCheckDelay"
 630  000A              #line 630 "C:\Users\steven.ho\Desktop\致新20180124\Leafblower.c"
 630  000A  3615        	clr [21].4
 632  000B              #line 632 "C:\Users\steven.ho\Desktop\致新20180124\Leafblower.c"
 632  000B  0F07        	mov a,7
 632  000C  0099        	mov [25],a
 633  000D              #line 633 "C:\Users\steven.ho\Desktop\致新20180124\Leafblower.c"
 633  000D  B5C7 0001   	lclr [327].3
 635  000F              #line 635 "C:\Users\steven.ho\Desktop\致新20180124\Leafblower.c"
 635  000F  874A 0001   	lmov a,[330]
 635  0011  0080     E  	mov ra,a
 635  0012  0700     E  	mov a,ra
 635  0013  0080     R  	mov _ISR_HALL_2[0],a
 635  0014  1F00     R  	clr _ISR_HALL_2[1]
 636  0015              #line 636 "C:\Users\steven.ho\Desktop\致新20180124\Leafblower.c"
 636  0015  8749 0001   	lmov a,[329]
 636  0017  0080     R  	mov _ISR_HALL_2[2],a
 638  0018              #line 638 "C:\Users\steven.ho\Desktop\致新20180124\Leafblower.c"
 638  0018  0700     R  	mov a,_ISR_HALL_2[0]
 638  0019  0080     R  	mov _ISR_HALL_2[1],a
 638  001A  1F00     R  	clr _ISR_HALL_2[0]
 639  001B              #line 639 "C:\Users\steven.ho\Desktop\致新20180124\Leafblower.c"
 639  001B  0700     R  	mov a,_ISR_HALL_2[2]
 639  001C  0080     E  	mov ra,a
 639  001D  1F00     E  	clr rb
 639  001E  0700     E  	mov a,rb
 639  001F  0580     R  	orm a,_ISR_HALL_2[1]
 639  0020  0700     E  	mov a,ra
 639  0021  0580     R  	orm a,_ISR_HALL_2[0]
 640  0022              #line 640 "C:\Users\steven.ho\Desktop\致新20180124\Leafblower.c"
 640  0022  0700     R  	mov a,_ISR_HALL_2[0]
"File: Leafblower.c  Assembler  Version HGASM0202      Page 31

 640  0023  0080     R  	mov _uiHallTimeNew[0],a
 640  0024  0700     R  	mov a,_ISR_HALL_2[1]
 640  0025  0080     R  	mov _uiHallTimeNew[1],a
 641  0026              #line 641 "C:\Users\steven.ho\Desktop\致新20180124\Leafblower.c"
 641  0026  B1C7 0001   	lset [327].3
 643  0028              #line 643 "C:\Users\steven.ho\Desktop\致新20180124\Leafblower.c"
 643  0028  4700        	mov a,[128]
 643  0029  0080     E  	mov ra,a
 643  002A  0F10        	mov a,16
 643  002B  0680     E  	andm a,ra
 643  002C  1E00     E  	snz ra
 643  002D  2800     R  	jmp _L59
 645  002E              #line 645 "C:\Users\steven.ho\Desktop\致新20180124\Leafblower.c"
 645  002E  0700     R  	mov a,_ucHallCnt[0]
 645  002F  0080     E  	mov ra,a
 645  0030  0F32        	mov a,50
 645  0031  0200     E  	sub a,ra
 645  0032  3C0A        	sz c
 645  0033  2800     R  	jmp _L60
 646  0034              #line 646 "C:\Users\steven.ho\Desktop\致新20180124\Leafblower.c"
 646  0034  0700     R  	mov a,_uiHallTimeNew[0]
 646  0035  0080     E  	mov ra,a
 646  0036  0700     R  	mov a,_uiHallTimeNew[1]
 646  0037  0080     E  	mov rb,a
 646  0038  340A        	clr c
 646  0039  1A00     E  	rlca ra
 646  003A  0080     E  	mov rc,a
 646  003B  1A00     E  	rlca rb
 646  003C  0080     E  	mov rd,a
 646  003D  340A        	clr c
 646  003E  1A80     E  	rlc rc
 646  003F  1A80     E  	rlc rd
 646  0040  0700     R  	mov a,_uiLastHallTime[0]
 646  0041  0080     E  	mov ra,a
 646  0042  0700     R  	mov a,_uiLastHallTime[1]
 646  0043  0080     E  	mov rb,a
 646  0044  0700     E  	mov a,rc
 646  0045  0200     E  	sub a,ra
 646  0046  0700     E  	mov a,rd
 646  0047  1200     E  	sbc a,rb
 646  0048  3C0A        	sz c
 646  0049  2800     R  	jmp _L60
 648  004A              #line 648 "C:\Users\steven.ho\Desktop\致新20180124\Leafblower.c"
 648  004A  7080        	set [128].1
 648  004B              _L60:
 650  004B              #line 650 "C:\Users\steven.ho\Desktop\致新20180124\Leafblower.c"
 650  004B  0700     R  	mov a,_uiLastHallTime[0]
 650  004C  0080     E  	mov ra,a
 650  004D  0700     R  	mov a,_uiLastHallTime[1]
 650  004E  0080     E  	mov rb,a
 650  004F  0700     E  	mov a,ra
 650  0050  0080     E  	mov rc,a
 650  0051  0700     E  	mov a,rb
 650  0052  0080     E  	mov rd,a
 650  0053  0F03        	mov a,3
 650  0054              _LI1:
 650  0054  340A        	clr c
 650  0055  1B80     E  	rrc rd
 650  0056  1B80     E  	rrc rc
 650  0057  1785        	sdz acc
"File: Leafblower.c  Assembler  Version HGASM0202      Page 32

 650  0058  2800     R  	jmp _LI1
 650  0059  0700     E  	mov a,rc
 650  005A  0080     R  	mov _ISR_HALL_2[3],a
 650  005B  0700     E  	mov a,rd
 650  005C  0080     R  	mov _ISR_HALL_2[4],a
 651  005D              #line 651 "C:\Users\steven.ho\Desktop\致新20180124\Leafblower.c"
 651  005D  0700     R  	mov a,_ISR_HALL_2[3]
 651  005E  0080     E  	mov ra,a
 651  005F  0700     E  	mov a,ra
 651  0060  80F5 0001   	lmov [373],a
 652  0062              #line 652 "C:\Users\steven.ho\Desktop\致新20180124\Leafblower.c"
 652  0062  0700     R  	mov a,_ISR_HALL_2[3]
 652  0063  0080     E  	mov ra,a
 652  0064  0700     R  	mov a,_ISR_HALL_2[4]
 652  0065  0080     E  	mov rb,a
 652  0066  0700     E  	mov a,rb
 652  0067  0080     E  	mov ra,a
 652  0068  1F00     E  	clr rb
 652  0069  0700     E  	mov a,ra
 652  006A  80F6 0001   	lmov [374],a
 654  006C              #line 654 "C:\Users\steven.ho\Desktop\致新20180124\Leafblower.c"
 654  006C  0700     R  	mov a,_ucHallCnt[0]
 654  006D  0080     E  	mov ra,a
 654  006E  0FC7        	mov a,199
 654  006F  0200     E  	sub a,ra
 654  0070  380A        	snz c
 654  0071  2800     R  	jmp _L59
 655  0072              #line 655 "C:\Users\steven.ho\Desktop\致新20180124\Leafblower.c"
 655  0072  0700     R  	mov a,_ucHallCnt[0]
 655  0073  0080     E  	mov ra,a
 655  0074  1480     E  	inc ra
 655  0075  0700     E  	mov a,ra
 655  0076  0080     R  	mov _ucHallCnt[0],a
 655  0077              _L59:
 658  0077              #line 658 "C:\Users\steven.ho\Desktop\致新20180124\Leafblower.c"
 658  0077  0700     R  	mov a,_uiHallTimeNew[0]
 658  0078  0080     E  	mov ra,a
 658  0079  0700     R  	mov a,_uiHallTimeNew[1]
 658  007A  0080     E  	mov rb,a
 658  007B  0700     E  	mov a,ra
 658  007C  0080     R  	mov _uiLastHallTime[0],a
 658  007D  0700     E  	mov a,rb
 658  007E  0080     R  	mov _uiLastHallTime[1],a
 659  007F              #line 659 "C:\Users\steven.ho\Desktop\致新20180124\Leafblower.c"
 659  007F  1F00     R  	clr _uiHallTimeCnt[0]
 659  0080  1F00     R  	clr _uiHallTimeCnt[1]
 660  0081              #line 660 "C:\Users\steven.ho\Desktop\致新20180124\Leafblower.c"
 660  0081  2000     R  	call _commutation
 662  0082              #line 662 "C:\Users\steven.ho\Desktop\致新20180124\Leafblower.c"
 662  0082  4700        	mov a,[128]
 662  0083  0080     E  	mov ra,a
 662  0084  0F10        	mov a,16
 662  0085  0680     E  	andm a,ra
 662  0086  1080     E  	sz ra
 662  0087  2800     R  	jmp _L61
 664  0088              #line 664 "C:\Users\steven.ho\Desktop\致新20180124\Leafblower.c"
 664  0088  0700     R  	mov a,_ucHallCycle[0]
 664  0089  0080     E  	mov ra,a
 664  008A  0F01        	mov a,1
 664  008B  0200     E  	sub a,ra
"File: Leafblower.c  Assembler  Version HGASM0202      Page 33

 664  008C  3C0A        	sz c
 664  008D  2800     R  	jmp _L61
 666  008E              #line 666 "C:\Users\steven.ho\Desktop\致新20180124\Leafblower.c"
 666  008E  1F00     R  	clr _ucHallCycle[0]
 667  008F              #line 667 "C:\Users\steven.ho\Desktop\致新20180124\Leafblower.c"
 667  008F  7400        	clr [128].0
 668  0090              #line 668 "C:\Users\steven.ho\Desktop\致新20180124\Leafblower.c"
 668  0090  0700     R  	mov a,_uiDragPWM[0]
 668  0091  0080     E  	mov ra,a
 668  0092  0700     R  	mov a,_uiDragPWM[1]
 668  0093  0080     E  	mov rb,a
 668  0094  0700     E  	mov a,ra
 668  0095  0080     R  	mov _uiTempPWM[0],a
 668  0096  0700     E  	mov a,rb
 668  0097  0080     R  	mov _uiTempPWM[1],a
 669  0098              #line 669 "C:\Users\steven.ho\Desktop\致新20180124\Leafblower.c"
 669  0098  7200        	set [128].4
 670  0099              #line 670 "C:\Users\steven.ho\Desktop\致新20180124\Leafblower.c"
 670  0099  0F08        	mov a,8
 670  009A  80D8 0001   	lmov [344],a
 670  009C              _L61:
 675  009C              #line 675 "C:\Users\steven.ho\Desktop\致新20180124\Leafblower.c"
 675  009C  B5F1 0001   	lclr [369].3
 676  009E              #line 676 "C:\Users\steven.ho\Desktop\致新20180124\Leafblower.c"
 676  009E  B1F1 0001   	lset [369].3
 678  00A0              #line 678 "C:\Users\steven.ho\Desktop\致新20180124\Leafblower.c"
 678  00A0  3718        	clr [24].6
 679  00A1              #line 679 "C:\Users\steven.ho\Desktop\致新20180124\Leafblower.c"
 679  00A1  369F        	clr [31].5
 681  00A2              #line 681 "C:\Users\steven.ho\Desktop\致新20180124\Leafblower.c"
 681  00A2  3615        	clr [21].4
 682  00A3              #line 682 "C:\Users\steven.ho\Desktop\致新20180124\Leafblower.c"
 682  00A3  0F07        	mov a,7
 682  00A4  0099        	mov [25],a
 682  00A5  0700     E  	mov a,r2
 682  00A6  008B        	mov bp,a
 682  00A7  0700     E  	mov a,r3
 682  00A8  008A        	mov status,a
 682  00A9  0700     E  	mov a,r4
 682  00AA  0083        	mov mp,a
 682  00AB  0700     E  	mov a,r5
 682  00AC  0084        	mov sbp,a
 682  00AD  0700     E  	mov a,r6
 682  00AE  0087        	mov tblp,a
 682  00AF  0700     E  	mov a,r7
 682  00B0  0089        	mov tbhp,a
 682  00B1  1D05        	tabrdc acc
 682  00B2  0700     E  	mov a,r1
 682  00B3  0004        	reti
 682  00B4              _ISR_HALL endp
 682  00B4              
 682  00B4              #line 682 "C:\Users\steven.ho\Desktop\致新20180124\Leafblower.c"
 682  00B4              #pragma debug scope 1 1
 682  00B4              public _commutation
 682  00B4              #pragma debug scope 19 1
 690  00B4              #line 690 "C:\Users\steven.ho\Desktop\致新20180124\Leafblower.c"
 690  0000              _commutation .section 'code'
 690  0000              _commutation proc
 691  0000              #line 691 "C:\Users\steven.ho\Desktop\致新20180124\Leafblower.c"
 691  0000  3495        	clr [21].1
"File: Leafblower.c  Assembler  Version HGASM0202      Page 34

 693  0001              #line 693 "C:\Users\steven.ho\Desktop\致新20180124\Leafblower.c"
 693  0001  3026        	set [38].0
 695  0002              #line 695 "C:\Users\steven.ho\Desktop\致新20180124\Leafblower.c"
 695  0002  0700     R  	mov a,_ucHallStep[0]
 695  0003  0080     E  	mov ra,a
 695  0004  1F00     E  	clr rb
 695  0005  0700     E  	mov a,ra
 695  0006  0500     E  	or a,rb
 695  0007  3D0A        	sz z
 695  0008  2800     R  	jmp _L64
 695  0009              #line 695 "C:\Users\steven.ho\Desktop\致新20180124\Leafblower.c"
 695  0009  0700     E  	mov a,ra
 695  000A  0C01        	xor a,1
 695  000B  0500     E  	or a,rb
 695  000C  3D0A        	sz z
 695  000D  2800     R  	jmp _L65
 695  000E  0700     E  	mov a,ra
 695  000F  0C02        	xor a,2
 695  0010  0500     E  	or a,rb
 695  0011  3D0A        	sz z
 695  0012  2800     R  	jmp _L66
 695  0013  0700     E  	mov a,ra
 695  0014  0C03        	xor a,3
 695  0015  0500     E  	or a,rb
 695  0016  3D0A        	sz z
 695  0017  2800     R  	jmp _L67
 695  0018  0700     E  	mov a,ra
 695  0019  0C04        	xor a,4
 695  001A  0500     E  	or a,rb
 695  001B  3D0A        	sz z
 695  001C  2800     R  	jmp _L68
 695  001D  0700     E  	mov a,ra
 695  001E  0C05        	xor a,5
 695  001F  0500     E  	or a,rb
 695  0020  3D0A        	sz z
 695  0021  2800     R  	jmp _L69
 749  0022              #line 749 "C:\Users\steven.ho\Desktop\致新20180124\Leafblower.c"
 749  0022  2800     R  	jmp _L70
 749  0023              _L64:
 698  0023              #line 698 "C:\Users\steven.ho\Desktop\致新20180124\Leafblower.c"
 698  0023  0F64        	mov a,100
 698  0024  2000     R  	call _delay1
 699  0025              #line 699 "C:\Users\steven.ho\Desktop\致新20180124\Leafblower.c"
 699  0025  0F02        	mov a,2
 699  0026  00A9        	mov [41],a
 700  0027              #line 700 "C:\Users\steven.ho\Desktop\致新20180124\Leafblower.c"
 700  0027  9F7C 0001   	lclr [380]
 701  0029              #line 701 "C:\Users\steven.ho\Desktop\致新20180124\Leafblower.c"
 701  0029  0F02        	mov a,2
 701  002A  80FD 0001   	lmov [381],a
 704  002C              #line 704 "C:\Users\steven.ho\Desktop\致新20180124\Leafblower.c"
 704  002C  0F20        	mov a,32
 704  002D  00C5        	mov [69],a
 705  002E              #line 705 "C:\Users\steven.ho\Desktop\致新20180124\Leafblower.c"
 705  002E  2800     R  	jmp _L70
 705  002F              _L65:
 708  002F              #line 708 "C:\Users\steven.ho\Desktop\致新20180124\Leafblower.c"
 708  002F  0F64        	mov a,100
 708  0030  2000     R  	call _delay1
 709  0031              #line 709 "C:\Users\steven.ho\Desktop\致新20180124\Leafblower.c"
"File: Leafblower.c  Assembler  Version HGASM0202      Page 35

 709  0031  0F08        	mov a,8
 709  0032  00A9        	mov [41],a
 712  0033              #line 712 "C:\Users\steven.ho\Desktop\致新20180124\Leafblower.c"
 712  0033  0F04        	mov a,4
 712  0034  00C5        	mov [69],a
 713  0035              #line 713 "C:\Users\steven.ho\Desktop\致新20180124\Leafblower.c"
 713  0035  2800     R  	jmp _L70
 713  0036              _L66:
 716  0036              #line 716 "C:\Users\steven.ho\Desktop\致新20180124\Leafblower.c"
 716  0036  0F64        	mov a,100
 716  0037  2000     R  	call _delay1
 717  0038              #line 717 "C:\Users\steven.ho\Desktop\致新20180124\Leafblower.c"
 717  0038  9F7D 0001   	lclr [381]
 718  003A              #line 718 "C:\Users\steven.ho\Desktop\致新20180124\Leafblower.c"
 718  003A  0F02        	mov a,2
 718  003B  80FC 0001   	lmov [380],a
 721  003D              #line 721 "C:\Users\steven.ho\Desktop\致新20180124\Leafblower.c"
 721  003D  0F02        	mov a,2
 721  003E  00C5        	mov [69],a
 722  003F              #line 722 "C:\Users\steven.ho\Desktop\致新20180124\Leafblower.c"
 722  003F  2800     R  	jmp _L70
 722  0040              _L67:
 725  0040              #line 725 "C:\Users\steven.ho\Desktop\致新20180124\Leafblower.c"
 725  0040  0F64        	mov a,100
 725  0041  2000     R  	call _delay1
 726  0042              #line 726 "C:\Users\steven.ho\Desktop\致新20180124\Leafblower.c"
 726  0042  0F20        	mov a,32
 726  0043  00A9        	mov [41],a
 729  0044              #line 729 "C:\Users\steven.ho\Desktop\致新20180124\Leafblower.c"
 729  0044  0F10        	mov a,16
 729  0045  00C5        	mov [69],a
 730  0046              #line 730 "C:\Users\steven.ho\Desktop\致新20180124\Leafblower.c"
 730  0046  2800     R  	jmp _L70
 730  0047              _L68:
 733  0047              #line 733 "C:\Users\steven.ho\Desktop\致新20180124\Leafblower.c"
 733  0047  0F64        	mov a,100
 733  0048  2000     R  	call _delay1
 734  0049              #line 734 "C:\Users\steven.ho\Desktop\致新20180124\Leafblower.c"
 734  0049  0F20        	mov a,32
 734  004A  80FC 0001   	lmov [380],a
 737  004C              #line 737 "C:\Users\steven.ho\Desktop\致新20180124\Leafblower.c"
 737  004C  0F08        	mov a,8
 737  004D  00C5        	mov [69],a
 738  004E              #line 738 "C:\Users\steven.ho\Desktop\致新20180124\Leafblower.c"
 738  004E  2800     R  	jmp _L70
 738  004F              _L69:
 741  004F              #line 741 "C:\Users\steven.ho\Desktop\致新20180124\Leafblower.c"
 741  004F  0F64        	mov a,100
 741  0050  2000     R  	call _delay1
 742  0051              #line 742 "C:\Users\steven.ho\Desktop\致新20180124\Leafblower.c"
 742  0051  0F02        	mov a,2
 742  0052  00A9        	mov [41],a
 745  0053              #line 745 "C:\Users\steven.ho\Desktop\致新20180124\Leafblower.c"
 745  0053  0F01        	mov a,1
 745  0054  00C5        	mov [69],a
 746  0055              #line 746 "C:\Users\steven.ho\Desktop\致新20180124\Leafblower.c"
 746  0055              	;nop
 746  0055              _L70:
 752  0055              #line 752 "C:\Users\steven.ho\Desktop\致新20180124\Leafblower.c"
 752  0055  0700     R  	mov a,_ucHallStep[0]
"File: Leafblower.c  Assembler  Version HGASM0202      Page 36

 752  0056  0080     E  	mov ra,a
 752  0057  0F04        	mov a,4
 752  0058  0200     E  	sub a,ra
 752  0059  3C0A        	sz c
 752  005A  2800     R  	jmp _L71
 754  005B              #line 754 "C:\Users\steven.ho\Desktop\致新20180124\Leafblower.c"
 754  005B  1F00     R  	clr _ucHallStep[0]
 755  005C              #line 755 "C:\Users\steven.ho\Desktop\致新20180124\Leafblower.c"
 755  005C  0700     R  	mov a,_ucHallCycle[0]
 755  005D  0080     E  	mov ra,a
 755  005E  0FF9        	mov a,249
 755  005F  0200     E  	sub a,ra
 755  0060  380A        	snz c
 755  0061  2800     R  	jmp _L73
 756  0062              #line 756 "C:\Users\steven.ho\Desktop\致新20180124\Leafblower.c"
 756  0062  0700     R  	mov a,_ucHallCycle[0]
 756  0063  0080     E  	mov ra,a
 756  0064  1480     E  	inc ra
 756  0065  0700     E  	mov a,ra
 756  0066  0080     R  	mov _ucHallCycle[0],a
 756  0067  2800     R  	jmp _L73
 756  0068              _L71:
 760  0068              #line 760 "C:\Users\steven.ho\Desktop\致新20180124\Leafblower.c"
 760  0068  0700     R  	mov a,_ucHallStep[0]
 760  0069  0080     E  	mov ra,a
 760  006A  1480     E  	inc ra
 760  006B  0700     E  	mov a,ra
 760  006C  0080     R  	mov _ucHallStep[0],a
 760  006D              _L73:
 762  006D              #line 762 "C:\Users\steven.ho\Desktop\致新20180124\Leafblower.c"
 762  006D  1F00     R  	clr _ucDragCnt[0]
 762  006E  0003        	ret
 762  006F              _commutation endp
 762  006F              #line 762 "C:\Users\steven.ho\Desktop\致新20180124\Leafblower.c"
 762  006F              #pragma debug scope 1 1
 762  006F              public _Motor_Stop
 762  006F              #pragma debug scope 20 1
 774  006F              #line 774 "C:\Users\steven.ho\Desktop\致新20180124\Leafblower.c"
 774  0000              _Motor_Stop .section 'code'
 774  0000              _Motor_Stop proc
 775  0000              #line 775 "C:\Users\steven.ho\Desktop\致新20180124\Leafblower.c"
 775  0000  1F00     R  	clr _uiTempPWM[0]
 775  0001  1F00     R  	clr _uiTempPWM[1]
 776  0002              #line 776 "C:\Users\steven.ho\Desktop\致新20180124\Leafblower.c"
 776  0002  1F59        	clr [89]
 777  0003              #line 777 "C:\Users\steven.ho\Desktop\致新20180124\Leafblower.c"
 777  0003  1F58        	clr [88]
 778  0004              #line 778 "C:\Users\steven.ho\Desktop\致新20180124\Leafblower.c"
 778  0004  B155 0001   	lset [341].2
 779  0006              #line 779 "C:\Users\steven.ho\Desktop\致新20180124\Leafblower.c"
 779  0006  1F4A        	clr [74]
 780  0007              #line 780 "C:\Users\steven.ho\Desktop\致新20180124\Leafblower.c"
 780  0007  1F62        	clr [98]
 781  0008              #line 781 "C:\Users\steven.ho\Desktop\致新20180124\Leafblower.c"
 781  0008  1FE3        	set [99]
 783  0009              #line 783 "C:\Users\steven.ho\Desktop\致新20180124\Leafblower.c"
 783  0009  1F29        	clr [41]
 784  000A              #line 784 "C:\Users\steven.ho\Desktop\致新20180124\Leafblower.c"
 784  000A  9F7C 0001   	lclr [380]
 785  000C              #line 785 "C:\Users\steven.ho\Desktop\致新20180124\Leafblower.c"
"File: Leafblower.c  Assembler  Version HGASM0202      Page 37

 785  000C  9F7D 0001   	lclr [381]
 785  000E  0003        	ret
 785  000F              _Motor_Stop endp
 785  000F              #line 785 "C:\Users\steven.ho\Desktop\致新20180124\Leafblower.c"
 785  000F              #pragma debug scope 1 1
 785  000F              ___ptm2c0 equ [346]
 785  000F              ___mfi3 equ [28]
 785  000F              ___intc2 equ [23]
 785  000F              public _CommandOK
 785  000F              #pragma debug scope 21 1
 794  000F              #line 794 "C:\Users\steven.ho\Desktop\致新20180124\Leafblower.c"
 794  0000              _CommandOK .section 'code'
 794  0000              _CommandOK proc
 795  0000              #line 795 "C:\Users\steven.ho\Desktop\致新20180124\Leafblower.c"
 795  0000  0F01        	mov a,1
 795  0001  0080     R  	mov _ucVoiceStep[0],a
 796  0002              #line 796 "C:\Users\steven.ho\Desktop\致新20180124\Leafblower.c"
 796  0002  0FA0        	mov a,160
 796  0003  80DA 0001   	lmov [346],a
 797  0005              #line 797 "C:\Users\steven.ho\Desktop\致新20180124\Leafblower.c"
 797  0005  361C        	clr [28].4
 798  0006              #line 798 "C:\Users\steven.ho\Desktop\致新20180124\Leafblower.c"
 798  0006  341C        	clr [28].0
 799  0007              #line 799 "C:\Users\steven.ho\Desktop\致新20180124\Leafblower.c"
 799  0007  369C        	clr [28].5
 800  0008              #line 800 "C:\Users\steven.ho\Desktop\致新20180124\Leafblower.c"
 800  0008  349C        	clr [28].1
 801  0009              #line 801 "C:\Users\steven.ho\Desktop\致新20180124\Leafblower.c"
 801  0009  3497        	clr [23].1
 802  000A              #line 802 "C:\Users\steven.ho\Desktop\致新20180124\Leafblower.c"
 802  000A  3697        	clr [23].5
 804  000B              #line 804 "C:\Users\steven.ho\Desktop\致新20180124\Leafblower.c"
 804  000B  0F01        	mov a,1
 804  000C  00D7        	mov [87],a
 805  000D              #line 805 "C:\Users\steven.ho\Desktop\致新20180124\Leafblower.c"
 805  000D  0F03        	mov a,3
 805  000E  00DF        	mov [95],a
 806  000F              #line 806 "C:\Users\steven.ho\Desktop\致新20180124\Leafblower.c"
 806  000F  0F20        	mov a,32
 806  0010  00DE        	mov [94],a
 807  0011              #line 807 "C:\Users\steven.ho\Desktop\致新20180124\Leafblower.c"
 807  0011  1F59        	clr [89]
 808  0012              #line 808 "C:\Users\steven.ho\Desktop\致新20180124\Leafblower.c"
 808  0012  0F27        	mov a,39
 808  0013  00D8        	mov [88],a
 809  0014              #line 809 "C:\Users\steven.ho\Desktop\致新20180124\Leafblower.c"
 809  0014  B155 0001   	lset [341].2
 811  0016              #line 811 "C:\Users\steven.ho\Desktop\致新20180124\Leafblower.c"
 811  0016  0F8D        	mov a,141
 811  0017  00E4        	mov [100],a
 812  0018              #line 812 "C:\Users\steven.ho\Desktop\致新20180124\Leafblower.c"
 812  0018  0FC6        	mov a,198
 812  0019  00E6        	mov [102],a
 813  001A              #line 813 "C:\Users\steven.ho\Desktop\致新20180124\Leafblower.c"
 813  001A  1F4A        	clr [74]
 814  001B              #line 814 "C:\Users\steven.ho\Desktop\致新20180124\Leafblower.c"
 814  001B  7300        	set [128].6
 815  001C              #line 815 "C:\Users\steven.ho\Desktop\致新20180124\Leafblower.c"
 815  001C  31D7        	set [87].3
 817  001D              #line 817 "C:\Users\steven.ho\Desktop\致新20180124\Leafblower.c"
"File: Leafblower.c  Assembler  Version HGASM0202      Page 38

 817  001D  1F62        	clr [98]
 818  001E              #line 818 "C:\Users\steven.ho\Desktop\致新20180124\Leafblower.c"
 818  001E  1FE3        	set [99]
 819  001F              #line 819 "C:\Users\steven.ho\Desktop\致新20180124\Leafblower.c"
 819  001F  1F29        	clr [41]
 820  0020              #line 820 "C:\Users\steven.ho\Desktop\致新20180124\Leafblower.c"
 820  0020  9F7C 0001   	lclr [380]
 821  0022              #line 821 "C:\Users\steven.ho\Desktop\致新20180124\Leafblower.c"
 821  0022  9F7D 0001   	lclr [381]
 821  0024  0003        	ret
 821  0025              _CommandOK endp
 821  0025              #line 821 "C:\Users\steven.ho\Desktop\致新20180124\Leafblower.c"
 821  0025              #pragma debug scope 1 1
 821  0025              ___ptm2c1 equ [347]
 821  0025              ___ptm2al equ [350]
 821  0025              ___ptm2ah equ [351]
 821  0025              ___ptm2rpl equ [352]
 821  0025              ___ptm2rph equ [353]
 821  0025              ___plc equ [103]
 821  0025              _uiVoiceTime equ [384]
 821  0025              public _VoiceSpeakInit
 821  0025              #pragma debug scope 22 1
 831  0025              #line 831 "C:\Users\steven.ho\Desktop\致新20180124\Leafblower.c"
 831  0000              _VoiceSpeakInit .section 'code'
 831  0000              _VoiceSpeakInit proc
 832  0000              #line 832 "C:\Users\steven.ho\Desktop\致新20180124\Leafblower.c"
 832  0000  0FA0        	mov a,160
 832  0001  80DA 0001   	lmov [346],a
 833  0003              #line 833 "C:\Users\steven.ho\Desktop\致新20180124\Leafblower.c"
 833  0003  0FC0        	mov a,192
 833  0004  80DB 0001   	lmov [347],a
 834  0006              #line 834 "C:\Users\steven.ho\Desktop\致新20180124\Leafblower.c"
 834  0006  0F10        	mov a,16
 834  0007  80DE 0001   	lmov [350],a
 835  0009              #line 835 "C:\Users\steven.ho\Desktop\致新20180124\Leafblower.c"
 835  0009  9F5F 0001   	lclr [351]
 836  000B              #line 836 "C:\Users\steven.ho\Desktop\致新20180124\Leafblower.c"
 836  000B  0FE8        	mov a,232
 836  000C  80E0 0001   	lmov [352],a
 837  000E              #line 837 "C:\Users\steven.ho\Desktop\致新20180124\Leafblower.c"
 837  000E  0F01        	mov a,1
 837  000F  80E1 0001   	lmov [353],a
 838  0011              #line 838 "C:\Users\steven.ho\Desktop\致新20180124\Leafblower.c"
 838  0011  0F28        	mov a,40
 838  0012  80DA 0001   	lmov [346],a
 839  0014              #line 839 "C:\Users\steven.ho\Desktop\致新20180124\Leafblower.c"
 839  0014  361C        	clr [28].4
 840  0015              #line 840 "C:\Users\steven.ho\Desktop\致新20180124\Leafblower.c"
 840  0015  301C        	set [28].0
 841  0016              #line 841 "C:\Users\steven.ho\Desktop\致新20180124\Leafblower.c"
 841  0016  369C        	clr [28].5
 842  0017              #line 842 "C:\Users\steven.ho\Desktop\致新20180124\Leafblower.c"
 842  0017  3097        	set [23].1
 843  0018              #line 843 "C:\Users\steven.ho\Desktop\致新20180124\Leafblower.c"
 843  0018  3697        	clr [23].5
 845  0019              #line 845 "C:\Users\steven.ho\Desktop\致新20180124\Leafblower.c"
 845  0019  0F31        	mov a,49
 845  001A  00D7        	mov [87],a
 846  001B              #line 846 "C:\Users\steven.ho\Desktop\致新20180124\Leafblower.c"
 846  001B  0F07        	mov a,7
"File: Leafblower.c  Assembler  Version HGASM0202      Page 39

 846  001C  80D5 0001   	lmov [341],a
 847  001E              #line 847 "C:\Users\steven.ho\Desktop\致新20180124\Leafblower.c"
 847  001E  0F03        	mov a,3
 847  001F  00DF        	mov [95],a
 848  0020              #line 848 "C:\Users\steven.ho\Desktop\致新20180124\Leafblower.c"
 848  0020  1FDE        	set [94]
 849  0021              #line 849 "C:\Users\steven.ho\Desktop\致新20180124\Leafblower.c"
 849  0021  0F01        	mov a,1
 849  0022  00CE        	mov [78],a
 850  0023              #line 850 "C:\Users\steven.ho\Desktop\致新20180124\Leafblower.c"
 850  0023  1FCD        	set [77]
 851  0024              #line 851 "C:\Users\steven.ho\Desktop\致新20180124\Leafblower.c"
 851  0024  1F59        	clr [89]
 852  0025              #line 852 "C:\Users\steven.ho\Desktop\致新20180124\Leafblower.c"
 852  0025  0F20        	mov a,32
 852  0026  00D8        	mov [88],a
 853  0027              #line 853 "C:\Users\steven.ho\Desktop\致新20180124\Leafblower.c"
 853  0027  B155 0001   	lset [341].2
 855  0029              #line 855 "C:\Users\steven.ho\Desktop\致新20180124\Leafblower.c"
 855  0029  0F0D        	mov a,13
 855  002A  00E4        	mov [100],a
 856  002B              #line 856 "C:\Users\steven.ho\Desktop\致新20180124\Leafblower.c"
 856  002B  0FE6        	mov a,230
 856  002C  00E6        	mov [102],a
 857  002D              #line 857 "C:\Users\steven.ho\Desktop\致新20180124\Leafblower.c"
 857  002D  0FD1        	mov a,209
 857  002E  00C9        	mov [73],a
 858  002F              #line 858 "C:\Users\steven.ho\Desktop\致新20180124\Leafblower.c"
 858  002F  1F45        	clr [69]
 859  0030              #line 859 "C:\Users\steven.ho\Desktop\致新20180124\Leafblower.c"
 859  0030  1F4A        	clr [74]
 860  0031              #line 860 "C:\Users\steven.ho\Desktop\致新20180124\Leafblower.c"
 860  0031  1FE2        	set [98]
 861  0032              #line 861 "C:\Users\steven.ho\Desktop\致新20180124\Leafblower.c"
 861  0032  1F63        	clr [99]
 862  0033              #line 862 "C:\Users\steven.ho\Desktop\致新20180124\Leafblower.c"
 862  0033  31D7        	set [87].3
 863  0034              #line 863 "C:\Users\steven.ho\Desktop\致新20180124\Leafblower.c"
 863  0034  1F67        	clr [103]
 864  0035              #line 864 "C:\Users\steven.ho\Desktop\致新20180124\Leafblower.c"
 864  0035  0FAA        	mov a,170
 864  0036  80FC 0001   	lmov [380],a
 865  0038              #line 865 "C:\Users\steven.ho\Desktop\致新20180124\Leafblower.c"
 865  0038  0F0A        	mov a,10
 865  0039  80FD 0001   	lmov [381],a
 867  003B              #line 867 "C:\Users\steven.ho\Desktop\致新20180124\Leafblower.c"
 867  003B  3419        	clr [25].0
 868  003C              #line 868 "C:\Users\steven.ho\Desktop\致新20180124\Leafblower.c"
 868  003C  3499        	clr [25].1
 869  003D              #line 869 "C:\Users\steven.ho\Desktop\致新20180124\Leafblower.c"
 869  003D  3519        	clr [25].2
 870  003E              #line 870 "C:\Users\steven.ho\Desktop\致新20180124\Leafblower.c"
 870  003E  3495        	clr [21].1
 872  003F              #line 872 "C:\Users\steven.ho\Desktop\致新20180124\Leafblower.c"
 872  003F  3619        	clr [25].4
 873  0040              #line 873 "C:\Users\steven.ho\Desktop\致新20180124\Leafblower.c"
 873  0040  3699        	clr [25].5
 874  0041              #line 874 "C:\Users\steven.ho\Desktop\致新20180124\Leafblower.c"
 874  0041  3719        	clr [25].6
 875  0042              #line 875 "C:\Users\steven.ho\Desktop\致新20180124\Leafblower.c"
"File: Leafblower.c  Assembler  Version HGASM0202      Page 40

 875  0042  3615        	clr [21].4
 877  0043              #line 877 "C:\Users\steven.ho\Desktop\致新20180124\Leafblower.c"
 877  0043  0F06        	mov a,6
 877  0044  0080     R  	mov _ucVoiceStep[0],a
 878  0045              #line 878 "C:\Users\steven.ho\Desktop\致新20180124\Leafblower.c"
 878  0045  7780        	clr [128].7
 879  0046              #line 879 "C:\Users\steven.ho\Desktop\致新20180124\Leafblower.c"
 879  0046  0F2C        	mov a,44
 879  0047  C080 0001   	lmov [384],a
 879  0049  0F02        	mov a,2
 879  004A  C081 0001   	lmov [385],a
 879  004C  0003        	ret
 879  004D              _VoiceSpeakInit endp
 879  004D              #line 879 "C:\Users\steven.ho\Desktop\致新20180124\Leafblower.c"
 879  004D              #pragma debug scope 1 1
 879  004D              _ucVoiceCnt equ [404]
 879  004D              _ucLostCommandVoice equ [386]
 879  004D              public _ISR_TM2
 879  004D              #pragma debug scope 23 1
 888  004D              #line 888 "C:\Users\steven.ho\Desktop\致新20180124\Leafblower.c"
 888  0000              @ISR_TM2_code .section at 36 'code'
 888  0000  0080     E  	mov r1,a
 888  0001  070B        	mov a,bp
 888  0002  0080     E  	mov r2,a
 888  0003  2800     R  	jmp _ISR_TM2
 888  0004              #pragma debug scope 1 1
 888  0004              @dummy36 endp
 888  0004              #pragma debug scope 24 1
 888  0000              _ISR_TM2 .section 'code'
 888  0000              _ISR_TM2 proc
 888  0000  070A        	mov a,status
 888  0001  0080     E  	mov r3,a
 888  0002  0703        	mov a,mp
 888  0003  0080     E  	mov r4,a
 888  0004  0704        	mov a,sbp
 888  0005  0080     E  	mov r5,a
 888  0006  0707        	mov a,tblp
 888  0007  0080     E  	mov r6,a
 888  0008  0709        	mov a,tbhp
 888  0009  0080     E  	mov r7,a
 889  000A              #line 889 "C:\Users\steven.ho\Desktop\致新20180124\Leafblower.c"
 889  000A  3697        	clr [23].5
 890  000B              #line 890 "C:\Users\steven.ho\Desktop\致新20180124\Leafblower.c"
 890  000B  361C        	clr [28].4
 892  000C              #line 892 "C:\Users\steven.ho\Desktop\致新20180124\Leafblower.c"
 892  000C  4700        	mov a,[128]
 892  000D  0080     E  	mov ra,a
 892  000E  0F80        	mov a,128
 892  000F  0680     E  	andm a,ra
 892  0010  1080     E  	sz ra
 892  0011  2800     R  	jmp _L78
 894  0012              #line 894 "C:\Users\steven.ho\Desktop\致新20180124\Leafblower.c"
 894  0012  0F01        	mov a,1
 894  0013  00CA        	mov [74],a
 894  0014  2800     R  	jmp _L79
 894  0015              _L78:
 898  0015              #line 898 "C:\Users\steven.ho\Desktop\致新20180124\Leafblower.c"
 898  0015  0F03        	mov a,3
 898  0016  00CA        	mov [74],a
 898  0017              _L79:
"File: Leafblower.c  Assembler  Version HGASM0202      Page 41

 902  0017              #line 902 "C:\Users\steven.ho\Desktop\致新20180124\Leafblower.c"
 902  0017  0700     R  	mov a,_ucVoiceStep[0]
 902  0018  0080     E  	mov ra,a
 902  0019  0700     E  	mov a,ra
 902  001A  0A06        	sub a,6
 902  001B  390A        	snz z
 902  001C  2800     R  	jmp _L80
 904  001D              #line 904 "C:\Users\steven.ho\Desktop\致新20180124\Leafblower.c"
 904  001D  0700     R  	mov a,_uiVoiceTimeCnt[0]
 904  001E  0080     E  	mov ra,a
 904  001F  0700     R  	mov a,_uiVoiceTimeCnt[1]
 904  0020  0080     E  	mov rb,a
 904  0021  0F01        	mov a,1
 904  0022  0300     E  	add a,ra
 904  0023  0080     E  	mov rc,a
 904  0024  0F00        	mov a,0
 904  0025  1300     E  	adc a,rb
 904  0026  0080     E  	mov rd,a
 904  0027  0700     E  	mov a,rc
 904  0028  0080     R  	mov _uiVoiceTimeCnt[0],a
 904  0029  0700     E  	mov a,rd
 904  002A  0080     R  	mov _uiVoiceTimeCnt[1],a
 904  002B  C700 0001   	lmov a,[384]
 904  002D  0080     E  	mov rc,a
 904  002E  C701 0001   	lmov a,[385]
 904  0030  0080     E  	mov rd,a
 904  0031  0700     E  	mov a,rc
 904  0032  0200     E  	sub a,ra
 904  0033  0700     E  	mov a,rd
 904  0034  1200     E  	sbc a,rb
 904  0035  3C0A        	sz c
 904  0036  2800     R  	jmp _L81
 906  0037              #line 906 "C:\Users\steven.ho\Desktop\致新20180124\Leafblower.c"
 906  0037  1F00     R  	clr _uiVoiceTimeCnt[0]
 906  0038  1F00     R  	clr _uiVoiceTimeCnt[1]
 907  0039              #line 907 "C:\Users\steven.ho\Desktop\致新20180124\Leafblower.c"
 907  0039  0F2C        	mov a,44
 907  003A  C080 0001   	lmov [384],a
 907  003C  0F01        	mov a,1
 907  003D  C081 0001   	lmov [385],a
 908  003F              #line 908 "C:\Users\steven.ho\Desktop\致新20180124\Leafblower.c"
 908  003F  4700        	mov a,[128]
 908  0040  0080     E  	mov ra,a
 908  0041  0F80        	mov a,128
 908  0042  0680     E  	andm a,ra
 908  0043  1E00     E  	snz ra
 908  0044  2800     R  	jmp _L82
 910  0045              #line 910 "C:\Users\steven.ho\Desktop\致新20180124\Leafblower.c"
 910  0045  7001        	set [129].0
 910  0046  2800     R  	jmp _L83
 910  0047              _L82:
 914  0047              #line 914 "C:\Users\steven.ho\Desktop\致新20180124\Leafblower.c"
 914  0047  7401        	clr [129].0
 914  0048              _L83:
 916  0048              #line 916 "C:\Users\steven.ho\Desktop\致新20180124\Leafblower.c"
 916  0048  7380        	set [128].7
 916  0049  2800     R  	jmp _L77
 916  004A              _L81:
 920  004A              #line 920 "C:\Users\steven.ho\Desktop\致新20180124\Leafblower.c"
 920  004A  4702        	mov a,[130]
"File: Leafblower.c  Assembler  Version HGASM0202      Page 42

 920  004B  0080     E  	mov ra,a
 920  004C  0F02        	mov a,2
 920  004D  0680     E  	andm a,ra
 920  004E  1E00     E  	snz ra
 920  004F  2800     R  	jmp _L85
 922  0050              #line 922 "C:\Users\steven.ho\Desktop\致新20180124\Leafblower.c"
 922  0050  DF14 0001   	lclr [404]
 923  0052              #line 923 "C:\Users\steven.ho\Desktop\致新20180124\Leafblower.c"
 923  0052  4701        	mov a,[129]
 923  0053  0080     E  	mov ra,a
 923  0054  0F01        	mov a,1
 923  0055  0680     E  	andm a,ra
 923  0056  1E00     E  	snz ra
 923  0057  2800     R  	jmp _L86
 925  0058              #line 925 "C:\Users\steven.ho\Desktop\致新20180124\Leafblower.c"
 925  0058  7780        	clr [128].7
 926  0059              #line 926 "C:\Users\steven.ho\Desktop\致新20180124\Leafblower.c"
 926  0059  C702 0001   	lmov a,[386]
 926  005B  0080     E  	mov ra,a
 926  005C  1480     E  	inc ra
 926  005D  0700     E  	mov a,ra
 926  005E  C082 0001   	lmov [386],a
 926  0060  2800     R  	jmp _L77
 926  0061              _L86:
 928  0061              #line 928 "C:\Users\steven.ho\Desktop\致新20180124\Leafblower.c"
 928  0061  C702 0001   	lmov a,[386]
 928  0063  0080     E  	mov ra,a
 928  0064  0F01        	mov a,1
 928  0065  0200     E  	sub a,ra
 928  0066  3C0A        	sz c
 928  0067  2800     R  	jmp _L77
 930  0068              #line 930 "C:\Users\steven.ho\Desktop\致新20180124\Leafblower.c"
 930  0068  DF02 0001   	lclr [386]
 931  006A              #line 931 "C:\Users\steven.ho\Desktop\致新20180124\Leafblower.c"
 931  006A  0F88        	mov a,-120
 931  006B  C080 0001   	lmov [384],a
 931  006D  0F13        	mov a,19
 931  006E  C081 0001   	lmov [385],a
 931  0070  2800     R  	jmp _L77
 931  0071              _L85:
 935  0071              #line 935 "C:\Users\steven.ho\Desktop\致新20180124\Leafblower.c"
 935  0071  4702        	mov a,[130]
 935  0072  0080     E  	mov ra,a
 935  0073  0F02        	mov a,2
 935  0074  0680     E  	andm a,ra
 935  0075  1080     E  	sz ra
 935  0076  2800     R  	jmp _L77
 938  0077              #line 938 "C:\Users\steven.ho\Desktop\致新20180124\Leafblower.c"
 938  0077  DF14 0001   	lclr [404]
 939  0079              #line 939 "C:\Users\steven.ho\Desktop\致新20180124\Leafblower.c"
 939  0079  7380        	set [128].7
 940  007A              #line 940 "C:\Users\steven.ho\Desktop\致新20180124\Leafblower.c"
 940  007A  2000     R  	call _CommandOK
 940  007B  2800     R  	jmp _L77
 940  007C              _L80:
 947  007C              #line 947 "C:\Users\steven.ho\Desktop\致新20180124\Leafblower.c"
 947  007C  0700     R  	mov a,_uiVoiceTimeCnt[0]
 947  007D  0080     E  	mov ra,a
 947  007E  0700     R  	mov a,_uiVoiceTimeCnt[1]
 947  007F  0080     E  	mov rb,a
"File: Leafblower.c  Assembler  Version HGASM0202      Page 43

 947  0080  0F01        	mov a,1
 947  0081  0300     E  	add a,ra
 947  0082  0080     E  	mov rc,a
 947  0083  0F00        	mov a,0
 947  0084  1300     E  	adc a,rb
 947  0085  0080     E  	mov rd,a
 947  0086  0700     E  	mov a,rc
 947  0087  0080     R  	mov _uiVoiceTimeCnt[0],a
 947  0088  0700     E  	mov a,rd
 947  0089  0080     R  	mov _uiVoiceTimeCnt[1],a
 947  008A  0FCC        	mov a,204
 947  008B  0200     E  	sub a,ra
 947  008C  0F01        	mov a,1
 947  008D  1200     E  	sbc a,rb
 947  008E  3C0A        	sz c
 947  008F  2800     R  	jmp _L77
 949  0090              #line 949 "C:\Users\steven.ho\Desktop\致新20180124\Leafblower.c"
 949  0090  1F00     R  	clr _uiVoiceTimeCnt[0]
 949  0091  1F00     R  	clr _uiVoiceTimeCnt[1]
 950  0092              #line 950 "C:\Users\steven.ho\Desktop\致新20180124\Leafblower.c"
 950  0092  0700     R  	mov a,_ucVoiceStep[0]
 950  0093  0080     E  	mov ra,a
 950  0094  1480     E  	inc ra
 950  0095  0700     E  	mov a,ra
 950  0096  0080     R  	mov _ucVoiceStep[0],a
 951  0097              #line 951 "C:\Users\steven.ho\Desktop\致新20180124\Leafblower.c"
 951  0097  0700     R  	mov a,_ucVoiceStep[0]
 951  0098  0080     E  	mov ra,a
 951  0099  1700     E  	sdza ra
 951  009A  2800     R  	jmp _LI2
 951  009B  2800     R  	jmp _L89
 951  009C              _LI2:
 951  009C  0700     R  	mov a,_ucVoiceStep[0]
 951  009D  0080     E  	mov ra,a
 951  009E  0700     E  	mov a,ra
 951  009F  0A03        	sub a,3
 951  00A0  390A        	snz z
 951  00A1  2800     R  	jmp _L90
 951  00A2              _L89:
 953  00A2              #line 953 "C:\Users\steven.ho\Desktop\致新20180124\Leafblower.c"
 953  00A2  7380        	set [128].7
 953  00A3              _L90:
 955  00A3              #line 955 "C:\Users\steven.ho\Desktop\致新20180124\Leafblower.c"
 955  00A3  0700     R  	mov a,_ucVoiceStep[0]
 955  00A4  0080     E  	mov ra,a
 955  00A5  0700     E  	mov a,ra
 955  00A6  0A02        	sub a,2
 955  00A7  3D0A        	sz z
 955  00A8  2800     R  	jmp _L91
 955  00A9  0700     R  	mov a,_ucVoiceStep[0]
 955  00AA  0080     E  	mov ra,a
 955  00AB  0700     E  	mov a,ra
 955  00AC  0A04        	sub a,4
 955  00AD  390A        	snz z
 955  00AE  2800     R  	jmp _L92
 955  00AF              _L91:
 957  00AF              #line 957 "C:\Users\steven.ho\Desktop\致新20180124\Leafblower.c"
 957  00AF  7780        	clr [128].7
 957  00B0              _L92:
 959  00B0              #line 959 "C:\Users\steven.ho\Desktop\致新20180124\Leafblower.c"
"File: Leafblower.c  Assembler  Version HGASM0202      Page 44

 959  00B0  0700     R  	mov a,_ucVoiceStep[0]
 959  00B1  0080     E  	mov ra,a
 959  00B2  0700     E  	mov a,ra
 959  00B3  0A05        	sub a,5
 959  00B4  390A        	snz z
 959  00B5  2800     R  	jmp _L77
 961  00B6              #line 961 "C:\Users\steven.ho\Desktop\致新20180124\Leafblower.c"
 961  00B6  7380        	set [128].7
 962  00B7              #line 962 "C:\Users\steven.ho\Desktop\致新20180124\Leafblower.c"
 962  00B7  DF14 0001   	lclr [404]
 963  00B9              #line 963 "C:\Users\steven.ho\Desktop\致新20180124\Leafblower.c"
 963  00B9  2000     R  	call _CommandOK
 964  00BA              #line 964 "C:\Users\steven.ho\Desktop\致新20180124\Leafblower.c"
 964  00BA  1F00     R  	clr _uiVoiceTimeCnt[0]
 964  00BB  1F00     R  	clr _uiVoiceTimeCnt[1]
 964  00BC              _L77:
 964  00BC  0700     E  	mov a,r2
 964  00BD  008B        	mov bp,a
 964  00BE  0700     E  	mov a,r3
 964  00BF  008A        	mov status,a
 964  00C0  0700     E  	mov a,r4
 964  00C1  0083        	mov mp,a
 964  00C2  0700     E  	mov a,r5
 964  00C3  0084        	mov sbp,a
 964  00C4  0700     E  	mov a,r6
 964  00C5  0087        	mov tblp,a
 964  00C6  0700     E  	mov a,r7
 964  00C7  0089        	mov tbhp,a
 964  00C8  1D05        	tabrdc acc
 964  00C9  0700     E  	mov a,r1
 964  00CA  0004        	reti
 964  00CB              _ISR_TM2 endp
 964  00CB              
 964  00CB              #line 964 "C:\Users\steven.ho\Desktop\致新20180124\Leafblower.c"
 964  00CB              #pragma debug scope 1 1
 964  00CB              ___ptm1c1 equ [328]
 964  00CB              ___ptm1al equ [331]
 964  00CB              ___ptm1ah equ [332]
 964  00CB              public _TM1_Init
 964  00CB              #pragma debug scope 25 1
 978  00CB              #line 978 "C:\Users\steven.ho\Desktop\致新20180124\Leafblower.c"
 978  0000              _TM1_Init .section 'code'
 978  0000              _TM1_Init proc
 979  0000              #line 979 "C:\Users\steven.ho\Desktop\致新20180124\Leafblower.c"
 979  0000  0F20        	mov a,32
 979  0001  80C7 0001   	lmov [327],a
 980  0003              #line 980 "C:\Users\steven.ho\Desktop\致新20180124\Leafblower.c"
 980  0003  0FC1        	mov a,193
 980  0004  80C8 0001   	lmov [328],a
 982  0006              #line 982 "C:\Users\steven.ho\Desktop\致新20180124\Leafblower.c"
 982  0006  0FF0        	mov a,240
 982  0007  80CB 0001   	lmov [331],a
 983  0009              #line 983 "C:\Users\steven.ho\Desktop\致新20180124\Leafblower.c"
 983  0009  9FCC 0001   	lset [332]
 983  000B  0003        	ret
 983  000C              _TM1_Init endp
 983  000C              #line 983 "C:\Users\steven.ho\Desktop\致新20180124\Leafblower.c"
 983  000C              #pragma debug scope 1 1
 983  000C              ___mfi5 equ [30]
 983  000C              public _ISR_TM1
"File: Leafblower.c  Assembler  Version HGASM0202      Page 45

 983  000C              #pragma debug scope 26 1
 991  000C              #line 991 "C:\Users\steven.ho\Desktop\致新20180124\Leafblower.c"
 991  0000              @ISR_TM1_code .section at 44 'code'
 991  0000  0080     E  	mov r1,a
 991  0001  070A        	mov a,status
 991  0002  0080     E  	mov r2,a
 991  0003  2800     R  	jmp _ISR_TM1
 991  0004              #pragma debug scope 1 1
 991  0004              @dummy44 endp
 991  0004              #pragma debug scope 27 1
 991  0000              _ISR_TM1 .section 'code'
 991  0000              _ISR_TM1 proc
 992  0000              #line 992 "C:\Users\steven.ho\Desktop\致新20180124\Leafblower.c"
 992  0000  3797        	clr [23].7
 993  0001              #line 993 "C:\Users\steven.ho\Desktop\致新20180124\Leafblower.c"
 993  0001  369E        	clr [30].5
 995  0002              #line 995 "C:\Users\steven.ho\Desktop\致新20180124\Leafblower.c"
 995  0002  B5C7 0001   	lclr [327].3
 996  0004              #line 996 "C:\Users\steven.ho\Desktop\致新20180124\Leafblower.c"
 996  0004  3797        	clr [23].7
 997  0005              #line 997 "C:\Users\steven.ho\Desktop\致新20180124\Leafblower.c"
 997  0005  369E        	clr [30].5
 997  0006  0700     E  	mov a,r2
 997  0007  008A        	mov status,a
 997  0008  0700     E  	mov a,r1
 997  0009  0004        	reti
 997  000A              _ISR_TM1 endp
 997  000A              
 997  000A              #line 997 "C:\Users\steven.ho\Desktop\致新20180124\Leafblower.c"
 997  000A              #pragma debug scope 1 1
 997  000A              ___ptm3c1 equ [370]
 997  000A              public _Init_TM3
 997  000A              #pragma debug scope 28 1
1008  000A              #line 1008 "C:\Users\steven.ho\Desktop\致新20180124\Leafblower.c"
1008  0000              _Init_TM3 .section 'code'
1008  0000              _Init_TM3 proc
1009  0000              #line 1009 "C:\Users\steven.ho\Desktop\致新20180124\Leafblower.c"
1009  0000  0F20        	mov a,32
1009  0001  80F1 0001   	lmov [369],a
1010  0003              #line 1010 "C:\Users\steven.ho\Desktop\致新20180124\Leafblower.c"
1010  0003  0FC1        	mov a,193
1010  0004  80F2 0001   	lmov [370],a
1012  0006              #line 1012 "C:\Users\steven.ho\Desktop\致新20180124\Leafblower.c"
1012  0006  0FFA        	mov a,250
1012  0007  80F5 0001   	lmov [373],a
1013  0009              #line 1013 "C:\Users\steven.ho\Desktop\致新20180124\Leafblower.c"
1013  0009  9F76 0001   	lclr [374]
1015  000B              #line 1015 "C:\Users\steven.ho\Desktop\致新20180124\Leafblower.c"
1015  000B  369F        	clr [31].5
1016  000C              #line 1016 "C:\Users\steven.ho\Desktop\致新20180124\Leafblower.c"
1016  000C  309F        	set [31].1
1018  000D              #line 1018 "C:\Users\steven.ho\Desktop\致新20180124\Leafblower.c"
1018  000D  3718        	clr [24].6
1019  000E              #line 1019 "C:\Users\steven.ho\Desktop\致新20180124\Leafblower.c"
1019  000E  3118        	set [24].2
1019  000F  0003        	ret
1019  0010              _Init_TM3 endp
1019  0010              #line 1019 "C:\Users\steven.ho\Desktop\致新20180124\Leafblower.c"
1019  0010              #pragma debug scope 1 1
1019  0010              ___mcd equ [101]
"File: Leafblower.c  Assembler  Version HGASM0202      Page 46

1019  0010              public _ISR_TM3
1019  0010              #pragma debug scope 29 1
1027  0010              #line 1027 "C:\Users\steven.ho\Desktop\致新20180124\Leafblower.c"
1027  0000              @ISR_TM3_code .section at 56 'code'
1027  0000  0080     E  	mov r1,a
1027  0001  070B        	mov a,bp
1027  0002  0080     E  	mov r2,a
1027  0003  2800     R  	jmp _ISR_TM3
1027  0004              #pragma debug scope 1 1
1027  0004              @dummy56 endp
1027  0004              #pragma debug scope 30 1
1027  0000              _ISR_TM3 .section 'code'
1027  0000              _ISR_TM3 proc
1027  0000  070A        	mov a,status
1027  0001  0080     E  	mov r3,a
1027  0002  0703        	mov a,mp
1027  0003  0080     E  	mov r4,a
1027  0004  0704        	mov a,sbp
1027  0005  0080     E  	mov r5,a
1027  0006  0707        	mov a,tblp
1027  0007  0080     E  	mov r6,a
1027  0008  0709        	mov a,tbhp
1027  0009  0080     E  	mov r7,a
1028  000A              #line 1028 "C:\Users\steven.ho\Desktop\致新20180124\Leafblower.c"
1028  000A  3718        	clr [24].6
1029  000B              #line 1029 "C:\Users\steven.ho\Desktop\致新20180124\Leafblower.c"
1029  000B  369F        	clr [31].5
1030  000C              #line 1030 "C:\Users\steven.ho\Desktop\致新20180124\Leafblower.c"
1030  000C  B5F1 0001   	lclr [369].3
1031  000E              #line 1031 "C:\Users\steven.ho\Desktop\致新20180124\Leafblower.c"
1031  000E  3615        	clr [21].4
1032  000F              #line 1032 "C:\Users\steven.ho\Desktop\致新20180124\Leafblower.c"
1032  000F  0F07        	mov a,7
1032  0010  0099        	mov [25],a
1033  0011              #line 1033 "C:\Users\steven.ho\Desktop\致新20180124\Leafblower.c"
1033  0011  3095        	set [21].1
1035  0012              #line 1035 "C:\Users\steven.ho\Desktop\致新20180124\Leafblower.c"
1035  0012  3426        	clr [38].0
1037  0013              #line 1037 "C:\Users\steven.ho\Desktop\致新20180124\Leafblower.c"
1037  0013  0745        	mov a,[69]
1037  0014  0080     E  	mov ra,a
1037  0015  3000     E  	set ra.6
1037  0016  0700     E  	mov a,ra
1037  0017  00C5        	mov [69],a
1038  0018              #line 1038 "C:\Users\steven.ho\Desktop\致新20180124\Leafblower.c"
1038  0018  0700     R  	mov a,_uiLastHallTime[0]
1038  0019  0080     E  	mov ra,a
1038  001A  0700     R  	mov a,_uiLastHallTime[1]
1038  001B  0080     E  	mov rb,a
1038  001C  0F8B        	mov a,139
1038  001D  0200     E  	sub a,ra
1038  001E  0F00        	mov a,0
1038  001F  1200     E  	sbc a,rb
1038  0020  380A        	snz c
1038  0021  2800     R  	jmp _L97
1039  0022              #line 1039 "C:\Users\steven.ho\Desktop\致新20180124\Leafblower.c"
1039  0022  0715        	mov a,[21]
1039  0023  0080     E  	mov ra,a
1039  0024  0F10        	mov a,16
1039  0025  0680     E  	andm a,ra
"File: Leafblower.c  Assembler  Version HGASM0202      Page 47

1039  0026  1E00     E  	snz ra
1039  0027  2800     R  	jmp _L97
1041  0028              #line 1041 "C:\Users\steven.ho\Desktop\致新20180124\Leafblower.c"
1041  0028  0765        	mov a,[101]
1041  0029  0080     E  	mov ra,a
1041  002A  1F00     E  	clr rb
1041  002B  0700     E  	mov a,ra
1041  002C  0080     E  	mov rc,a
1041  002D  0700     E  	mov a,rb
1041  002E  0080     E  	mov rd,a
1041  002F  0F07        	mov a,7  
1041  0030  0680     E  	andm a,rc  
1041  0031  0F00        	mov a,0  
1041  0032  0680     E  	andm a,rd
1041  0033  0700     R  	mov a,_ucHallStep[0]
1041  0034  0080     E  	mov ra,a
1041  0035  1F00     E  	clr rb
1041  0036  0F00     R  	mov a,low offset _ucDealDragHall
1041  0037  0380     E  	addm a,ra
1041  0038  0F00     R  	mov a,high offset _ucDealDragHall
1041  0039  1380     E  	adcm a,rb
1041  003A  0700     E  	mov a,ra
1041  003B  0083        	mov mp,a
1041  003C  0700     E  	mov a,rb
1041  003D  0084        	mov sbp,a
1041  003E  2000     E  	call _Crom2Prom
1041  003F  0080     E  	mov ra,a
1041  0040  1F00     E  	clr rb
1041  0041  0700     E  	mov a,rc
1041  0042  0200     E  	sub a,ra
1041  0043  0700     E  	mov a,rd
1041  0044  1200     E  	sbc a,rb
1041  0045  3B0A        	snz cz
1041  0046  2800     R  	jmp _L97
1043  0047              #line 1043 "C:\Users\steven.ho\Desktop\致新20180124\Leafblower.c"
1043  0047  0F50        	mov a,80
1043  0048  2000     R  	call _delay1
1044  0049              #line 1044 "C:\Users\steven.ho\Desktop\致新20180124\Leafblower.c"
1044  0049  3718        	clr [24].6
1045  004A              #line 1045 "C:\Users\steven.ho\Desktop\致新20180124\Leafblower.c"
1045  004A  369F        	clr [31].5
1046  004B              #line 1046 "C:\Users\steven.ho\Desktop\致新20180124\Leafblower.c"
1046  004B  2800     R  	jmp _L96
1046  004C              _L97:
1050  004C              #line 1050 "C:\Users\steven.ho\Desktop\致新20180124\Leafblower.c"
1050  004C  3615        	clr [21].4
1051  004D              #line 1051 "C:\Users\steven.ho\Desktop\致新20180124\Leafblower.c"
1051  004D  0F07        	mov a,7
1051  004E  0099        	mov [25],a
1052  004F              #line 1052 "C:\Users\steven.ho\Desktop\致新20180124\Leafblower.c"
1052  004F  3718        	clr [24].6
1053  0050              #line 1053 "C:\Users\steven.ho\Desktop\致新20180124\Leafblower.c"
1053  0050  369F        	clr [31].5
1053  0051              _L96:
1053  0051  0700     E  	mov a,r2
1053  0052  008B        	mov bp,a
1053  0053  0700     E  	mov a,r3
1053  0054  008A        	mov status,a
1053  0055  0700     E  	mov a,r4
1053  0056  0083        	mov mp,a
"File: Leafblower.c  Assembler  Version HGASM0202      Page 48

1053  0057  0700     E  	mov a,r5
1053  0058  0084        	mov sbp,a
1053  0059  0700     E  	mov a,r6
1053  005A  0087        	mov tblp,a
1053  005B  0700     E  	mov a,r7
1053  005C  0089        	mov tbhp,a
1053  005D  1D05        	tabrdc acc
1053  005E  0700     E  	mov a,r1
1053  005F  0004        	reti
1053  0060              _ISR_TM3 endp
1053  0060              
1053  0060              #line 1053 "C:\Users\steven.ho\Desktop\致新20180124\Leafblower.c"
1053  0060              #pragma debug scope 1 1
1053  0060              ___tbc equ [275]
1053  0060              public _TimeBaseInit
1053  0060              #pragma debug scope 31 1
1065  0060              #line 1065 "C:\Users\steven.ho\Desktop\致新20180124\Leafblower.c"
1065  0000              _TimeBaseInit .section 'code'
1065  0000              _TimeBaseInit proc
1066  0000              #line 1066 "C:\Users\steven.ho\Desktop\致新20180124\Leafblower.c"
1066  0000  0FC0        	mov a,192
1066  0001  8093 0001   	lmov [275],a
1067  0003              #line 1067 "C:\Users\steven.ho\Desktop\致新20180124\Leafblower.c"
1067  0003  31A0        	set [32].3
1068  0004              #line 1068 "C:\Users\steven.ho\Desktop\致新20180124\Leafblower.c"
1068  0004  37A0        	clr [32].7
1069  0005              #line 1069 "C:\Users\steven.ho\Desktop\致新20180124\Leafblower.c"
1069  0005  3198        	set [24].3
1070  0006              #line 1070 "C:\Users\steven.ho\Desktop\致新20180124\Leafblower.c"
1070  0006  3798        	clr [24].7
1070  0007  0003        	ret
1070  0008              _TimeBaseInit endp
1070  0008              #line 1070 "C:\Users\steven.ho\Desktop\致新20180124\Leafblower.c"
1070  0008              #pragma debug scope 1 1
1070  0008              public _ISR_TimeBase
1070  0008              #pragma debug scope 32 1
1074  0008              #line 1074 "C:\Users\steven.ho\Desktop\致新20180124\Leafblower.c"
1074  0000              @ISR_TimeBase_code .section at 60 'code'
1074  0000  0080     E  	mov r1,a
1074  0001  070B        	mov a,bp
1074  0002  0080     E  	mov r2,a
1074  0003  2800     R  	jmp _ISR_TimeBase
1074  0004              #pragma debug scope 1 1
1074  0004              @dummy60 endp
1074  0004              #pragma debug scope 33 1
1074  0000              _ISR_TimeBase .section 'code'
1074  0000              _ISR_TimeBase proc
1074  0000  070A        	mov a,status
1074  0001  0080     E  	mov r3,a
1074  0002  0703        	mov a,mp
1074  0003  0080     E  	mov r4,a
1074  0004  0704        	mov a,sbp
1074  0005  0080     E  	mov r5,a
1074  0006  0707        	mov a,tblp
1074  0007  0080     E  	mov r6,a
1074  0008  0709        	mov a,tbhp
1074  0009  0080     E  	mov r7,a
1075  000A              #line 1075 "C:\Users\steven.ho\Desktop\致新20180124\Leafblower.c"
1075  000A  3798        	clr [24].7
1076  000B              #line 1076 "C:\Users\steven.ho\Desktop\致新20180124\Leafblower.c"
"File: Leafblower.c  Assembler  Version HGASM0202      Page 49

1076  000B  37A0        	clr [32].7
1077  000C              #line 1077 "C:\Users\steven.ho\Desktop\致新20180124\Leafblower.c"
1077  000C  4700        	mov a,[128]
1077  000D  0080     E  	mov ra,a
1077  000E  0F40        	mov a,64
1077  000F  0680     E  	andm a,ra
1077  0010  1E00     E  	snz ra
1077  0011  2800     R  	jmp _L101
1079  0012              #line 1079 "C:\Users\steven.ho\Desktop\致新20180124\Leafblower.c"
1079  0012  4700        	mov a,[128]
1079  0013  0080     E  	mov ra,a
1079  0014  0F01        	mov a,1
1079  0015  0680     E  	andm a,ra
1079  0016  1E00     E  	snz ra
1079  0017  2800     R  	jmp _L101
1079  0018  4700        	mov a,[128]
1079  0019  0080     E  	mov ra,a
1079  001A  0F20        	mov a,32
1079  001B  0680     E  	andm a,ra
1079  001C  1080     E  	sz ra
1079  001D  2800     R  	jmp _L101
1079  001E  4701        	mov a,[129]
1079  001F  0080     E  	mov ra,a
1079  0020  0F40        	mov a,64
1079  0021  0680     E  	andm a,ra
1079  0022  1080     E  	sz ra
1079  0023  2800     R  	jmp _L101
1081  0024              #line 1081 "C:\Users\steven.ho\Desktop\致新20180124\Leafblower.c"
1081  0024  0700     R  	mov a,_ucDragCnt[0]
1081  0025  0080     E  	mov ra,a
1081  0026  0700     E  	mov a,ra
1081  0027  0080     E  	mov rb,a
1081  0028  1400     E  	inca rb
1081  0029  0080     E  	mov ra,a
1081  002A  0700     E  	mov a,ra
1081  002B  0080     R  	mov _ucDragCnt[0],a
1081  002C  0700     R  	mov a,_ucDragDelayTime[0]
1081  002D  0080     E  	mov ra,a
1081  002E  0700     E  	mov a,ra
1081  002F  0200     E  	sub a,rb
1081  0030  3C0A        	sz c
1081  0031  2800     R  	jmp _L101
1083  0032              #line 1083 "C:\Users\steven.ho\Desktop\致新20180124\Leafblower.c"
1083  0032  2000     R  	call _Drag_Motor
1083  0033              _L101:
1089  0033              #line 1089 "C:\Users\steven.ho\Desktop\致新20180124\Leafblower.c"
1089  0033  0700     R  	mov a,_uiVoltageCheckCnt[0]
1089  0034  0080     E  	mov ra,a
1089  0035  0700     R  	mov a,_uiVoltageCheckCnt[1]
1089  0036  0080     E  	mov rb,a
1089  0037  0F01        	mov a,1
1089  0038  0300     E  	add a,ra
1089  0039  0080     E  	mov rc,a
1089  003A  0F00        	mov a,0
1089  003B  1300     E  	adc a,rb
1089  003C  0080     E  	mov rd,a
1089  003D  0700     E  	mov a,rc
1089  003E  0080     R  	mov _uiVoltageCheckCnt[0],a
1089  003F  0700     E  	mov a,rd
1089  0040  0080     R  	mov _uiVoltageCheckCnt[1],a
"File: Leafblower.c  Assembler  Version HGASM0202      Page 50

1089  0041  0FA0        	mov a,160
1089  0042  0200     E  	sub a,ra
1089  0043  0F0F        	mov a,15
1089  0044  1200     E  	sbc a,rb
1089  0045  3C0A        	sz c
1089  0046  2800     R  	jmp _L102
1091  0047              #line 1091 "C:\Users\steven.ho\Desktop\致新20180124\Leafblower.c"
1091  0047  0FA1        	mov a,-95
1091  0048  0080     R  	mov _uiVoltageCheckCnt[0],a
1091  0049  0F0F        	mov a,15
1091  004A  0080     R  	mov _uiVoltageCheckCnt[1],a
1092  004B              #line 1092 "C:\Users\steven.ho\Desktop\致新20180124\Leafblower.c"
1092  004B  4702        	mov a,[130]
1092  004C  0080     E  	mov ra,a
1092  004D  0F02        	mov a,2
1092  004E  0680     E  	andm a,ra
1092  004F  1080     E  	sz ra
1092  0050  2800     R  	jmp _L102
1094  0051              #line 1094 "C:\Users\steven.ho\Desktop\致新20180124\Leafblower.c"
1094  0051  7082        	set [130].1
1095  0052              #line 1095 "C:\Users\steven.ho\Desktop\致新20180124\Leafblower.c"
1095  0052  7002        	set [130].0
1096  0053              #line 1096 "C:\Users\steven.ho\Desktop\致新20180124\Leafblower.c"
1096  0053  7700        	clr [128].6
1096  0054              _L102:
1100  0054              #line 1100 "C:\Users\steven.ho\Desktop\致新20180124\Leafblower.c"
1100  0054  0700     R  	mov a,_uiHallTimeCnt[0]
1100  0055  0080     E  	mov ra,a
1100  0056  0700     R  	mov a,_uiHallTimeCnt[1]
1100  0057  0080     E  	mov rb,a
1100  0058  0F01        	mov a,1
1100  0059  0300     E  	add a,ra
1100  005A  0080     E  	mov rc,a
1100  005B  0F00        	mov a,0
1100  005C  1300     E  	adc a,rb
1100  005D  0080     E  	mov rd,a
1100  005E  0700     E  	mov a,rc
1100  005F  0080     R  	mov _uiHallTimeCnt[0],a
1100  0060  0700     E  	mov a,rd
1100  0061  0080     R  	mov _uiHallTimeCnt[1],a
1100  0062  0FE8        	mov a,232
1100  0063  0200     E  	sub a,ra
1100  0064  0F03        	mov a,3
1100  0065  1200     E  	sbc a,rb
1100  0066  3C0A        	sz c
1100  0067  2800     R  	jmp _L103
1102  0068              #line 1102 "C:\Users\steven.ho\Desktop\致新20180124\Leafblower.c"
1102  0068  0FE9        	mov a,-23
1102  0069  0080     R  	mov _uiHallTimeCnt[0],a
1102  006A  0F03        	mov a,3
1102  006B  0080     R  	mov _uiHallTimeCnt[1],a
1102  006C              _L103:
1105  006C              #line 1105 "C:\Users\steven.ho\Desktop\致新20180124\Leafblower.c"
1105  006C  0700     R  	mov a,_uiCount1ms[0]
1105  006D  0080     E  	mov ra,a
1105  006E  1480     E  	inc ra
1105  006F  0700     E  	mov a,ra
1105  0070  0080     R  	mov _uiCount1ms[0],a
1106  0071              #line 1106 "C:\Users\steven.ho\Desktop\致新20180124\Leafblower.c"
1106  0071  0700     R  	mov a,_uiCount1ms[0]
"File: Leafblower.c  Assembler  Version HGASM0202      Page 51

1106  0072  0080     E  	mov ra,a
1106  0073  1E00     E  	snz ra
1106  0074  2800     R  	jmp _L104
1108  0075              #line 1108 "C:\Users\steven.ho\Desktop\致新20180124\Leafblower.c"
1108  0075  1F00     R  	clr _uiCount1ms[0]
1109  0076              #line 1109 "C:\Users\steven.ho\Desktop\致新20180124\Leafblower.c"
1109  0076  7101        	set [129].2
1109  0077              _L104:
1112  0077              #line 1112 "C:\Users\steven.ho\Desktop\致新20180124\Leafblower.c"
1112  0077  0700     R  	mov a,_ucReadADCNT[0]
1112  0078  0080     E  	mov ra,a
1112  0079  0FC7        	mov a,199
1112  007A  0200     E  	sub a,ra
1112  007B  380A        	snz c
1112  007C  2800     R  	jmp _L105
1114  007D              #line 1114 "C:\Users\steven.ho\Desktop\致新20180124\Leafblower.c"
1114  007D  0700     R  	mov a,_ucReadADCNT[0]
1114  007E  0080     E  	mov ra,a
1114  007F  1480     E  	inc ra
1114  0080  0700     E  	mov a,ra
1114  0081  0080     R  	mov _ucReadADCNT[0],a
1114  0082              _L105:
1117  0082              #line 1117 "C:\Users\steven.ho\Desktop\致新20180124\Leafblower.c"
1117  0082  0700     R  	mov a,_uiReleaseKey_CNT[0]
1117  0083  0080     E  	mov ra,a
1117  0084  0700     R  	mov a,_uiReleaseKey_CNT[1]
1117  0085  0080     E  	mov rb,a
1117  0086  0F1F        	mov a,31
1117  0087  0200     E  	sub a,ra
1117  0088  0F4E        	mov a,78
1117  0089  1200     E  	sbc a,rb
1117  008A  380A        	snz c
1117  008B  2800     R  	jmp _L106
1119  008C              #line 1119 "C:\Users\steven.ho\Desktop\致新20180124\Leafblower.c"
1119  008C  0700     R  	mov a,_uiReleaseKey_CNT[0]
1119  008D  0080     E  	mov ra,a
1119  008E  0700     R  	mov a,_uiReleaseKey_CNT[1]
1119  008F  0080     E  	mov rb,a
1119  0090  1480     E  	inc ra
1119  0091  3D0A        	sz z
1119  0092  1480     E  	inc rb
1119  0093  0700     E  	mov a,ra
1119  0094  0080     R  	mov _uiReleaseKey_CNT[0],a
1119  0095  0700     E  	mov a,rb
1119  0096  0080     R  	mov _uiReleaseKey_CNT[1],a
1119  0097              _L106:
1122  0097              #line 1122 "C:\Users\steven.ho\Desktop\致新20180124\Leafblower.c"
1122  0097              ;# 1122 "C:\Users\steven.ho\Desktop\致新20180124\Leafblower.c" 1
1122  0097  0001        	CLR	WDT
1122  0098  0700     E  	mov a,r2
1122  0099  008B        	mov bp,a
1122  009A  0700     E  	mov a,r3
1122  009B  008A        	mov status,a
1122  009C  0700     E  	mov a,r4
1122  009D  0083        	mov mp,a
1122  009E  0700     E  	mov a,r5
1122  009F  0084        	mov sbp,a
1122  00A0  0700     E  	mov a,r6
1122  00A1  0087        	mov tblp,a
1122  00A2  0700     E  	mov a,r7
"File: Leafblower.c  Assembler  Version HGASM0202      Page 52

1122  00A3  0089        	mov tbhp,a
1122  00A4  1D05        	tabrdc acc
1122  00A5  0700     E  	mov a,r1
1122  00A6  0004        	reti
1122  00A7              _ISR_TimeBase endp
1122  00A7              
1122  00A7              #line 1122 "C:\Users\steven.ho\Desktop\致新20180124\Leafblower.c"
1122  00A7              #pragma debug scope 1 1
1122  00A7              public _KeyCheck
1122  00A7              #pragma debug scope 34 1
1131  00A7              #line 1131 "C:\Users\steven.ho\Desktop\致新20180124\Leafblower.c"
1131  0000              _KeyCheck .section 'code'
1131  0000              _KeyCheck proc
1132  0000              #line 1132 "C:\Users\steven.ho\Desktop\致新20180124\Leafblower.c"
1132  0000  0726        	mov a,[38]
1132  0001  0080     E  	mov ra,a
1132  0002  0F80        	mov a,128
1132  0003  0680     E  	andm a,ra
1132  0004  1080     E  	sz ra
1132  0005  2800     R  	jmp _L108
1134  0006              #line 1134 "C:\Users\steven.ho\Desktop\致新20180124\Leafblower.c"
1134  0006  7682        	clr [130].5
1135  0007              #line 1135 "C:\Users\steven.ho\Desktop\致新20180124\Leafblower.c"
1135  0007  1F00     R  	clr _uiReleaseKey_CNT[0]
1135  0008  1F00     R  	clr _uiReleaseKey_CNT[1]
1136  0009              #line 1136 "C:\Users\steven.ho\Desktop\致新20180124\Leafblower.c"
1136  0009  4702        	mov a,[130]
1136  000A  0080     E  	mov ra,a
1136  000B  0F08        	mov a,8
1136  000C  0680     E  	andm a,ra
1136  000D  1E00     E  	snz ra
1136  000E  2800     R  	jmp _L109
1158  000F              #line 1158 "C:\Users\steven.ho\Desktop\致新20180124\Leafblower.c"
1158  000F  0F03        	mov a,3
1158  0010  0080     R  	mov _ucMTR_State[0],a
1158  0011  2800     R  	jmp _L107
1158  0012              _L109:
1162  0012              #line 1162 "C:\Users\steven.ho\Desktop\致新20180124\Leafblower.c"
1162  0012  7182        	set [130].3
1162  0013  2800     R  	jmp _L107
1162  0014              _L108:
1167  0014              #line 1167 "C:\Users\steven.ho\Desktop\致新20180124\Leafblower.c"
1167  0014  4702        	mov a,[130]
1167  0015  0080     E  	mov ra,a
1167  0016  0F20        	mov a,32
1167  0017  0680     E  	andm a,ra
1167  0018  1E00     E  	snz ra
1167  0019  2800     R  	jmp _L112
1169  001A              #line 1169 "C:\Users\steven.ho\Desktop\致新20180124\Leafblower.c"
1169  001A  7202        	set [130].4
1170  001B              #line 1170 "C:\Users\steven.ho\Desktop\致新20180124\Leafblower.c"
1170  001B  7582        	clr [130].3
1170  001C  2800     R  	jmp _L113
1170  001D              _L112:
1174  001D              #line 1174 "C:\Users\steven.ho\Desktop\致新20180124\Leafblower.c"
1174  001D  7282        	set [130].5
1174  001E              _L113:
1177  001E              #line 1177 "C:\Users\steven.ho\Desktop\致新20180124\Leafblower.c"
1177  001E  0700     R  	mov a,_uiReleaseKey_CNT[0]
1177  001F  0080     E  	mov ra,a
"File: Leafblower.c  Assembler  Version HGASM0202      Page 53

1177  0020  0700     R  	mov a,_uiReleaseKey_CNT[1]
1177  0021  0080     E  	mov rb,a
1177  0022  0FD0        	mov a,208
1177  0023  0200     E  	sub a,ra
1177  0024  0F07        	mov a,7
1177  0025  1200     E  	sbc a,rb
1177  0026  3C0A        	sz c
1177  0027  2800     R  	jmp _L114
1177  0028  0700     R  	mov a,_uiReleaseKey_CNT[0]
1177  0029  0080     E  	mov ra,a
1177  002A  0700     R  	mov a,_uiReleaseKey_CNT[1]
1177  002B  0080     E  	mov rb,a
1177  002C  0FB7        	mov a,183
1177  002D  0200     E  	sub a,ra
1177  002E  0F0B        	mov a,11
1177  002F  1200     E  	sbc a,rb
1177  0030  380A        	snz c
1177  0031  2800     R  	jmp _L114
1179  0032              #line 1179 "C:\Users\steven.ho\Desktop\致新20180124\Leafblower.c"
1179  0032  0F04        	mov a,4
1179  0033  0080     R  	mov _ucMTR_State[0],a
1179  0034  2800     R  	jmp _L107
1179  0035              _L114:
1181  0035              #line 1181 "C:\Users\steven.ho\Desktop\致新20180124\Leafblower.c"
1181  0035  0700     R  	mov a,_uiReleaseKey_CNT[0]
1181  0036  0080     E  	mov ra,a
1181  0037  0700     R  	mov a,_uiReleaseKey_CNT[1]
1181  0038  0080     E  	mov rb,a
1181  0039  0F10        	mov a,16
1181  003A  0200     E  	sub a,ra
1181  003B  0F27        	mov a,39
1181  003C  1200     E  	sbc a,rb
1181  003D  3C0A        	sz c
1181  003E  2800     R  	jmp _L107
1183  003F              #line 1183 "C:\Users\steven.ho\Desktop\致新20180124\Leafblower.c"
1183  003F  1F00     R  	clr _ucMTR_State[0]
1183  0040              _L107:
1183  0040  0003        	ret
1183  0041              _KeyCheck endp
1183  0041              #line 1183 "C:\Users\steven.ho\Desktop\致新20180124\Leafblower.c"
1183  0041              #pragma debug scope 1 1
1183  0041              public _ReadMTRState
1183  0041              #pragma debug scope 35 1
1194  0041              #line 1194 "C:\Users\steven.ho\Desktop\致新20180124\Leafblower.c"
1194  0000              _ReadMTRState .section 'code'
1194  0000              _ReadMTRState proc
1195  0000              #line 1195 "C:\Users\steven.ho\Desktop\致新20180124\Leafblower.c"
1195  0000  0700     R  	mov a,_ucMTR_State[0]
1195  0001  0080     E  	mov ra,a
1195  0002  1F00     E  	clr rb
1195  0003  0700     E  	mov a,ra
1195  0004  0500     E  	or a,rb
1195  0005  3D0A        	sz z
1195  0006  2800     R  	jmp _L117
1195  0007              #line 1195 "C:\Users\steven.ho\Desktop\致新20180124\Leafblower.c"
1195  0007  0700     E  	mov a,ra
1195  0008  0C01        	xor a,1
1195  0009  0500     E  	or a,rb
1195  000A  3D0A        	sz z
1195  000B  2800     R  	jmp _L118
"File: Leafblower.c  Assembler  Version HGASM0202      Page 54

1195  000C  0700     E  	mov a,ra
1195  000D  0C02        	xor a,2
1195  000E  0500     E  	or a,rb
1195  000F  3D0A        	sz z
1195  0010  2800     R  	jmp _L119
1195  0011  0700     E  	mov a,ra
1195  0012  0C03        	xor a,3
1195  0013  0500     E  	or a,rb
1195  0014  3D0A        	sz z
1195  0015  2800     R  	jmp _L120
1195  0016  0700     E  	mov a,ra
1195  0017  0C04        	xor a,4
1195  0018  0500     E  	or a,rb
1195  0019  3D0A        	sz z
1195  001A  2800     R  	jmp _L121
1195  001B  2800     R  	jmp _L123
1195  001C              _L117:
1198  001C              #line 1198 "C:\Users\steven.ho\Desktop\致新20180124\Leafblower.c"
1198  001C  1F00     R  	clr _uiADC_ValueTemp[0]
1198  001D  1F00     R  	clr _uiADC_ValueTemp[1]
1199  001E              #line 1199 "C:\Users\steven.ho\Desktop\致新20180124\Leafblower.c"
1199  001E  2800     R  	jmp _L122
1199  001F              _L118:
1202  001F              #line 1202 "C:\Users\steven.ho\Desktop\致新20180124\Leafblower.c"
1202  001F  0F90        	mov a,-112
1202  0020  0080     R  	mov _uiADC_ValueTemp[0],a
1202  0021  0F01        	mov a,1
1202  0022  0080     R  	mov _uiADC_ValueTemp[1],a
1203  0023              #line 1203 "C:\Users\steven.ho\Desktop\致新20180124\Leafblower.c"
1203  0023  2800     R  	jmp _L122
1203  0024              _L119:
1206  0024              #line 1206 "C:\Users\steven.ho\Desktop\致新20180124\Leafblower.c"
1206  0024  0F88        	mov a,-120
1206  0025  0080     R  	mov _uiADC_ValueTemp[0],a
1206  0026  0F02        	mov a,2
1206  0027  0080     R  	mov _uiADC_ValueTemp[1],a
1207  0028              #line 1207 "C:\Users\steven.ho\Desktop\致新20180124\Leafblower.c"
1207  0028  2800     R  	jmp _L122
1207  0029              _L120:
1210  0029              #line 1210 "C:\Users\steven.ho\Desktop\致新20180124\Leafblower.c"
1210  0029  0F20        	mov a,32
1210  002A  0080     R  	mov _uiADC_ValueTemp[0],a
1210  002B  0F03        	mov a,3
1210  002C  0080     R  	mov _uiADC_ValueTemp[1],a
1211  002D              #line 1211 "C:\Users\steven.ho\Desktop\致新20180124\Leafblower.c"
1211  002D  2800     R  	jmp _L122
1211  002E              _L121:
1214  002E              #line 1214 "C:\Users\steven.ho\Desktop\致新20180124\Leafblower.c"
1214  002E  0F7D        	mov a,125
1214  002F  0080     R  	mov _uiADC_ValueTemp[0],a
1214  0030  1F00     R  	clr _uiADC_ValueTemp[1]
1215  0031              #line 1215 "C:\Users\steven.ho\Desktop\致新20180124\Leafblower.c"
1215  0031  2800     R  	jmp _L122
1215  0032              _L123:
1218  0032              #line 1218 "C:\Users\steven.ho\Desktop\致新20180124\Leafblower.c"
1218  0032  1F00     R  	clr _uiADC_ValueTemp[0]
1218  0033  1F00     R  	clr _uiADC_ValueTemp[1]
1219  0034              #line 1219 "C:\Users\steven.ho\Desktop\致新20180124\Leafblower.c"
1219  0034              	;nop
1219  0034              _L122:
"File: Leafblower.c  Assembler  Version HGASM0202      Page 55

1222  0034              #line 1222 "C:\Users\steven.ho\Desktop\致新20180124\Leafblower.c"
1222  0034  0700     R  	mov a,_uiADCSum[0]
1222  0035  0080     E  	mov rc,a
1222  0036  0700     R  	mov a,_uiADCSum[1]
1222  0037  0080     E  	mov rd,a
1222  0038  0700     R  	mov a,_ucVRIndex[0]
1222  0039  0080     E  	mov ra,a
1222  003A  1F00     E  	clr rb
1222  003B  340A        	clr c
1222  003C  1A80     E  	rlc ra
1222  003D  1A80     E  	rlc rb
1222  003E  0F00     R  	mov a,low offset _uiVRValue
1222  003F  0380     E  	addm a,ra
1222  0040  0F00     R  	mov a,high offset _uiVRValue
1222  0041  1380     E  	adcm a,rb
1222  0042  0700     E  	mov a,ra
1222  0043  0083        	mov mp,a
1222  0044  0700     E  	mov a,rb
1222  0045  0084        	mov sbp,a
1222  0046  2000     E  	call _Crom2Prom
1222  0047  0080     E  	mov ra,a
1222  0048  2000     E  	call _Crom2PromNext
1222  0049  0080     E  	mov rb,a
1222  004A  0700     E  	mov a,rc
1222  004B  0280     E  	subm a,ra
1222  004C  0700     E  	mov a,rd
1222  004D  1280     E  	sbcm a,rb
1222  004E  0700     E  	mov a,ra
1222  004F  0080     R  	mov _uiADCSum[0],a
1222  0050  0700     E  	mov a,rb
1222  0051  0080     R  	mov _uiADCSum[1],a
1223  0052              #line 1223 "C:\Users\steven.ho\Desktop\致新20180124\Leafblower.c"
1223  0052  0700     R  	mov a,_uiADCSum[0]
1223  0053  0080     E  	mov rc,a
1223  0054  0700     R  	mov a,_uiADCSum[1]
1223  0055  0080     E  	mov rd,a
1223  0056  0700     R  	mov a,_uiADC_ValueTemp[0]
1223  0057  0080     E  	mov ra,a
1223  0058  0700     R  	mov a,_uiADC_ValueTemp[1]
1223  0059  0080     E  	mov rb,a
1223  005A  0700     E  	mov a,rc
1223  005B  0380     E  	addm a,ra
1223  005C  0700     E  	mov a,rd
1223  005D  1380     E  	adcm a,rb
1223  005E  0700     E  	mov a,ra
1223  005F  0080     R  	mov _uiADCSum[0],a
1223  0060  0700     E  	mov a,rb
1223  0061  0080     R  	mov _uiADCSum[1],a
1224  0062              #line 1224 "C:\Users\steven.ho\Desktop\致新20180124\Leafblower.c"
1224  0062  0700     R  	mov a,_ucVRIndex[0]
1224  0063  0080     E  	mov ra,a
1224  0064  1F00     E  	clr rb
1224  0065  0700     R  	mov a,_uiADC_ValueTemp[0]
1224  0066  0080     E  	mov rc,a
1224  0067  0700     R  	mov a,_uiADC_ValueTemp[1]
1224  0068  0080     E  	mov rd,a
1224  0069  340A        	clr c
1224  006A  1A80     E  	rlc ra
1224  006B  1A80     E  	rlc rb
1224  006C  0F00     R  	mov a,low offset _uiVRValue
"File: Leafblower.c  Assembler  Version HGASM0202      Page 56

1224  006D  0380     E  	addm a,ra
1224  006E  0F00     R  	mov a,high offset _uiVRValue
1224  006F  1380     E  	adcm a,rb
1224  0070  0700     E  	mov a,ra
1224  0071  0083        	mov mp,a
1224  0072  0700     E  	mov a,rb
1224  0073  0084        	mov sbp,a
1224  0074  0700     E  	mov a,rc
1224  0075  0082        	mov ir,a
1224  0076  1483        	inc mp
1224  0077  0700     E  	mov a,rd
1224  0078  0082        	mov ir,a
1225  0079              #line 1225 "C:\Users\steven.ho\Desktop\致新20180124\Leafblower.c"
1225  0079  0700     R  	mov a,_ucVRIndex[0]
1225  007A  0080     E  	mov ra,a
1225  007B  1480     E  	inc ra
1225  007C  0700     E  	mov a,ra
1225  007D  0080     R  	mov _ucVRIndex[0],a
1226  007E              #line 1226 "C:\Users\steven.ho\Desktop\致新20180124\Leafblower.c"
1226  007E  0700     R  	mov a,_ucVRIndex[0]
1226  007F  0080     E  	mov ra,a
1226  0080  0F03        	mov a,3
1226  0081  0680     E  	andm a,ra
1226  0082  0700     E  	mov a,ra
1226  0083  0080     R  	mov _ucVRIndex[0],a
1227  0084              #line 1227 "C:\Users\steven.ho\Desktop\致新20180124\Leafblower.c"
1227  0084  0700     R  	mov a,_uiADCSum[0]
1227  0085  0080     E  	mov ra,a
1227  0086  0700     R  	mov a,_uiADCSum[1]
1227  0087  0080     E  	mov rb,a
1227  0088  340A        	clr c
1227  0089  1B80     E  	rrc rb
1227  008A  1B80     E  	rrc ra
1227  008B  340A        	clr c
1227  008C  1B80     E  	rrc rb
1227  008D  1B80     E  	rrc ra
1227  008E  0700     E  	mov a,ra
1227  008F  0080     R  	mov _uiVRValue_Final[0],a
1227  0090  0700     E  	mov a,rb
1227  0091  0080     R  	mov _uiVRValue_Final[1],a
1229  0092              #line 1229 "C:\Users\steven.ho\Desktop\致新20180124\Leafblower.c"
1229  0092              ;# 1229 "C:\Users\steven.ho\Desktop\致新20180124\Leafblower.c" 1
1229  0092  0001        	clr	wdt
1229  0093  0003        	ret
1229  0094              _ReadMTRState endp
1229  0094              #line 1229 "C:\Users\steven.ho\Desktop\致新20180124\Leafblower.c"
1229  0094              #pragma debug scope 1 1
1229  0094              ___isrl1 equ [312]
1229  0094              ___isrh1 equ [313]
1229  0094              public _ReadVDC_PowerON
1229  0094              #pragma debug scope 36 1
1241  0094              #line 1241 "C:\Users\steven.ho\Desktop\致新20180124\Leafblower.c"
1241  0000              _ReadVDC_PowerON .section 'code'
1241  0000              _ReadVDC_PowerON proc
1242  0000              #line 1242 "C:\Users\steven.ho\Desktop\致新20180124\Leafblower.c"
1242  0000  8738 0001   	lmov a,[312]
1242  0002  0080     E  	mov ra,a
1242  0003  1F00     E  	clr rb
1242  0004  0700     E  	mov a,ra
1242  0005  0080     R  	mov _uiADC_ValueTemp[0],a
"File: Leafblower.c  Assembler  Version HGASM0202      Page 57

1242  0006  0700     E  	mov a,rb
1242  0007  0080     R  	mov _uiADC_ValueTemp[1],a
1243  0008              #line 1243 "C:\Users\steven.ho\Desktop\致新20180124\Leafblower.c"
1243  0008  8739 0001   	lmov a,[313]
1243  000A  0080     E  	mov ra,a
1243  000B  1F00     E  	clr rb
1243  000C  0700     E  	mov a,ra
1243  000D  0080     E  	mov rb,a
1243  000E  1F00     E  	clr ra
1243  000F  0700     E  	mov a,ra
1243  0010  0080     E  	mov rc,a
1243  0011  0700     E  	mov a,rb
1243  0012  0080     E  	mov rd,a
1243  0013  0700     R  	mov a,_uiADC_ValueTemp[0]
1243  0014  0080     E  	mov ra,a
1243  0015  0700     R  	mov a,_uiADC_ValueTemp[1]
1243  0016  0080     E  	mov rb,a
1243  0017  0700     E  	mov a,rc
1243  0018  0380     E  	addm a,ra
1243  0019  0700     E  	mov a,rd
1243  001A  1380     E  	adcm a,rb
1243  001B  0700     E  	mov a,ra
1243  001C  0080     R  	mov _uiADC_ValueTemp[0],a
1243  001D  0700     E  	mov a,rb
1243  001E  0080     R  	mov _uiADC_ValueTemp[1],a
1244  001F              #line 1244 "C:\Users\steven.ho\Desktop\致新20180124\Leafblower.c"
1244  001F  35BA        	clr [58].3
1245  0020              #line 1245 "C:\Users\steven.ho\Desktop\致新20180124\Leafblower.c"
1245  0020  0700     R  	mov a,_uiADC_ValueTemp[0]
1245  0021  0080     E  	mov ra,a
1245  0022  0700     R  	mov a,_uiADC_ValueTemp[1]
1245  0023  0080     E  	mov rb,a
1245  0024  0700     E  	mov a,ra
1245  0025  0080     R  	mov _uiVDCValue_Final[0],a
1245  0026  0700     E  	mov a,rb
1245  0027  0080     R  	mov _uiVDCValue_Final[1],a
1246  0028              #line 1246 "C:\Users\steven.ho\Desktop\致新20180124\Leafblower.c"
1246  0028  0700     R  	mov a,_uiVDCValue_Final[0]
1246  0029  0080     E  	mov ra,a
1246  002A  0700     R  	mov a,_uiVDCValue_Final[1]
1246  002B  0080     E  	mov rb,a
1246  002C  0F37        	mov a,55
1246  002D  0200     E  	sub a,ra
1246  002E  0F02        	mov a,2
1246  002F  1200     E  	sbc a,rb
1246  0030  3C0A        	sz c
1246  0031  2800     R  	jmp _L125
1248  0032              #line 1248 "C:\Users\steven.ho\Desktop\致新20180124\Leafblower.c"
1248  0032  7102        	set [130].2
1248  0033  2800     R  	jmp _L126
1248  0034              _L125:
1252  0034              #line 1252 "C:\Users\steven.ho\Desktop\致新20180124\Leafblower.c"
1252  0034  7502        	clr [130].2
1252  0035              _L126:
1254  0035              #line 1254 "C:\Users\steven.ho\Desktop\致新20180124\Leafblower.c"
1254  0035  7102        	set [130].2
1254  0036  0003        	ret
1254  0037              _ReadVDC_PowerON endp
1254  0037              #line 1254 "C:\Users\steven.ho\Desktop\致新20180124\Leafblower.c"
1254  0037              #pragma debug scope 1 1
"File: Leafblower.c  Assembler  Version HGASM0202      Page 58

1254  0037              public _ReadVDC
1254  0037              #pragma debug scope 37 1
1263  0037              #line 1263 "C:\Users\steven.ho\Desktop\致新20180124\Leafblower.c"
1263  0000              _ReadVDC .section 'code'
1263  0000              _ReadVDC proc
1264  0000              #line 1264 "C:\Users\steven.ho\Desktop\致新20180124\Leafblower.c"
1264  0000  8738 0001   	lmov a,[312]
1264  0002  0080     E  	mov ra,a
1264  0003  1F00     E  	clr rb
1264  0004  0700     E  	mov a,ra
1264  0005  0080     R  	mov _uiADC_ValueTemp[0],a
1264  0006  0700     E  	mov a,rb
1264  0007  0080     R  	mov _uiADC_ValueTemp[1],a
1265  0008              #line 1265 "C:\Users\steven.ho\Desktop\致新20180124\Leafblower.c"
1265  0008  8739 0001   	lmov a,[313]
1265  000A  0080     E  	mov ra,a
1265  000B  1F00     E  	clr rb
1265  000C  0700     E  	mov a,ra
1265  000D  0080     E  	mov rb,a
1265  000E  1F00     E  	clr ra
1265  000F  0700     E  	mov a,ra
1265  0010  0080     E  	mov rc,a
1265  0011  0700     E  	mov a,rb
1265  0012  0080     E  	mov rd,a
1265  0013  0700     R  	mov a,_uiADC_ValueTemp[0]
1265  0014  0080     E  	mov ra,a
1265  0015  0700     R  	mov a,_uiADC_ValueTemp[1]
1265  0016  0080     E  	mov rb,a
1265  0017  0700     E  	mov a,rc
1265  0018  0380     E  	addm a,ra
1265  0019  0700     E  	mov a,rd
1265  001A  1380     E  	adcm a,rb
1265  001B  0700     E  	mov a,ra
1265  001C  0080     R  	mov _uiADC_ValueTemp[0],a
1265  001D  0700     E  	mov a,rb
1265  001E  0080     R  	mov _uiADC_ValueTemp[1],a
1266  001F              #line 1266 "C:\Users\steven.ho\Desktop\致新20180124\Leafblower.c"
1266  001F  35BA        	clr [58].3
1268  0020              #line 1268 "C:\Users\steven.ho\Desktop\致新20180124\Leafblower.c"
1268  0020  0700     R  	mov a,_uiVDCADCSum[0]
1268  0021  0080     E  	mov rc,a
1268  0022  0700     R  	mov a,_uiVDCADCSum[1]
1268  0023  0080     E  	mov rd,a
1268  0024  0700     R  	mov a,_ucVDCIndex[0]
1268  0025  0080     E  	mov ra,a
1268  0026  1F00     E  	clr rb
1268  0027  340A        	clr c
1268  0028  1A80     E  	rlc ra
1268  0029  1A80     E  	rlc rb
1268  002A  0F00     R  	mov a,low offset _uiVDCValue
1268  002B  0380     E  	addm a,ra
1268  002C  0F00     R  	mov a,high offset _uiVDCValue
1268  002D  1380     E  	adcm a,rb
1268  002E  0700     E  	mov a,ra
1268  002F  0083        	mov mp,a
1268  0030  0700     E  	mov a,rb
1268  0031  0084        	mov sbp,a
1268  0032  2000     E  	call _Crom2Prom
1268  0033  0080     E  	mov ra,a
1268  0034  2000     E  	call _Crom2PromNext
"File: Leafblower.c  Assembler  Version HGASM0202      Page 59

1268  0035  0080     E  	mov rb,a
1268  0036  0700     E  	mov a,rc
1268  0037  0280     E  	subm a,ra
1268  0038  0700     E  	mov a,rd
1268  0039  1280     E  	sbcm a,rb
1268  003A  0700     E  	mov a,ra
1268  003B  0080     R  	mov _uiVDCADCSum[0],a
1268  003C  0700     E  	mov a,rb
1268  003D  0080     R  	mov _uiVDCADCSum[1],a
1269  003E              #line 1269 "C:\Users\steven.ho\Desktop\致新20180124\Leafblower.c"
1269  003E  0700     R  	mov a,_uiVDCADCSum[0]
1269  003F  0080     E  	mov rc,a
1269  0040  0700     R  	mov a,_uiVDCADCSum[1]
1269  0041  0080     E  	mov rd,a
1269  0042  0700     R  	mov a,_uiADC_ValueTemp[0]
1269  0043  0080     E  	mov ra,a
1269  0044  0700     R  	mov a,_uiADC_ValueTemp[1]
1269  0045  0080     E  	mov rb,a
1269  0046  0700     E  	mov a,rc
1269  0047  0380     E  	addm a,ra
1269  0048  0700     E  	mov a,rd
1269  0049  1380     E  	adcm a,rb
1269  004A  0700     E  	mov a,ra
1269  004B  0080     R  	mov _uiVDCADCSum[0],a
1269  004C  0700     E  	mov a,rb
1269  004D  0080     R  	mov _uiVDCADCSum[1],a
1270  004E              #line 1270 "C:\Users\steven.ho\Desktop\致新20180124\Leafblower.c"
1270  004E  0700     R  	mov a,_ucVDCIndex[0]
1270  004F  0080     E  	mov ra,a
1270  0050  1F00     E  	clr rb
1270  0051  0700     R  	mov a,_uiADC_ValueTemp[0]
1270  0052  0080     E  	mov rc,a
1270  0053  0700     R  	mov a,_uiADC_ValueTemp[1]
1270  0054  0080     E  	mov rd,a
1270  0055  340A        	clr c
1270  0056  1A80     E  	rlc ra
1270  0057  1A80     E  	rlc rb
1270  0058  0F00     R  	mov a,low offset _uiVDCValue
1270  0059  0380     E  	addm a,ra
1270  005A  0F00     R  	mov a,high offset _uiVDCValue
1270  005B  1380     E  	adcm a,rb
1270  005C  0700     E  	mov a,ra
1270  005D  0083        	mov mp,a
1270  005E  0700     E  	mov a,rb
1270  005F  0084        	mov sbp,a
1270  0060  0700     E  	mov a,rc
1270  0061  0082        	mov ir,a
1270  0062  1483        	inc mp
1270  0063  0700     E  	mov a,rd
1270  0064  0082        	mov ir,a
1271  0065              #line 1271 "C:\Users\steven.ho\Desktop\致新20180124\Leafblower.c"
1271  0065  0700     R  	mov a,_ucVDCIndex[0]
1271  0066  0080     E  	mov ra,a
1271  0067  1480     E  	inc ra
1271  0068  0700     E  	mov a,ra
1271  0069  0080     R  	mov _ucVDCIndex[0],a
1272  006A              #line 1272 "C:\Users\steven.ho\Desktop\致新20180124\Leafblower.c"
1272  006A  0700     R  	mov a,_ucVDCIndex[0]
1272  006B  0080     E  	mov ra,a
1272  006C  0F03        	mov a,3
"File: Leafblower.c  Assembler  Version HGASM0202      Page 60

1272  006D  0680     E  	andm a,ra
1272  006E  0700     E  	mov a,ra
1272  006F  0080     R  	mov _ucVDCIndex[0],a
1273  0070              #line 1273 "C:\Users\steven.ho\Desktop\致新20180124\Leafblower.c"
1273  0070  0700     R  	mov a,_uiVDCADCSum[0]
1273  0071  0080     E  	mov ra,a
1273  0072  0700     R  	mov a,_uiVDCADCSum[1]
1273  0073  0080     E  	mov rb,a
1273  0074  340A        	clr c
1273  0075  1B80     E  	rrc rb
1273  0076  1B80     E  	rrc ra
1273  0077  340A        	clr c
1273  0078  1B80     E  	rrc rb
1273  0079  1B80     E  	rrc ra
1273  007A  0700     E  	mov a,ra
1273  007B  0080     R  	mov _uiVDCValue_Final[0],a
1273  007C  0700     E  	mov a,rb
1273  007D  0080     R  	mov _uiVDCValue_Final[1],a
1275  007E              #line 1275 "C:\Users\steven.ho\Desktop\致新20180124\Leafblower.c"
1275  007E  4702        	mov a,[130]
1275  007F  0080     E  	mov ra,a
1275  0080  0F04        	mov a,4
1275  0081  0680     E  	andm a,ra
1275  0082  1E00     E  	snz ra
1275  0083  2800     R  	jmp _L128
1277  0084              #line 1277 "C:\Users\steven.ho\Desktop\致新20180124\Leafblower.c"
1277  0084  0700     R  	mov a,_uiVDCValue_Final[0]
1277  0085  0080     E  	mov ra,a
1277  0086  0700     R  	mov a,_uiVDCValue_Final[1]
1277  0087  0080     E  	mov rb,a
1277  0088  0F26        	mov a,38
1277  0089  0200     E  	sub a,ra
1277  008A  0F03        	mov a,3
1277  008B  1200     E  	sbc a,rb
1277  008C  3C0A        	sz c
1277  008D  2800     R  	jmp _L129
1279  008E              #line 1279 "C:\Users\steven.ho\Desktop\致新20180124\Leafblower.c"
1279  008E  7301        	set [129].6
1279  008F  2800     R  	jmp _L130
1279  0090              _L129:
1282  0090              #line 1282 "C:\Users\steven.ho\Desktop\致新20180124\Leafblower.c"
1282  0090  0700     R  	mov a,_uiVDCValue_Final[0]
1282  0091  0080     E  	mov ra,a
1282  0092  0700     R  	mov a,_uiVDCValue_Final[1]
1282  0093  0080     E  	mov rb,a
1282  0094  0F0C        	mov a,12
1282  0095  0200     E  	sub a,ra
1282  0096  0F03        	mov a,3
1282  0097  1200     E  	sbc a,rb
1282  0098  380A        	snz c
1282  0099  2800     R  	jmp _L130
1282  009A  4701        	mov a,[129]
1282  009B  0080     E  	mov ra,a
1282  009C  0F10        	mov a,16
1282  009D  0680     E  	andm a,ra
1282  009E  1080     E  	sz ra
1282  009F  2800     R  	jmp _L130
1284  00A0              #line 1284 "C:\Users\steven.ho\Desktop\致新20180124\Leafblower.c"
1284  00A0  7701        	clr [129].6
1285  00A1              #line 1285 "C:\Users\steven.ho\Desktop\致新20180124\Leafblower.c"
"File: Leafblower.c  Assembler  Version HGASM0202      Page 61

1285  00A1  7482        	clr [130].1
1286  00A2              #line 1286 "C:\Users\steven.ho\Desktop\致新20180124\Leafblower.c"
1286  00A2  1F00     R  	clr _uiVoltageCheckCnt[0]
1286  00A3  1F00     R  	clr _uiVoltageCheckCnt[1]
1286  00A4              _L130:
1289  00A4              #line 1289 "C:\Users\steven.ho\Desktop\致新20180124\Leafblower.c"
1289  00A4  0700     R  	mov a,_uiVDCValue_Final[0]
1289  00A5  0080     E  	mov ra,a
1289  00A6  0700     R  	mov a,_uiVDCValue_Final[1]
1289  00A7  0080     E  	mov rb,a
1289  00A8  0F29        	mov a,41
1289  00A9  0200     E  	sub a,ra
1289  00AA  0F02        	mov a,2
1289  00AB  1200     E  	sbc a,rb
1289  00AC  380A        	snz c
1289  00AD  2800     R  	jmp _L131
1291  00AE              #line 1291 "C:\Users\steven.ho\Desktop\致新20180124\Leafblower.c"
1291  00AE  7201        	set [129].4
1291  00AF  2800     R  	jmp _L133
1291  00B0              _L131:
1294  00B0              #line 1294 "C:\Users\steven.ho\Desktop\致新20180124\Leafblower.c"
1294  00B0  0700     R  	mov a,_uiVDCValue_Final[0]
1294  00B1  0080     E  	mov ra,a
1294  00B2  0700     R  	mov a,_uiVDCValue_Final[1]
1294  00B3  0080     E  	mov rb,a
1294  00B4  0F37        	mov a,55
1294  00B5  0200     E  	sub a,ra
1294  00B6  0F02        	mov a,2
1294  00B7  1200     E  	sbc a,rb
1294  00B8  3C0A        	sz c
1294  00B9  2800     R  	jmp _L133
1294  00BA  4701        	mov a,[129]
1294  00BB  0080     E  	mov ra,a
1294  00BC  0F40        	mov a,64
1294  00BD  0680     E  	andm a,ra
1294  00BE  1080     E  	sz ra
1294  00BF  2800     R  	jmp _L133
1296  00C0              #line 1296 "C:\Users\steven.ho\Desktop\致新20180124\Leafblower.c"
1296  00C0  7601        	clr [129].4
1297  00C1              #line 1297 "C:\Users\steven.ho\Desktop\致新20180124\Leafblower.c"
1297  00C1  7482        	clr [130].1
1298  00C2              #line 1298 "C:\Users\steven.ho\Desktop\致新20180124\Leafblower.c"
1298  00C2  1F00     R  	clr _uiVoltageCheckCnt[0]
1298  00C3  1F00     R  	clr _uiVoltageCheckCnt[1]
1298  00C4  2800     R  	jmp _L133
1298  00C5              _L128:
1303  00C5              #line 1303 "C:\Users\steven.ho\Desktop\致新20180124\Leafblower.c"
1303  00C5  0700     R  	mov a,_uiVDCValue_Final[0]
1303  00C6  0080     E  	mov ra,a
1303  00C7  0700     R  	mov a,_uiVDCValue_Final[1]
1303  00C8  0080     E  	mov rb,a
1303  00C9  0FC0        	mov a,192
1303  00CA  0200     E  	sub a,ra
1303  00CB  0F02        	mov a,2
1303  00CC  1200     E  	sbc a,rb
1303  00CD  3C0A        	sz c
1303  00CE  2800     R  	jmp _L134
1305  00CF              #line 1305 "C:\Users\steven.ho\Desktop\致新20180124\Leafblower.c"
1305  00CF  7301        	set [129].6
1305  00D0  2800     R  	jmp _L135
"File: Leafblower.c  Assembler  Version HGASM0202      Page 62

1305  00D1              _L134:
1308  00D1              #line 1308 "C:\Users\steven.ho\Desktop\致新20180124\Leafblower.c"
1308  00D1  0700     R  	mov a,_uiVDCValue_Final[0]
1308  00D2  0080     E  	mov ra,a
1308  00D3  0700     R  	mov a,_uiVDCValue_Final[1]
1308  00D4  0080     E  	mov rb,a
1308  00D5  0FB2        	mov a,178
1308  00D6  0200     E  	sub a,ra
1308  00D7  0F02        	mov a,2
1308  00D8  1200     E  	sbc a,rb
1308  00D9  380A        	snz c
1308  00DA  2800     R  	jmp _L135
1308  00DB  4701        	mov a,[129]
1308  00DC  0080     E  	mov ra,a
1308  00DD  0F10        	mov a,16
1308  00DE  0680     E  	andm a,ra
1308  00DF  1080     E  	sz ra
1308  00E0  2800     R  	jmp _L135
1310  00E1              #line 1310 "C:\Users\steven.ho\Desktop\致新20180124\Leafblower.c"
1310  00E1  7701        	clr [129].6
1311  00E2              #line 1311 "C:\Users\steven.ho\Desktop\致新20180124\Leafblower.c"
1311  00E2  7482        	clr [130].1
1312  00E3              #line 1312 "C:\Users\steven.ho\Desktop\致新20180124\Leafblower.c"
1312  00E3  1F00     R  	clr _uiVoltageCheckCnt[0]
1312  00E4  1F00     R  	clr _uiVoltageCheckCnt[1]
1312  00E5              _L135:
1315  00E5              #line 1315 "C:\Users\steven.ho\Desktop\致新20180124\Leafblower.c"
1315  00E5  0700     R  	mov a,_uiVDCValue_Final[0]
1315  00E6  0080     E  	mov ra,a
1315  00E7  0700     R  	mov a,_uiVDCValue_Final[1]
1315  00E8  0080     E  	mov rb,a
1315  00E9  0F6C        	mov a,108
1315  00EA  0200     E  	sub a,ra
1315  00EB  0F01        	mov a,1
1315  00EC  1200     E  	sbc a,rb
1315  00ED  380A        	snz c
1315  00EE  2800     R  	jmp _L136
1317  00EF              #line 1317 "C:\Users\steven.ho\Desktop\致新20180124\Leafblower.c"
1317  00EF  7201        	set [129].4
1317  00F0  2800     R  	jmp _L133
1317  00F1              _L136:
1320  00F1              #line 1320 "C:\Users\steven.ho\Desktop\致新20180124\Leafblower.c"
1320  00F1  0700     R  	mov a,_uiVDCValue_Final[0]
1320  00F2  0080     E  	mov ra,a
1320  00F3  0700     R  	mov a,_uiVDCValue_Final[1]
1320  00F4  0080     E  	mov rb,a
1320  00F5  0F7D        	mov a,125
1320  00F6  0200     E  	sub a,ra
1320  00F7  0F01        	mov a,1
1320  00F8  1200     E  	sbc a,rb
1320  00F9  3C0A        	sz c
1320  00FA  2800     R  	jmp _L133
1320  00FB  4701        	mov a,[129]
1320  00FC  0080     E  	mov ra,a
1320  00FD  0F40        	mov a,64
1320  00FE  0680     E  	andm a,ra
1320  00FF  1080     E  	sz ra
1320  0100  2800     R  	jmp _L133
1322  0101              #line 1322 "C:\Users\steven.ho\Desktop\致新20180124\Leafblower.c"
1322  0101  7601        	clr [129].4
"File: Leafblower.c  Assembler  Version HGASM0202      Page 63

1323  0102              #line 1323 "C:\Users\steven.ho\Desktop\致新20180124\Leafblower.c"
1323  0102  7482        	clr [130].1
1324  0103              #line 1324 "C:\Users\steven.ho\Desktop\致新20180124\Leafblower.c"
1324  0103  1F00     R  	clr _uiVoltageCheckCnt[0]
1324  0104  1F00     R  	clr _uiVoltageCheckCnt[1]
1324  0105              _L133:
1328  0105              #line 1328 "C:\Users\steven.ho\Desktop\致新20180124\Leafblower.c"
1328  0105  7601        	clr [129].4
1329  0106              #line 1329 "C:\Users\steven.ho\Desktop\致新20180124\Leafblower.c"
1329  0106  7482        	clr [130].1
1330  0107              #line 1330 "C:\Users\steven.ho\Desktop\致新20180124\Leafblower.c"
1330  0107  1F00     R  	clr _uiVoltageCheckCnt[0]
1330  0108  1F00     R  	clr _uiVoltageCheckCnt[1]
1331  0109              #line 1331 "C:\Users\steven.ho\Desktop\致新20180124\Leafblower.c"
1331  0109              ;# 1331 "C:\Users\steven.ho\Desktop\致新20180124\Leafblower.c" 1
1331  0109  0001        	clr	wdt
1331  010A  0003        	ret
1331  010B              _ReadVDC endp
1331  010B              #line 1331 "C:\Users\steven.ho\Desktop\致新20180124\Leafblower.c"
1331  010B              #pragma debug scope 1 1
1331  010B              ___isrl0 equ [310]
1331  010B              ___isrh0 equ [311]
1331  010B              public _ReadCurrent
1331  010B              #pragma debug scope 38 1
1341  010B              #line 1341 "C:\Users\steven.ho\Desktop\致新20180124\Leafblower.c"
1341  0000              _ReadCurrent .section 'code'
1341  0000              _ReadCurrent proc
1342  0000              #line 1342 "C:\Users\steven.ho\Desktop\致新20180124\Leafblower.c"
1342  0000  8736 0001   	lmov a,[310]
1342  0002  0080     E  	mov ra,a
1342  0003  1F00     E  	clr rb
1342  0004  0700     E  	mov a,ra
1342  0005  0080     R  	mov _uiADC_ValueTemp[0],a
1342  0006  0700     E  	mov a,rb
1342  0007  0080     R  	mov _uiADC_ValueTemp[1],a
1343  0008              #line 1343 "C:\Users\steven.ho\Desktop\致新20180124\Leafblower.c"
1343  0008  8737 0001   	lmov a,[311]
1343  000A  0080     E  	mov ra,a
1343  000B  1F00     E  	clr rb
1343  000C  0700     E  	mov a,ra
1343  000D  0080     E  	mov rb,a
1343  000E  1F00     E  	clr ra
1343  000F  0700     E  	mov a,ra
1343  0010  0080     E  	mov rc,a
1343  0011  0700     E  	mov a,rb
1343  0012  0080     E  	mov rd,a
1343  0013  0700     R  	mov a,_uiADC_ValueTemp[0]
1343  0014  0080     E  	mov ra,a
1343  0015  0700     R  	mov a,_uiADC_ValueTemp[1]
1343  0016  0080     E  	mov rb,a
1343  0017  0700     E  	mov a,rc
1343  0018  0380     E  	addm a,ra
1343  0019  0700     E  	mov a,rd
1343  001A  1380     E  	adcm a,rb
1343  001B  0700     E  	mov a,ra
1343  001C  0080     R  	mov _uiADC_ValueTemp[0],a
1343  001D  0700     E  	mov a,rb
1343  001E  0080     R  	mov _uiADC_ValueTemp[1],a
1344  001F              #line 1344 "C:\Users\steven.ho\Desktop\致新20180124\Leafblower.c"
1344  001F  35BA        	clr [58].3
"File: Leafblower.c  Assembler  Version HGASM0202      Page 64

1346  0020              #line 1346 "C:\Users\steven.ho\Desktop\致新20180124\Leafblower.c"
1346  0020  0700     R  	mov a,_uiCurrentADCSum[0]
1346  0021  0080     E  	mov rc,a
1346  0022  0700     R  	mov a,_uiCurrentADCSum[1]
1346  0023  0080     E  	mov rd,a
1346  0024  0700     R  	mov a,_ucCurrentIndex[0]
1346  0025  0080     E  	mov ra,a
1346  0026  1F00     E  	clr rb
1346  0027  340A        	clr c
1346  0028  1A80     E  	rlc ra
1346  0029  1A80     E  	rlc rb
1346  002A  0F00     R  	mov a,low offset _uiCurrentValue
1346  002B  0380     E  	addm a,ra
1346  002C  0F00     R  	mov a,high offset _uiCurrentValue
1346  002D  1380     E  	adcm a,rb
1346  002E  0700     E  	mov a,ra
1346  002F  0083        	mov mp,a
1346  0030  0700     E  	mov a,rb
1346  0031  0084        	mov sbp,a
1346  0032  2000     E  	call _Crom2Prom
1346  0033  0080     E  	mov ra,a
1346  0034  2000     E  	call _Crom2PromNext
1346  0035  0080     E  	mov rb,a
1346  0036  0700     E  	mov a,rc
1346  0037  0280     E  	subm a,ra
1346  0038  0700     E  	mov a,rd
1346  0039  1280     E  	sbcm a,rb
1346  003A  0700     E  	mov a,ra
1346  003B  0080     R  	mov _uiCurrentADCSum[0],a
1346  003C  0700     E  	mov a,rb
1346  003D  0080     R  	mov _uiCurrentADCSum[1],a
1347  003E              #line 1347 "C:\Users\steven.ho\Desktop\致新20180124\Leafblower.c"
1347  003E  0700     R  	mov a,_uiCurrentADCSum[0]
1347  003F  0080     E  	mov rc,a
1347  0040  0700     R  	mov a,_uiCurrentADCSum[1]
1347  0041  0080     E  	mov rd,a
1347  0042  0700     R  	mov a,_uiADC_ValueTemp[0]
1347  0043  0080     E  	mov ra,a
1347  0044  0700     R  	mov a,_uiADC_ValueTemp[1]
1347  0045  0080     E  	mov rb,a
1347  0046  0700     E  	mov a,rc
1347  0047  0380     E  	addm a,ra
1347  0048  0700     E  	mov a,rd
1347  0049  1380     E  	adcm a,rb
1347  004A  0700     E  	mov a,ra
1347  004B  0080     R  	mov _uiCurrentADCSum[0],a
1347  004C  0700     E  	mov a,rb
1347  004D  0080     R  	mov _uiCurrentADCSum[1],a
1348  004E              #line 1348 "C:\Users\steven.ho\Desktop\致新20180124\Leafblower.c"
1348  004E  0700     R  	mov a,_ucCurrentIndex[0]
1348  004F  0080     E  	mov ra,a
1348  0050  1F00     E  	clr rb
1348  0051  0700     R  	mov a,_uiADC_ValueTemp[0]
1348  0052  0080     E  	mov rc,a
1348  0053  0700     R  	mov a,_uiADC_ValueTemp[1]
1348  0054  0080     E  	mov rd,a
1348  0055  340A        	clr c
1348  0056  1A80     E  	rlc ra
1348  0057  1A80     E  	rlc rb
1348  0058  0F00     R  	mov a,low offset _uiCurrentValue
"File: Leafblower.c  Assembler  Version HGASM0202      Page 65

1348  0059  0380     E  	addm a,ra
1348  005A  0F00     R  	mov a,high offset _uiCurrentValue
1348  005B  1380     E  	adcm a,rb
1348  005C  0700     E  	mov a,ra
1348  005D  0083        	mov mp,a
1348  005E  0700     E  	mov a,rb
1348  005F  0084        	mov sbp,a
1348  0060  0700     E  	mov a,rc
1348  0061  0082        	mov ir,a
1348  0062  1483        	inc mp
1348  0063  0700     E  	mov a,rd
1348  0064  0082        	mov ir,a
1349  0065              #line 1349 "C:\Users\steven.ho\Desktop\致新20180124\Leafblower.c"
1349  0065  0700     R  	mov a,_ucCurrentIndex[0]
1349  0066  0080     E  	mov ra,a
1349  0067  1480     E  	inc ra
1349  0068  0700     E  	mov a,ra
1349  0069  0080     R  	mov _ucCurrentIndex[0],a
1350  006A              #line 1350 "C:\Users\steven.ho\Desktop\致新20180124\Leafblower.c"
1350  006A  0700     R  	mov a,_ucCurrentIndex[0]
1350  006B  0080     E  	mov ra,a
1350  006C  0F03        	mov a,3
1350  006D  0680     E  	andm a,ra
1350  006E  0700     E  	mov a,ra
1350  006F  0080     R  	mov _ucCurrentIndex[0],a
1351  0070              #line 1351 "C:\Users\steven.ho\Desktop\致新20180124\Leafblower.c"
1351  0070  0700     R  	mov a,_uiCurrentADCSum[0]
1351  0071  0080     E  	mov ra,a
1351  0072  0700     R  	mov a,_uiCurrentADCSum[1]
1351  0073  0080     E  	mov rb,a
1351  0074  340A        	clr c
1351  0075  1B80     E  	rrc rb
1351  0076  1B80     E  	rrc ra
1351  0077  340A        	clr c
1351  0078  1B80     E  	rrc rb
1351  0079  1B80     E  	rrc ra
1351  007A  0700     E  	mov a,ra
1351  007B  0080     R  	mov _uiCurrentValue_Final[0],a
1351  007C  0700     E  	mov a,rb
1351  007D  0080     R  	mov _uiCurrentValue_Final[1],a
1353  007E              #line 1353 "C:\Users\steven.ho\Desktop\致新20180124\Leafblower.c"
1353  007E  0700     R  	mov a,_uiCurrentValue_Final[0]
1353  007F  0080     E  	mov ra,a
1353  0080  0700     R  	mov a,_uiCurrentValue_Final[1]
1353  0081  0080     E  	mov rb,a
1353  0082  0FF4        	mov a,244
1353  0083  0200     E  	sub a,ra
1353  0084  0F01        	mov a,1
1353  0085  1200     E  	sbc a,rb
1353  0086  3C0A        	sz c
1353  0087  2800     R  	jmp _L138
1353  0088              #line 1353 "C:\Users\steven.ho\Desktop\致新20180124\Leafblower.c"
1353  0088  4700        	mov a,[128]
1353  0089  0080     E  	mov ra,a
1353  008A  0F40        	mov a,64
1353  008B  0680     E  	andm a,ra
1353  008C  1E00     E  	snz ra
1353  008D  2800     R  	jmp _L138
1355  008E              #line 1355 "C:\Users\steven.ho\Desktop\致新20180124\Leafblower.c"
1355  008E  7281        	set [129].5
"File: Leafblower.c  Assembler  Version HGASM0202      Page 66

1356  008F              #line 1356 "C:\Users\steven.ho\Desktop\致新20180124\Leafblower.c"
1356  008F  0700     R  	mov a,_uiTempPWM[0]
1356  0090  0080     E  	mov ra,a
1356  0091  0700     R  	mov a,_uiTempPWM[1]
1356  0092  0080     E  	mov rb,a
1356  0093  0F50        	mov a,80
1356  0094  0200     E  	sub a,ra
1356  0095  0F00        	mov a,0
1356  0096  1200     E  	sbc a,rb
1356  0097  3C0A        	sz c
1356  0098  2800     R  	jmp _L139
1358  0099              #line 1358 "C:\Users\steven.ho\Desktop\致新20180124\Leafblower.c"
1358  0099  0700     R  	mov a,_uiTempPWM[0]
1358  009A  0080     E  	mov ra,a
1358  009B  0700     R  	mov a,_uiTempPWM[1]
1358  009C  0080     E  	mov rb,a
1358  009D  0FFF        	mov a,255
1358  009E  0380     E  	addm a,ra
1358  009F  0FFF        	mov a,255
1358  00A0  1380     E  	adcm a,rb
1358  00A1  0700     E  	mov a,ra
1358  00A2  0080     R  	mov _uiTempPWM[0],a
1358  00A3  0700     E  	mov a,rb
1358  00A4  0080     R  	mov _uiTempPWM[1],a
1359  00A5              #line 1359 "C:\Users\steven.ho\Desktop\致新20180124\Leafblower.c"
1359  00A5  0700     R  	mov a,_uiTempPWM[0]
1359  00A6  0080     E  	mov ra,a
1359  00A7  0700     R  	mov a,_uiTempPWM[1]
1359  00A8  0080     E  	mov rb,a
1359  00A9  0700     E  	mov a,rb
1359  00AA  0080     E  	mov ra,a
1359  00AB  1F00     E  	clr rb
1359  00AC  0700     E  	mov a,ra
1359  00AD  0080     R  	mov _ValueTemp[0],a
1360  00AE              #line 1360 "C:\Users\steven.ho\Desktop\致新20180124\Leafblower.c"
1360  00AE  0700     R  	mov a,_ValueTemp[0]
1360  00AF  0080     E  	mov ra,a
1360  00B0  0700     E  	mov a,ra
1360  00B1  00D9        	mov [89],a
1361  00B2              #line 1361 "C:\Users\steven.ho\Desktop\致新20180124\Leafblower.c"
1361  00B2  0700     R  	mov a,_uiTempPWM[0]
1361  00B3  0080     E  	mov ra,a
1361  00B4  0700     R  	mov a,_uiTempPWM[1]
1361  00B5  0080     E  	mov rb,a
1361  00B6  0700     E  	mov a,ra
1361  00B7  0080     R  	mov _ValueTemp[0],a
1362  00B8              #line 1362 "C:\Users\steven.ho\Desktop\致新20180124\Leafblower.c"
1362  00B8  0700     R  	mov a,_ValueTemp[0]
1362  00B9  0080     E  	mov ra,a
1362  00BA  0700     E  	mov a,ra
1362  00BB  00D8        	mov [88],a
1363  00BC              #line 1363 "C:\Users\steven.ho\Desktop\致新20180124\Leafblower.c"
1363  00BC  B155 0001   	lset [341].2
1356  00BE              #line 1356 "C:\Users\steven.ho\Desktop\致新20180124\Leafblower.c"
1356  00BE  2800     R  	jmp _L140
1356  00BF              _L139:
1356  00BF  2800     R  	jmp _L140
1356  00C0              _L138:
1369  00C0              #line 1369 "C:\Users\steven.ho\Desktop\致新20180124\Leafblower.c"
1369  00C0  7681        	clr [129].5
"File: Leafblower.c  Assembler  Version HGASM0202      Page 67

1369  00C1              _L140:
1372  00C1              #line 1372 "C:\Users\steven.ho\Desktop\致新20180124\Leafblower.c"
1372  00C1              ;# 1372 "C:\Users\steven.ho\Desktop\致新20180124\Leafblower.c" 1
1372  00C1  0001        	clr	wdt
1372  00C2  0003        	ret
1372  00C3              _ReadCurrent endp
1372  00C3              #line 1372 "C:\Users\steven.ho\Desktop\致新20180124\Leafblower.c"
1372  00C3              #pragma debug scope 1 1
1372  00C3              public _get_drag_pwm
1372  00C3              #pragma debug scope 39 1
1382  00C3              #line 1382 "C:\Users\steven.ho\Desktop\致新20180124\Leafblower.c"
1382  0000              _get_drag_pwm .section 'code'
1382  0000              _get_drag_pwm proc
1383  0000              #line 1383 "C:\Users\steven.ho\Desktop\致新20180124\Leafblower.c"
1383  0000              ;# 1383 "C:\Users\steven.ho\Desktop\致新20180124\Leafblower.c" 1
1383  0000  0F80        	MOV	A,80H
1384  0001              #line 1384 "C:\Users\steven.ho\Desktop\致新20180124\Leafblower.c"
1384  0001              ;# 1384 "C:\Users\steven.ho\Desktop\致新20180124\Leafblower.c" 1
1384  0001  00F6        	MOV	MDU1R0,A
1385  0002              #line 1385 "C:\Users\steven.ho\Desktop\致新20180124\Leafblower.c"
1385  0002              ;# 1385 "C:\Users\steven.ho\Desktop\致新20180124\Leafblower.c" 1
1385  0002  0FEE        	MOV	A,0EEH
1386  0003              #line 1386 "C:\Users\steven.ho\Desktop\致新20180124\Leafblower.c"
1386  0003              ;# 1386 "C:\Users\steven.ho\Desktop\致新20180124\Leafblower.c" 1
1386  0003  00F7        	MOV	MDU1R1,A
1387  0004              #line 1387 "C:\Users\steven.ho\Desktop\致新20180124\Leafblower.c"
1387  0004              ;# 1387 "C:\Users\steven.ho\Desktop\致新20180124\Leafblower.c" 1
1387  0004  0F00        	MOV	A,0H
1388  0005              #line 1388 "C:\Users\steven.ho\Desktop\致新20180124\Leafblower.c"
1388  0005              ;# 1388 "C:\Users\steven.ho\Desktop\致新20180124\Leafblower.c" 1
1388  0005  00F8        	MOV	MDU1R2,A
1390  0006              #line 1390 "C:\Users\steven.ho\Desktop\致新20180124\Leafblower.c"
1390  0006              ;# 1390 "C:\Users\steven.ho\Desktop\致新20180124\Leafblower.c" 1
1390  0006  0F00        	MOV	A,0
1391  0007              #line 1391 "C:\Users\steven.ho\Desktop\致新20180124\Leafblower.c"
1391  0007              ;# 1391 "C:\Users\steven.ho\Desktop\致新20180124\Leafblower.c" 1
1391  0007  00FA        	MOV	MDU1R3,A
1392  0008              #line 1392 "C:\Users\steven.ho\Desktop\致新20180124\Leafblower.c"
1392  0008              ;# 1392 "C:\Users\steven.ho\Desktop\致新20180124\Leafblower.c" 1
1392  0008  0700     R  	MOV	A,_uiVDCValue_Final[0]
1393  0009              #line 1393 "C:\Users\steven.ho\Desktop\致新20180124\Leafblower.c"
1393  0009              ;# 1393 "C:\Users\steven.ho\Desktop\致新20180124\Leafblower.c" 1
1393  0009  00FB        	MOV	MDU1R4,A
1394  000A              #line 1394 "C:\Users\steven.ho\Desktop\致新20180124\Leafblower.c"
1394  000A              ;# 1394 "C:\Users\steven.ho\Desktop\致新20180124\Leafblower.c" 1
1394  000A  0700     R  	MOV	A,_uiVDCValue_Final[1]
1395  000B              #line 1395 "C:\Users\steven.ho\Desktop\致新20180124\Leafblower.c"
1395  000B              ;# 1395 "C:\Users\steven.ho\Desktop\致新20180124\Leafblower.c" 1
1395  000B  00FC        	MOV	MDU1R5,A
1396  000C              #line 1396 "C:\Users\steven.ho\Desktop\致新20180124\Leafblower.c"
1396  000C              ;# 1396 "C:\Users\steven.ho\Desktop\致新20180124\Leafblower.c" 1
1396  000C  0000        	NOP
1397  000D              #line 1397 "C:\Users\steven.ho\Desktop\致新20180124\Leafblower.c"
1397  000D              ;# 1397 "C:\Users\steven.ho\Desktop\致新20180124\Leafblower.c" 1
1397  000D  0000        	NOP
1398  000E              #line 1398 "C:\Users\steven.ho\Desktop\致新20180124\Leafblower.c"
1398  000E              ;# 1398 "C:\Users\steven.ho\Desktop\致新20180124\Leafblower.c" 1
1398  000E  0000        	NOP
1399  000F              #line 1399 "C:\Users\steven.ho\Desktop\致新20180124\Leafblower.c"
1399  000F              ;# 1399 "C:\Users\steven.ho\Desktop\致新20180124\Leafblower.c" 1
"File: Leafblower.c  Assembler  Version HGASM0202      Page 68

1399  000F  0000        	NOP
1400  0010              #line 1400 "C:\Users\steven.ho\Desktop\致新20180124\Leafblower.c"
1400  0010              ;# 1400 "C:\Users\steven.ho\Desktop\致新20180124\Leafblower.c" 1
1400  0010  0000        	NOP
1401  0011              #line 1401 "C:\Users\steven.ho\Desktop\致新20180124\Leafblower.c"
1401  0011              ;# 1401 "C:\Users\steven.ho\Desktop\致新20180124\Leafblower.c" 1
1401  0011  0000        	NOP
1402  0012              #line 1402 "C:\Users\steven.ho\Desktop\致新20180124\Leafblower.c"
1402  0012              ;# 1402 "C:\Users\steven.ho\Desktop\致新20180124\Leafblower.c" 1
1402  0012  0000        	NOP
1403  0013              #line 1403 "C:\Users\steven.ho\Desktop\致新20180124\Leafblower.c"
1403  0013              ;# 1403 "C:\Users\steven.ho\Desktop\致新20180124\Leafblower.c" 1
1403  0013  0000        	NOP
1404  0014              #line 1404 "C:\Users\steven.ho\Desktop\致新20180124\Leafblower.c"
1404  0014              ;# 1404 "C:\Users\steven.ho\Desktop\致新20180124\Leafblower.c" 1
1404  0014  0000        	NOP
1405  0015              #line 1405 "C:\Users\steven.ho\Desktop\致新20180124\Leafblower.c"
1405  0015              ;# 1405 "C:\Users\steven.ho\Desktop\致新20180124\Leafblower.c" 1
1405  0015  0000        	NOP
1406  0016              #line 1406 "C:\Users\steven.ho\Desktop\致新20180124\Leafblower.c"
1406  0016              ;# 1406 "C:\Users\steven.ho\Desktop\致新20180124\Leafblower.c" 1
1406  0016  0000        	NOP
1407  0017              #line 1407 "C:\Users\steven.ho\Desktop\致新20180124\Leafblower.c"
1407  0017              ;# 1407 "C:\Users\steven.ho\Desktop\致新20180124\Leafblower.c" 1
1407  0017  0000        	NOP
1408  0018              #line 1408 "C:\Users\steven.ho\Desktop\致新20180124\Leafblower.c"
1408  0018              ;# 1408 "C:\Users\steven.ho\Desktop\致新20180124\Leafblower.c" 1
1408  0018  0000        	NOP
1409  0019              #line 1409 "C:\Users\steven.ho\Desktop\致新20180124\Leafblower.c"
1409  0019              ;# 1409 "C:\Users\steven.ho\Desktop\致新20180124\Leafblower.c" 1
1409  0019  0000        	NOP
1410  001A              #line 1410 "C:\Users\steven.ho\Desktop\致新20180124\Leafblower.c"
1410  001A              ;# 1410 "C:\Users\steven.ho\Desktop\致新20180124\Leafblower.c" 1
1410  001A  0000        	NOP
1411  001B              #line 1411 "C:\Users\steven.ho\Desktop\致新20180124\Leafblower.c"
1411  001B              ;# 1411 "C:\Users\steven.ho\Desktop\致新20180124\Leafblower.c" 1
1411  001B  0000        	NOP
1412  001C              #line 1412 "C:\Users\steven.ho\Desktop\致新20180124\Leafblower.c"
1412  001C              ;# 1412 "C:\Users\steven.ho\Desktop\致新20180124\Leafblower.c" 1
1412  001C  0000        	NOP
1413  001D              #line 1413 "C:\Users\steven.ho\Desktop\致新20180124\Leafblower.c"
1413  001D              ;# 1413 "C:\Users\steven.ho\Desktop\致新20180124\Leafblower.c" 1
1413  001D  0000        	NOP
1414  001E              #line 1414 "C:\Users\steven.ho\Desktop\致新20180124\Leafblower.c"
1414  001E              ;# 1414 "C:\Users\steven.ho\Desktop\致新20180124\Leafblower.c" 1
1414  001E  0776        	MOV	A,MDU1R0
1415  001F              #line 1415 "C:\Users\steven.ho\Desktop\致新20180124\Leafblower.c"
1415  001F              ;# 1415 "C:\Users\steven.ho\Desktop\致新20180124\Leafblower.c" 1
1415  001F  0080     R  	MOV	_uiDragPWM[0],A
1416  0020              #line 1416 "C:\Users\steven.ho\Desktop\致新20180124\Leafblower.c"
1416  0020              ;# 1416 "C:\Users\steven.ho\Desktop\致新20180124\Leafblower.c" 1
1416  0020  0777        	MOV	A,MDU1R1
1417  0021              #line 1417 "C:\Users\steven.ho\Desktop\致新20180124\Leafblower.c"
1417  0021              ;# 1417 "C:\Users\steven.ho\Desktop\致新20180124\Leafblower.c" 1
1417  0021  0080     R  	MOV	_uiDragPWM[1],A
1420  0022              #line 1420 "C:\Users\steven.ho\Desktop\致新20180124\Leafblower.c"
1420  0022  0700     R  	mov a,_uiDragPWM[0]
1420  0023  0080     E  	mov ra,a
1420  0024  0700     R  	mov a,_uiDragPWM[1]
1420  0025  0080     E  	mov rb,a
"File: Leafblower.c  Assembler  Version HGASM0202      Page 69

1420  0026  0FBC        	mov a,188
1420  0027  0200     E  	sub a,ra
1420  0028  0F02        	mov a,2
1420  0029  1200     E  	sbc a,rb
1420  002A  3C0A        	sz c
1420  002B  2800     R  	jmp _L142
1422  002C              #line 1422 "C:\Users\steven.ho\Desktop\致新20180124\Leafblower.c"
1422  002C  0FBC        	mov a,-68
1422  002D  0080     R  	mov _uiDragPWM[0],a
1422  002E  0F02        	mov a,2
1422  002F  0080     R  	mov _uiDragPWM[1],a
1422  0030  2800     R  	jmp _L141
1422  0031              _L142:
1424  0031              #line 1424 "C:\Users\steven.ho\Desktop\致新20180124\Leafblower.c"
1424  0031  0700     R  	mov a,_uiDragPWM[0]
1424  0032  0080     E  	mov ra,a
1424  0033  0700     R  	mov a,_uiDragPWM[1]
1424  0034  0080     E  	mov rb,a
1424  0035  0F31        	mov a,49
1424  0036  0200     E  	sub a,ra
1424  0037  0F00        	mov a,0
1424  0038  1200     E  	sbc a,rb
1424  0039  380A        	snz c
1424  003A  2800     R  	jmp _L141
1426  003B              #line 1426 "C:\Users\steven.ho\Desktop\致新20180124\Leafblower.c"
1426  003B  0F32        	mov a,50
1426  003C  0080     R  	mov _uiDragPWM[0],a
1426  003D  1F00     R  	clr _uiDragPWM[1]
1426  003E              _L141:
1426  003E  0003        	ret
1426  003F              _get_drag_pwm endp
1426  003F              #line 1426 "C:\Users\steven.ho\Desktop\致新20180124\Leafblower.c"
1426  003F              #pragma debug scope 1 1
1426  003F              #pragma debug variable 8 1 ___mp0 "__mp0" 1
1426  003F              #pragma debug variable 8 1 ___mp1l "__mp1l" 1
1426  003F              #pragma debug variable 8 1 ___mp1h "__mp1h" 1
1426  003F              #pragma debug variable 8 1 ___mp2l "__mp2l" 1
1426  003F              #pragma debug variable 8 1 ___mp2h "__mp2h" 1
1426  003F              #pragma debug struct_end
1426  003F              #pragma debug struct_end
1426  003F              #pragma debug union_end
1426  003F              #pragma debug union_end
1426  003F              #pragma debug variable 45 1 ___smod "__smod" 1
1426  003F              #pragma debug struct_end
1426  003F              #pragma debug struct_end
1426  003F              #pragma debug union_end
1426  003F              #pragma debug union_end
1426  003F              #pragma debug variable 47 1 ___lvdc "__lvdc" 1
1426  003F              #pragma debug struct_end
1426  003F              #pragma debug struct_end
1426  003F              #pragma debug union_end
1426  003F              #pragma debug union_end
1426  003F              #pragma debug variable 49 1 ___intc0 "__intc0" 1
1426  003F              #pragma debug struct_end
1426  003F              #pragma debug struct_end
1426  003F              #pragma debug union_end
1426  003F              #pragma debug union_end
1426  003F              #pragma debug variable 51 1 ___intc2 "__intc2" 1
1426  003F              #pragma debug struct_end
1426  003F              #pragma debug struct_end
"File: Leafblower.c  Assembler  Version HGASM0202      Page 70

1426  003F              #pragma debug union_end
1426  003F              #pragma debug union_end
1426  003F              #pragma debug variable 53 1 ___intc3 "__intc3" 1
1426  003F              #pragma debug struct_end
1426  003F              #pragma debug struct_end
1426  003F              #pragma debug union_end
1426  003F              #pragma debug union_end
1426  003F              #pragma debug variable 55 1 ___mfi0 "__mfi0" 1
1426  003F              #pragma debug struct_end
1426  003F              #pragma debug struct_end
1426  003F              #pragma debug union_end
1426  003F              #pragma debug union_end
1426  003F              #pragma debug variable 57 1 ___mfi3 "__mfi3" 1
1426  003F              #pragma debug struct_end
1426  003F              #pragma debug struct_end
1426  003F              #pragma debug union_end
1426  003F              #pragma debug union_end
1426  003F              #pragma debug variable 59 1 ___mfi5 "__mfi5" 1
1426  003F              #pragma debug struct_end
1426  003F              #pragma debug struct_end
1426  003F              #pragma debug union_end
1426  003F              #pragma debug union_end
1426  003F              #pragma debug variable 61 1 ___mfi6 "__mfi6" 1
1426  003F              #pragma debug struct_end
1426  003F              #pragma debug struct_end
1426  003F              #pragma debug union_end
1426  003F              #pragma debug union_end
1426  003F              #pragma debug variable 63 1 ___mfi7 "__mfi7" 1
1426  003F              #pragma debug struct_end
1426  003F              #pragma debug struct_end
1426  003F              #pragma debug union_end
1426  003F              #pragma debug union_end
1426  003F              #pragma debug variable 65 1 ___pa "__pa" 1
1426  003F              #pragma debug struct_end
1426  003F              #pragma debug struct_end
1426  003F              #pragma debug union_end
1426  003F              #pragma debug union_end
1426  003F              #pragma debug variable 67 1 ___pac "__pac" 1
1426  003F              #pragma debug struct_end
1426  003F              #pragma debug struct_end
1426  003F              #pragma debug union_end
1426  003F              #pragma debug union_end
1426  003F              #pragma debug variable 69 1 ___pbpu "__pbpu" 1
1426  003F              #pragma debug struct_end
1426  003F              #pragma debug struct_end
1426  003F              #pragma debug union_end
1426  003F              #pragma debug union_end
1426  003F              #pragma debug variable 71 1 ___pb "__pb" 1
1426  003F              #pragma debug struct_end
1426  003F              #pragma debug struct_end
1426  003F              #pragma debug union_end
1426  003F              #pragma debug union_end
1426  003F              #pragma debug variable 73 1 ___pbc "__pbc" 1
1426  003F              #pragma debug struct_end
1426  003F              #pragma debug struct_end
1426  003F              #pragma debug union_end
1426  003F              #pragma debug union_end
1426  003F              #pragma debug variable 75 1 ___pc "__pc" 1
1426  003F              #pragma debug struct_end
1426  003F              #pragma debug struct_end
"File: Leafblower.c  Assembler  Version HGASM0202      Page 71

1426  003F              #pragma debug union_end
1426  003F              #pragma debug union_end
1426  003F              #pragma debug variable 77 1 ___pcc "__pcc" 1
1426  003F              #pragma debug struct_end
1426  003F              #pragma debug struct_end
1426  003F              #pragma debug union_end
1426  003F              #pragma debug union_end
1426  003F              #pragma debug variable 79 1 ___captc0 "__captc0" 1
1426  003F              #pragma debug struct_end
1426  003F              #pragma debug struct_end
1426  003F              #pragma debug union_end
1426  003F              #pragma debug union_end
1426  003F              #pragma debug variable 81 1 ___captc1 "__captc1" 1
1426  003F              #pragma debug variable 8 1 ___captmal "__captmal" 1
1426  003F              #pragma debug variable 8 1 ___captmah "__captmah" 1
1426  003F              #pragma debug struct_end
1426  003F              #pragma debug struct_end
1426  003F              #pragma debug union_end
1426  003F              #pragma debug union_end
1426  003F              #pragma debug variable 83 1 ___adcr0 "__adcr0" 1
1426  003F              #pragma debug struct_end
1426  003F              #pragma debug struct_end
1426  003F              #pragma debug union_end
1426  003F              #pragma debug union_end
1426  003F              #pragma debug variable 85 1 ___adcr1 "__adcr1" 1
1426  003F              #pragma debug struct_end
1426  003F              #pragma debug struct_end
1426  003F              #pragma debug union_end
1426  003F              #pragma debug union_end
1426  003F              #pragma debug variable 87 1 ___adcr2 "__adcr2" 1
1426  003F              #pragma debug struct_end
1426  003F              #pragma debug struct_end
1426  003F              #pragma debug union_end
1426  003F              #pragma debug union_end
1426  003F              #pragma debug variable 89 1 ___adisg1 "__adisg1" 1
1426  003F              #pragma debug struct_end
1426  003F              #pragma debug struct_end
1426  003F              #pragma debug union_end
1426  003F              #pragma debug union_end
1426  003F              #pragma debug variable 91 1 ___adisg2 "__adisg2" 1
1426  003F              #pragma debug variable 8 1 ___addl "__addl" 1
1426  003F              #pragma debug struct_end
1426  003F              #pragma debug struct_end
1426  003F              #pragma debug union_end
1426  003F              #pragma debug union_end
1426  003F              #pragma debug variable 93 1 ___pbps0 "__pbps0" 1
1426  003F              #pragma debug struct_end
1426  003F              #pragma debug struct_end
1426  003F              #pragma debug union_end
1426  003F              #pragma debug union_end
1426  003F              #pragma debug variable 95 1 ___pbps1 "__pbps1" 1
1426  003F              #pragma debug struct_end
1426  003F              #pragma debug struct_end
1426  003F              #pragma debug union_end
1426  003F              #pragma debug union_end
1426  003F              #pragma debug variable 97 1 ___ocps "__ocps" 1
1426  003F              #pragma debug struct_end
1426  003F              #pragma debug struct_end
1426  003F              #pragma debug union_end
1426  003F              #pragma debug union_end
"File: Leafblower.c  Assembler  Version HGASM0202      Page 72

1426  003F              #pragma debug variable 99 1 ___integ0 "__integ0" 1
1426  003F              #pragma debug struct_end
1426  003F              #pragma debug struct_end
1426  003F              #pragma debug union_end
1426  003F              #pragma debug union_end
1426  003F              #pragma debug variable 101 1 ___hdcr "__hdcr" 1
1426  003F              #pragma debug struct_end
1426  003F              #pragma debug struct_end
1426  003F              #pragma debug union_end
1426  003F              #pragma debug union_end
1426  003F              #pragma debug variable 103 1 ___hdcd "__hdcd" 1
1426  003F              #pragma debug struct_end
1426  003F              #pragma debug struct_end
1426  003F              #pragma debug union_end
1426  003F              #pragma debug union_end
1426  003F              #pragma debug variable 105 1 ___mptc1 "__mptc1" 1
1426  003F              #pragma debug variable 8 1 ___dutr3l "__dutr3l" 1
1426  003F              #pragma debug variable 8 1 ___dutr3h "__dutr3h" 1
1426  003F              #pragma debug struct_end
1426  003F              #pragma debug struct_end
1426  003F              #pragma debug union_end
1426  003F              #pragma debug union_end
1426  003F              #pragma debug variable 107 1 ___pwmc "__pwmc" 1
1426  003F              #pragma debug variable 8 1 ___dutr0l "__dutr0l" 1
1426  003F              #pragma debug variable 8 1 ___dutr0h "__dutr0h" 1
1426  003F              #pragma debug variable 8 1 ___prdrl "__prdrl" 1
1426  003F              #pragma debug variable 8 1 ___prdrh "__prdrh" 1
1426  003F              #pragma debug struct_end
1426  003F              #pragma debug struct_end
1426  003F              #pragma debug union_end
1426  003F              #pragma debug union_end
1426  003F              #pragma debug variable 109 1 ___pwmme "__pwmme" 1
1426  003F              #pragma debug struct_end
1426  003F              #pragma debug struct_end
1426  003F              #pragma debug union_end
1426  003F              #pragma debug union_end
1426  003F              #pragma debug variable 111 1 ___pwmmd "__pwmmd" 1
1426  003F              #pragma debug struct_end
1426  003F              #pragma debug struct_end
1426  003F              #pragma debug union_end
1426  003F              #pragma debug union_end
1426  003F              #pragma debug variable 113 1 ___mcf "__mcf" 1
1426  003F              #pragma debug struct_end
1426  003F              #pragma debug struct_end
1426  003F              #pragma debug union_end
1426  003F              #pragma debug union_end
1426  003F              #pragma debug variable 115 1 ___mcd "__mcd" 1
1426  003F              #pragma debug struct_end
1426  003F              #pragma debug struct_end
1426  003F              #pragma debug union_end
1426  003F              #pragma debug union_end
1426  003F              #pragma debug variable 117 1 ___dts "__dts" 1
1426  003F              #pragma debug struct_end
1426  003F              #pragma debug struct_end
1426  003F              #pragma debug union_end
1426  003F              #pragma debug union_end
1426  003F              #pragma debug variable 119 1 ___plc "__plc" 1
1426  003F              #pragma debug struct_end
1426  003F              #pragma debug struct_end
1426  003F              #pragma debug union_end
"File: Leafblower.c  Assembler  Version HGASM0202      Page 73

1426  003F              #pragma debug union_end
1426  003F              #pragma debug variable 121 1 ___cmpc "__cmpc" 1
1426  003F              #pragma debug struct_end
1426  003F              #pragma debug struct_end
1426  003F              #pragma debug union_end
1426  003F              #pragma debug union_end
1426  003F              #pragma debug variable 123 1 ___tbc "__tbc" 1
1426  003F              #pragma debug variable 8 1 ___isrl0 "__isrl0" 1
1426  003F              #pragma debug variable 8 1 ___isrh0 "__isrh0" 1
1426  003F              #pragma debug variable 8 1 ___isrl1 "__isrl1" 1
1426  003F              #pragma debug variable 8 1 ___isrh1 "__isrh1" 1
1426  003F              #pragma debug struct_end
1426  003F              #pragma debug struct_end
1426  003F              #pragma debug union_end
1426  003F              #pragma debug union_end
1426  003F              #pragma debug variable 125 1 ___adbyps "__adbyps" 1
1426  003F              #pragma debug struct_end
1426  003F              #pragma debug struct_end
1426  003F              #pragma debug union_end
1426  003F              #pragma debug union_end
1426  003F              #pragma debug variable 127 1 ___adcr3 "__adcr3" 1
1426  003F              #pragma debug struct_end
1426  003F              #pragma debug struct_end
1426  003F              #pragma debug union_end
1426  003F              #pragma debug union_end
1426  003F              #pragma debug variable 129 1 ___ptm1c0 "__ptm1c0" 1
1426  003F              #pragma debug struct_end
1426  003F              #pragma debug struct_end
1426  003F              #pragma debug union_end
1426  003F              #pragma debug union_end
1426  003F              #pragma debug variable 131 1 ___ptm1c1 "__ptm1c1" 1
1426  003F              #pragma debug variable 8 1 ___ptm1dl "__ptm1dl" 1
1426  003F              #pragma debug variable 8 1 ___ptm1dh "__ptm1dh" 1
1426  003F              #pragma debug variable 8 1 ___ptm1al "__ptm1al" 1
1426  003F              #pragma debug variable 8 1 ___ptm1ah "__ptm1ah" 1
1426  003F              #pragma debug struct_end
1426  003F              #pragma debug struct_end
1426  003F              #pragma debug union_end
1426  003F              #pragma debug union_end
1426  003F              #pragma debug variable 133 1 ___pwmcs "__pwmcs" 1
1426  003F              #pragma debug struct_end
1426  003F              #pragma debug struct_end
1426  003F              #pragma debug union_end
1426  003F              #pragma debug union_end
1426  003F              #pragma debug variable 135 1 ___hchk_num "__hchk_num" 1
1426  003F              #pragma debug struct_end
1426  003F              #pragma debug struct_end
1426  003F              #pragma debug union_end
1426  003F              #pragma debug union_end
1426  003F              #pragma debug variable 137 1 ___hnf_msel "__hnf_msel" 1
1426  003F              #pragma debug struct_end
1426  003F              #pragma debug struct_end
1426  003F              #pragma debug union_end
1426  003F              #pragma debug union_end
1426  003F              #pragma debug variable 139 1 ___ptm2c0 "__ptm2c0" 1
1426  003F              #pragma debug struct_end
1426  003F              #pragma debug struct_end
1426  003F              #pragma debug union_end
1426  003F              #pragma debug union_end
1426  003F              #pragma debug variable 141 1 ___ptm2c1 "__ptm2c1" 1
"File: Leafblower.c  Assembler  Version HGASM0202      Page 74

1426  003F              #pragma debug variable 8 1 ___ptm2al "__ptm2al" 1
1426  003F              #pragma debug variable 8 1 ___ptm2ah "__ptm2ah" 1
1426  003F              #pragma debug variable 8 1 ___ptm2rpl "__ptm2rpl" 1
1426  003F              #pragma debug variable 8 1 ___ptm2rph "__ptm2rph" 1
1426  003F              #pragma debug struct_end
1426  003F              #pragma debug struct_end
1426  003F              #pragma debug union_end
1426  003F              #pragma debug union_end
1426  003F              #pragma debug variable 143 1 ___hdct0 "__hdct0" 1
1426  003F              #pragma debug struct_end
1426  003F              #pragma debug struct_end
1426  003F              #pragma debug union_end
1426  003F              #pragma debug union_end
1426  003F              #pragma debug variable 145 1 ___hdct1 "__hdct1" 1
1426  003F              #pragma debug struct_end
1426  003F              #pragma debug struct_end
1426  003F              #pragma debug union_end
1426  003F              #pragma debug union_end
1426  003F              #pragma debug variable 147 1 ___hdct2 "__hdct2" 1
1426  003F              #pragma debug struct_end
1426  003F              #pragma debug struct_end
1426  003F              #pragma debug union_end
1426  003F              #pragma debug union_end
1426  003F              #pragma debug variable 149 1 ___hdct3 "__hdct3" 1
1426  003F              #pragma debug struct_end
1426  003F              #pragma debug struct_end
1426  003F              #pragma debug union_end
1426  003F              #pragma debug union_end
1426  003F              #pragma debug variable 151 1 ___hdct4 "__hdct4" 1
1426  003F              #pragma debug struct_end
1426  003F              #pragma debug struct_end
1426  003F              #pragma debug union_end
1426  003F              #pragma debug union_end
1426  003F              #pragma debug variable 153 1 ___hdct5 "__hdct5" 1
1426  003F              #pragma debug struct_end
1426  003F              #pragma debug struct_end
1426  003F              #pragma debug union_end
1426  003F              #pragma debug union_end
1426  003F              #pragma debug variable 155 1 ___hdct6 "__hdct6" 1
1426  003F              #pragma debug struct_end
1426  003F              #pragma debug struct_end
1426  003F              #pragma debug union_end
1426  003F              #pragma debug union_end
1426  003F              #pragma debug variable 157 1 ___hdct7 "__hdct7" 1
1426  003F              #pragma debug struct_end
1426  003F              #pragma debug struct_end
1426  003F              #pragma debug union_end
1426  003F              #pragma debug union_end
1426  003F              #pragma debug variable 159 1 ___hdct8 "__hdct8" 1
1426  003F              #pragma debug struct_end
1426  003F              #pragma debug struct_end
1426  003F              #pragma debug union_end
1426  003F              #pragma debug union_end
1426  003F              #pragma debug variable 161 1 ___hdct9 "__hdct9" 1
1426  003F              #pragma debug struct_end
1426  003F              #pragma debug struct_end
1426  003F              #pragma debug union_end
1426  003F              #pragma debug union_end
1426  003F              #pragma debug variable 163 1 ___hdct10 "__hdct10" 1
1426  003F              #pragma debug struct_end
"File: Leafblower.c  Assembler  Version HGASM0202      Page 75

1426  003F              #pragma debug struct_end
1426  003F              #pragma debug union_end
1426  003F              #pragma debug union_end
1426  003F              #pragma debug variable 165 1 ___hdct11 "__hdct11" 1
1426  003F              #pragma debug struct_end
1426  003F              #pragma debug struct_end
1426  003F              #pragma debug union_end
1426  003F              #pragma debug union_end
1426  003F              #pragma debug variable 167 1 ___opoms "__opoms" 1
1426  003F              #pragma debug variable 8 1 ___opcm "__opcm" 1
1426  003F              #pragma debug struct_end
1426  003F              #pragma debug struct_end
1426  003F              #pragma debug union_end
1426  003F              #pragma debug union_end
1426  003F              #pragma debug variable 169 1 ___opa0cal "__opa0cal" 1
1426  003F              #pragma debug struct_end
1426  003F              #pragma debug struct_end
1426  003F              #pragma debug union_end
1426  003F              #pragma debug union_end
1426  003F              #pragma debug variable 171 1 ___ptm3c0 "__ptm3c0" 1
1426  003F              #pragma debug struct_end
1426  003F              #pragma debug struct_end
1426  003F              #pragma debug union_end
1426  003F              #pragma debug union_end
1426  003F              #pragma debug variable 173 1 ___ptm3c1 "__ptm3c1" 1
1426  003F              #pragma debug variable 8 1 ___ptm3al "__ptm3al" 1
1426  003F              #pragma debug variable 8 1 ___ptm3ah "__ptm3ah" 1
1426  003F              #pragma debug struct_end
1426  003F              #pragma debug struct_end
1426  003F              #pragma debug union_end
1426  003F              #pragma debug union_end
1426  003F              #pragma debug variable 175 1 ___paps0 "__paps0" 1
1426  003F              #pragma debug struct_end
1426  003F              #pragma debug struct_end
1426  003F              #pragma debug union_end
1426  003F              #pragma debug union_end
1426  003F              #pragma debug variable 177 1 ___paps1 "__paps1" 1
1426  003F              #pragma debug struct_end
1426  003F              #pragma debug struct_end
1426  003F              #pragma debug union_end
1426  003F              #pragma debug union_end
1426  003F              #pragma debug variable 179 1 ___pcps0 "__pcps0" 1
1426  003F              #pragma debug struct_end
1426  003F              #pragma debug struct_end
1426  003F              #pragma debug union_end
1426  003F              #pragma debug union_end
1426  003F              #pragma debug variable 181 1 ___pcps1 "__pcps1" 1
1426  003F              #pragma debug variable 8 1 ___iar0 "__iar0" 1
1426  003F              #pragma debug variable 8 1 ___iar1 "__iar1" 1
1426  003F              #pragma debug struct_end
1426  003F              #pragma debug struct_end
1426  003F              #pragma debug variable 182 1 _bit_var_0 "bit_var_0" 1
1426  003F              #pragma debug variable 182 1 _bit_var_1 "bit_var_1" 1
1426  003F              #pragma debug variable 182 1 _bit_var_2 "bit_var_2" 1
1426  003F              #pragma debug variable 12 1 _uiVoiceTime "uiVoiceTime" 2
1426  003F              #pragma debug variable 8 1 _ucLostCommandVoice "ucLostCommandVoice" 1
1426  003F              #pragma debug variable 8 1 _ucVoiceCnt "ucVoiceCnt" 1
1426  003F              extern r1:byte
1426  003F              extern r2:byte
1426  003F              extern r3:byte
"File: Leafblower.c  Assembler  Version HGASM0202      Page 76

1426  003F              extern r4:byte
1426  003F              extern r5:byte
1426  003F              extern r6:byte
1426  003F              extern r7:byte
 155  003F              #line 155 "C:\Users\steven.ho\Desktop\致新20180124\Leafblower.c"
 155  0000              @code .section at 0 'code'
 155  0000  2800     R  	jmp _main_startup1
 155  0001              
 155  0001              
 155  0001              ; 
 155  0001              ; Generated by holtek-gcc v3.14, Thu Feb 01 14:45:55 2018
 155  0001              ; Rebuild 10
 155  0001              ; end of file


        0 Errors, 0