"File: UART_TEST.c   Assembler  Version HGASM0202      Page 1


   1  0000              ; Generated by holtek-gcc v3.19, Tue Aug 13 19:44:46 2019
   2  0000              ; 
   3  0000              ; Configuration:
   4  0000              ;       with long instruction
   5  0000              ;       Single ROM, Multi-RAM
   6  0000              ;       bits_per_rom_unit:16
   7  0000              ;       with mp1
   8  0000              ;       with tbhp, address(0x9)
   9  0000              ;          Use tabrd-const
  10  0000              ;       
  11  0000              ; SFR address of long-instruction arch:
  12  0000              ;    mp0 = -1,1,0
  13  0000              ;    mp1 = 4,3,2
  14  0000              ;    mp2 = 14,13,12
  15  0000              ;    tbp = 9,7,8
  16  0000              ;    acc = 5
  17  0000              ;    pcl = 6
  18  0000              ;    status = 10
  19  0000              ;    bp = 11
  20  0000              ;    intc = 21
  21  0000              ;       
  22  0000              ;       
  23  0000              ; use 'tabrdc' instead of 'tabrd'
  24  0000              ;       
  25  0000              
  26  0000              #pragma translator "holtek-gcc 4.6.4" "3.19" "build 20130711"
  27  0000              ; Rebuild 115
  28  0000              
  29  0000              ir equ [2]
  30  0000              mp equ [3]
  31  0000              sbp equ [4]
  32  0000              acc equ [5]
  33  0000              bp equ [11]
  34  0000              tblp equ [7]
  35  0000              tbhp equ [9]
  36  0000              status equ [10]
  37  0000              c equ [10].0
  38  0000              ac equ [10].1
  39  0000              z equ [10].2
  40  0000              ov equ [10].3
  41  0000              cz equ [10].6
  42  0000              sc equ [10].7
  43  0000              intc equ [21]
  44  0000              mdu0r0 equ [73h]
  45  0000              mdu0r1 equ [74h]
  46  0000              mdu0ctrl equ [75h]
  47  0000              mduwr0 equ [76h]
  48  0000              mduwr1 equ [77h]
  49  0000              mduwr2 equ [78h]
  50  0000              mduwr3 equ [7ah]
  51  0000              mduwr4 equ [7bh]
  52  0000              mduwr5 equ [7ch]
  53  0000              mduwrctrl equ [7dh]
  54  0000              
  55  0000              extern ra:byte
  56  0000              extern rb:byte
  57  0000              extern rc:byte
  58  0000              extern rd:byte
  59  0000              extern re:byte
"File: UART_TEST.ASM  Assembler  Version HGASM0202      Page 2

  60  0000              extern rf:byte
  61  0000              extern rg:byte
  62  0000              extern rh:byte
  63  0000              extern _Crom2Prom:near
  64  0000              extern _Crom2PromNext:near
  65  0000              
  66  0000              RAMBANK 0 @BITDATASEC, @BITDATASEC1
  67  0000              @HCCINIT	.section 'data'
  68  0000              @HCCINIT0	.section 'data'
  69  0000              @BITDATASEC	 .section 'data'
  70  0000              @BITDATASEC1	 .section 'data'
  71  0000              
  72  0000              #pragma debug scope 1 1
  73  0000              	extern __DELAY3:near
  74  0000              	extern __DELAYX3:near
  75  0000              	extern __DELAYX6:near
  76  0000              	extern __DELAYY5:near
  77  0000              	extern __DELAYY3:near
  78  0000              	extern _builtin_holtek_delay_2:byte
  79  0000              public _txbuff
  80  0000              @crom	.section 'crom'

  15  0000              #line 15 "D:\WORK\Project\Github\Holtel-MCU\Code\HT66FM5440\UART_TEST\UART_TEST.c"
  15  0000              @crom	.section	'crom'
  15  0000              _txbuff:
  15  0000              #pragma debug array 42 8 6 1
  15  0000              #pragma debug array 42 8 6 1
  15  0000              #pragma debug variable 42 1 _txbuff "txbuff"
  15  0000              	db 72
  15  0001              	db 101
  15  0001              	db 108
  15  0002              	db 108
  15  0002              	db 111
  15  0003              	db 33
  16  0003              #line 16 "D:\WORK\Project\Github\Holtel-MCU\Code\HT66FM5440\UART_TEST\UART_TEST.c"
  16  0003              public _rxbuff
  16  0000              @HCCINIT0_rxbuff .section 'data'
  16  0000  0006[       _rxbuff	db 6 dup(0)
            00
            ]
  16  0006              #pragma debug variable 42 1 _rxbuff "rxbuff"
  16  0006              
  16  0000              @HCCINIT .section 'data'
  16  0000              public _rxcnt
  16  0000              @HCCINIT	.section 'data'
  17  0000              #line 17 "D:\WORK\Project\Github\Holtel-MCU\Code\HT66FM5440\UART_TEST\UART_TEST.c"
  17  0000              @HCCINIT_rxcnt .section 'data'
  17  0000              _rxcnt label byte
  17  0000              #pragma debug variable 8 1 _rxcnt "rxcnt"
  17  0000              	db 0
  17  0000              @ROMDATA_BASE .section inpage 'code'
  17  0000              	db 0
  17  0001              @HCCINIT_rxcnt .section 'data'
  17  0001              public _txcnt
  17  0001              #line 17 "D:\WORK\Project\Github\Holtel-MCU\Code\HT66FM5440\UART_TEST\UART_TEST.c"
  17  0000              @HCCINIT_txcnt .section 'data'
  17  0000              _txcnt label byte
  17  0000              #pragma debug variable 8 1 _txcnt "txcnt"
  17  0000              	db 0
  17  0001              @ROMDATA_BASE .section inpage 'code'
"File: UART_TEST.c   Assembler  Version HGASM0202      Page 3

  17  0001              	db 0
  17  0001              @HCCINIT_txcnt .section 'data'
  17  0001              public _bRxfull
  18  0001              #line 18 "D:\WORK\Project\Github\Holtel-MCU\Code\HT66FM5440\UART_TEST\UART_TEST.c"
  18  0000              @BITDATASEC .section 'data'
  18  0000  00          _bRxfull	dbit 0
  18  0001              #pragma debug variable 2 1 _bRxfull "bRxfull"
  18  0001              ___intc0 equ [21]
  18  0001              public _main
  18  0001              #pragma debug scope 2 1
  24  0001              #line 24 "D:\WORK\Project\Github\Holtel-MCU\Code\HT66FM5440\UART_TEST\UART_TEST.c"
  24  0001              IFDEF WITH_DEFAULT_STARTUP
  24  0001              extern _main_initial0:near
  24  0001              extern _main_startup:near
  24  0001              ENDIF
  24  0001              
  24  0001              ROMBANK 0 @start
  24  0000              @start .section com_l 'code'
  24  0000              _main_startup1:
  24  0000              @start .section com_e 'code'
  24  0000  2800     R  	jmp _main
  24  0001              
  24  0000              _main .section 'code'
  24  0000              _main proc
  24  0000  00              local _main_2 db 1 dup(?)
  24  0001              #pragma debug variable 8 2 _main_2+0 "i"
  27  0001              #line 27 "D:\WORK\Project\Github\Holtel-MCU\Code\HT66FM5440\UART_TEST\UART_TEST.c"
  27  0000  1F00     R  	clr _rxcnt[0]
  28  0001              #line 28 "D:\WORK\Project\Github\Holtel-MCU\Code\HT66FM5440\UART_TEST\UART_TEST.c"
  28  0001  1F00     R  	clr _main_2[0]
  28  0002  2800     R  	jmp _L2
  28  0003              _L3:
  30  0003              #line 30 "D:\WORK\Project\Github\Holtel-MCU\Code\HT66FM5440\UART_TEST\UART_TEST.c"
  30  0003  0700     R  	mov a,_main_2[0]
  30  0004  0080     E  	mov ra,a
  30  0005  1F00     E  	clr rb
  30  0006  0F00     R  	mov a,low offset _rxbuff
  30  0007  0380     E  	addm a,ra
  30  0008  0F00     R  	mov a,high offset _rxbuff
  30  0009  1380     E  	adcm a,rb
  30  000A  0700     E  	mov a,ra
  30  000B  0083        	mov mp,a
  30  000C  0700     E  	mov a,rb
  30  000D  0084        	mov sbp,a
  30  000E  0F00        	mov a,0
  30  000F  0082        	mov ir,a
  28  0010              #line 28 "D:\WORK\Project\Github\Holtel-MCU\Code\HT66FM5440\UART_TEST\UART_TEST.c"
  28  0010  0700     R  	mov a,_main_2[0]
  28  0011  0080     E  	mov ra,a
  28  0012  1400     E  	inca ra
  28  0013  0080     R  	mov _main_2[0],a
  28  0014              _L2:
  28  0014  0F05        	mov a,5
  28  0015  0200     R  	sub a,_main_2[0]
  28  0016  3C0A        	sz c
  28  0017  2800     R  	jmp _L3
  33  0018              #line 33 "D:\WORK\Project\Github\Holtel-MCU\Code\HT66FM5440\UART_TEST\UART_TEST.c"
  33  0018  2000     R  	call _UartInit
  34  0019              #line 34 "D:\WORK\Project\Github\Holtel-MCU\Code\HT66FM5440\UART_TEST\UART_TEST.c"
  34  0019  3015        	set [21].0
"File: UART_TEST.c   Assembler  Version HGASM0202      Page 4

  34  001A              _L7:
  38  001A              #line 38 "D:\WORK\Project\Github\Holtel-MCU\Code\HT66FM5440\UART_TEST\UART_TEST.c"
  38  001A              ;# 38 "D:\WORK\Project\Github\Holtel-MCU\Code\HT66FM5440\UART_TEST\UART_TEST.c" 1
  38  001A  0001        	clr wdt
  40  001B              #line 40 "D:\WORK\Project\Github\Holtel-MCU\Code\HT66FM5440\UART_TEST\UART_TEST.c"
  40  001B  0700     R  	mov a,_rxcnt[0]
  40  001C  0080     E  	mov ra,a
  40  001D  0F05        	mov a,5
  40  001E  0200     E  	sub a,ra
  40  001F  3C0A        	sz c
  40  0020  2800     R  	jmp _L4
  42  0021              #line 42 "D:\WORK\Project\Github\Holtel-MCU\Code\HT66FM5440\UART_TEST\UART_TEST.c"
  42  0021  0700     R  	mov a,_rxbuff[0]
  42  0022  0080     E  	mov ra,a
  42  0023  0700     E  	mov a,ra
  42  0024  0A48        	sub a,72
  42  0025  390A        	snz z
  42  0026  2800     R  	jmp _L4
  42  0027  0700     R  	mov a,_rxbuff[1]
  42  0028  0080     E  	mov ra,a
  42  0029  0700     E  	mov a,ra
  42  002A  0A48        	sub a,72
  42  002B  390A        	snz z
  42  002C  2800     R  	jmp _L4
  44  002D              #line 44 "D:\WORK\Project\Github\Holtel-MCU\Code\HT66FM5440\UART_TEST\UART_TEST.c"
  44  002D  0F00     R  	mov a,low offset _txbuff
  44  002E  0080     R  	mov _print_string_const_2[0],a
  44  002F  0F00     R  	mov a,high offset _txbuff
  44  0030  0080     R  	mov _print_string_const_2[1],a
  44  0031  2000     R  	call _print_string_const
  46  0032              #line 46 "D:\WORK\Project\Github\Holtel-MCU\Code\HT66FM5440\UART_TEST\UART_TEST.c"
  46  0032  1F00     R  	clr _rxcnt[0]
  47  0033              #line 47 "D:\WORK\Project\Github\Holtel-MCU\Code\HT66FM5440\UART_TEST\UART_TEST.c"
  47  0033  1F00     R  	clr _main_2[0]
  47  0034  2800     R  	jmp _L5
  47  0035              _L6:
  49  0035              #line 49 "D:\WORK\Project\Github\Holtel-MCU\Code\HT66FM5440\UART_TEST\UART_TEST.c"
  49  0035  0700     R  	mov a,_main_2[0]
  49  0036  0080     E  	mov ra,a
  49  0037  1F00     E  	clr rb
  49  0038  0F00     R  	mov a,low offset _rxbuff
  49  0039  0380     E  	addm a,ra
  49  003A  0F00     R  	mov a,high offset _rxbuff
  49  003B  1380     E  	adcm a,rb
  49  003C  0700     E  	mov a,ra
  49  003D  0083        	mov mp,a
  49  003E  0700     E  	mov a,rb
  49  003F  0084        	mov sbp,a
  49  0040  0F00        	mov a,0
  49  0041  0082        	mov ir,a
  47  0042              #line 47 "D:\WORK\Project\Github\Holtel-MCU\Code\HT66FM5440\UART_TEST\UART_TEST.c"
  47  0042  0700     R  	mov a,_main_2[0]
  47  0043  0080     E  	mov ra,a
  47  0044  1400     E  	inca ra
  47  0045  0080     R  	mov _main_2[0],a
  47  0046              _L5:
  47  0046  0F05        	mov a,5
  47  0047  0200     R  	sub a,_main_2[0]
  47  0048  3C0A        	sz c
  47  0049  2800     R  	jmp _L6
"File: UART_TEST.c   Assembler  Version HGASM0202      Page 5

  47  004A              _L4:
  53  004A              #line 53 "D:\WORK\Project\Github\Holtel-MCU\Code\HT66FM5440\UART_TEST\UART_TEST.c"
  53  004A  2800     R  	jmp _L7
  53  004B  2800     R  	jmp $
  53  004C              _main endp
  53  004C              
  53  004C              @dummy endp
  53  004C              
  53  004C              #line 53 "D:\WORK\Project\Github\Holtel-MCU\Code\HT66FM5440\UART_TEST\UART_TEST.c"
  53  004C              #pragma debug scope 1 1
  53  004C              ___pbps1 equ [67]
  53  004C              ___ucr1 equ [110]
  53  004C              ___ucr2 equ [111]
  53  004C              ___brg equ [112]
  53  004C              ___mfi7 equ [32]
  53  004C              ___intc3 equ [24]
  53  004C              public _UartInit
  53  004C              #pragma debug scope 3 1
  57  004C              #line 57 "D:\WORK\Project\Github\Holtel-MCU\Code\HT66FM5440\UART_TEST\UART_TEST.c"
  57  0000              _UartInit .section 'code'
  57  0000              _UartInit proc
  57  0000  00              local _UartInit_2 db 1 dup(?)	; 0,1
  57  0001              #pragma debug variable 8 3 _UartInit_2+0 "i"
  60  0001              #line 60 "D:\WORK\Project\Github\Holtel-MCU\Code\HT66FM5440\UART_TEST\UART_TEST.c"
  60  0000  3243        	set [67].4
  61  0001              #line 61 "D:\WORK\Project\Github\Holtel-MCU\Code\HT66FM5440\UART_TEST\UART_TEST.c"
  61  0001  36C3        	clr [67].5
  62  0002              #line 62 "D:\WORK\Project\Github\Holtel-MCU\Code\HT66FM5440\UART_TEST\UART_TEST.c"
  62  0002  3343        	set [67].6
  63  0003              #line 63 "D:\WORK\Project\Github\Holtel-MCU\Code\HT66FM5440\UART_TEST\UART_TEST.c"
  63  0003  37C3        	clr [67].7
  65  0004              #line 65 "D:\WORK\Project\Github\Holtel-MCU\Code\HT66FM5440\UART_TEST\UART_TEST.c"
  65  0004  0F80        	mov a,128
  65  0005  00EE        	mov [110],a
  66  0006              #line 66 "D:\WORK\Project\Github\Holtel-MCU\Code\HT66FM5440\UART_TEST\UART_TEST.c"
  66  0006  0FE4        	mov a,228
  66  0007  00EF        	mov [111],a
  67  0008              #line 67 "D:\WORK\Project\Github\Holtel-MCU\Code\HT66FM5440\UART_TEST\UART_TEST.c"
  67  0008  0F67        	mov a,103
  67  0009  00F0        	mov [112],a
  69  000A              #line 69 "D:\WORK\Project\Github\Holtel-MCU\Code\HT66FM5440\UART_TEST\UART_TEST.c"
  69  000A  36A0        	clr [32].5
  70  000B              #line 70 "D:\WORK\Project\Github\Holtel-MCU\Code\HT66FM5440\UART_TEST\UART_TEST.c"
  70  000B  30A0        	set [32].1
  72  000C              #line 72 "D:\WORK\Project\Github\Holtel-MCU\Code\HT66FM5440\UART_TEST\UART_TEST.c"
  72  000C  3798        	clr [24].7
  73  000D              #line 73 "D:\WORK\Project\Github\Holtel-MCU\Code\HT66FM5440\UART_TEST\UART_TEST.c"
  73  000D  3198        	set [24].3
  75  000E              #line 75 "D:\WORK\Project\Github\Holtel-MCU\Code\HT66FM5440\UART_TEST\UART_TEST.c"
  75  000E  1F00     R  	clr _rxcnt[0]
  76  000F              #line 76 "D:\WORK\Project\Github\Holtel-MCU\Code\HT66FM5440\UART_TEST\UART_TEST.c"
  76  000F  1F00     R  	clr _UartInit_2[0]
  76  0010  2800     R  	jmp _L9
  76  0011              _L10:
  78  0011              #line 78 "D:\WORK\Project\Github\Holtel-MCU\Code\HT66FM5440\UART_TEST\UART_TEST.c"
  78  0011  0700     R  	mov a,_UartInit_2[0]
  78  0012  0080     E  	mov ra,a
  78  0013  1F00     E  	clr rb
  78  0014  0F00     R  	mov a,low offset _rxbuff
  78  0015  0380     E  	addm a,ra
"File: UART_TEST.c   Assembler  Version HGASM0202      Page 6

  78  0016  0F00     R  	mov a,high offset _rxbuff
  78  0017  1380     E  	adcm a,rb
  78  0018  0700     E  	mov a,ra
  78  0019  0083        	mov mp,a
  78  001A  0700     E  	mov a,rb
  78  001B  0084        	mov sbp,a
  78  001C  0F00        	mov a,0
  78  001D  0082        	mov ir,a
  76  001E              #line 76 "D:\WORK\Project\Github\Holtel-MCU\Code\HT66FM5440\UART_TEST\UART_TEST.c"
  76  001E  0700     R  	mov a,_UartInit_2[0]
  76  001F  0080     E  	mov ra,a
  76  0020  1400     E  	inca ra
  76  0021  0080     R  	mov _UartInit_2[0],a
  76  0022              _L9:
  76  0022  0F05        	mov a,5
  76  0023  0200     R  	sub a,_UartInit_2[0]
  76  0024  3C0A        	sz c
  76  0025  2800     R  	jmp _L10
  76  0026  0003        	ret
  76  0027              _UartInit endp
  76  0027              #line 76 "D:\WORK\Project\Github\Holtel-MCU\Code\HT66FM5440\UART_TEST\UART_TEST.c"
  76  0027              #pragma debug scope 1 1
  76  0027              ___usr equ [109]
  76  0027              ___txr_rxr equ [113]
  76  0027              public _ISR_Uart
  76  0027              #pragma debug scope 4 1
  86  0027              #line 86 "D:\WORK\Project\Github\Holtel-MCU\Code\HT66FM5440\UART_TEST\UART_TEST.c"
  86  0000              @ISR_Uart_code .section at 60 'code'
  86  0000              ifdef INTERRUPT_DELAY
  86  0000  0000        	nop
  86  0001              endif
  86  0001  0080     E  	mov r1,a
  86  0002  070A        	mov a,status
  86  0003              ifndef INTERRUPT_DELAY
  86  0003              	mov r2,a
  86  0003              endif
  86  0003  2800     R  	jmp _ISR_Uart
  86  0004              #pragma debug scope 1 1
  86  0004              @dummy60 endp
  86  0004              #pragma debug scope 5 1
  86  0000              _ISR_Uart .section 'code'
  86  0000              _ISR_Uart proc
  86  0000  00          local _ISR_Uart_2 db 1 dup(?)
  86  0000              ifdef INTERRUPT_DELAY
  86  0000  0080     E  	mov r2,a
  86  0001              endif
  86  0001  0703        	mov a,mp
  86  0002  0080     E  	mov r3,a
  86  0003  0704        	mov a,sbp
  86  0004  0080     E  	mov r4,a
  86  0005              #pragma debug variable 8 5 _ISR_Uart_2+0 "i"
  88  0005              #line 88 "D:\WORK\Project\Github\Holtel-MCU\Code\HT66FM5440\UART_TEST\UART_TEST.c"
  88  0005  3798        	clr [24].7
  90  0006              #line 90 "D:\WORK\Project\Github\Holtel-MCU\Code\HT66FM5440\UART_TEST\UART_TEST.c"
  90  0006  0720        	mov a,[32]
  90  0007  0080     E  	mov ra,a
  90  0008  0F20        	mov a,32
  90  0009  0680     E  	andm a,ra
  90  000A  1E00     E  	snz ra
  90  000B  2800     R  	jmp _L11
"File: UART_TEST.c   Assembler  Version HGASM0202      Page 7

  92  000C              #line 92 "D:\WORK\Project\Github\Holtel-MCU\Code\HT66FM5440\UART_TEST\UART_TEST.c"
  92  000C  36A0        	clr [32].5
  94  000D              #line 94 "D:\WORK\Project\Github\Holtel-MCU\Code\HT66FM5440\UART_TEST\UART_TEST.c"
  94  000D  076D        	mov a,[109]
  94  000E  0080     E  	mov ra,a
  94  000F  0F04        	mov a,4
  94  0010  0680     E  	andm a,ra
  94  0011  1E00     E  	snz ra
  94  0012  2800     R  	jmp _L11
  96  0013              #line 96 "D:\WORK\Project\Github\Holtel-MCU\Code\HT66FM5440\UART_TEST\UART_TEST.c"
  96  0013  0771        	mov a,[113]
  96  0014  0080     E  	mov ra,a
  96  0015  0700     E  	mov a,ra
  96  0016  0A23        	sub a,35
  96  0017  390A        	snz z
  96  0018  2800     R  	jmp _L13
  98  0019              #line 98 "D:\WORK\Project\Github\Holtel-MCU\Code\HT66FM5440\UART_TEST\UART_TEST.c"
  98  0019  1F00     R  	clr _rxcnt[0]
  99  001A              #line 99 "D:\WORK\Project\Github\Holtel-MCU\Code\HT66FM5440\UART_TEST\UART_TEST.c"
  99  001A  1F00     R  	clr _ISR_Uart_2[0]
  99  001B  2800     R  	jmp _L14
  99  001C              _L15:
 101  001C              #line 101 "D:\WORK\Project\Github\Holtel-MCU\Code\HT66FM5440\UART_TEST\UART_TEST.c"
 101  001C  0700     R  	mov a,_ISR_Uart_2[0]
 101  001D  0080     E  	mov ra,a
 101  001E  1F00     E  	clr rb
 101  001F  0F00     R  	mov a,low offset _rxbuff
 101  0020  0380     E  	addm a,ra
 101  0021  0F00     R  	mov a,high offset _rxbuff
 101  0022  1380     E  	adcm a,rb
 101  0023  0700     E  	mov a,ra
 101  0024  0083        	mov mp,a
 101  0025  0700     E  	mov a,rb
 101  0026  0084        	mov sbp,a
 101  0027  0F00        	mov a,0
 101  0028  0082        	mov ir,a
  99  0029              #line 99 "D:\WORK\Project\Github\Holtel-MCU\Code\HT66FM5440\UART_TEST\UART_TEST.c"
  99  0029  0700     R  	mov a,_ISR_Uart_2[0]
  99  002A  0080     E  	mov ra,a
  99  002B  1400     E  	inca ra
  99  002C  0080     R  	mov _ISR_Uart_2[0],a
  99  002D              _L14:
  99  002D  0F05        	mov a,5
  99  002E  0200     R  	sub a,_ISR_Uart_2[0]
  99  002F  3C0A        	sz c
  99  0030  2800     R  	jmp _L15
  99  0031  2800     R  	jmp _L11
  99  0032              _L13:
 104  0032              #line 104 "D:\WORK\Project\Github\Holtel-MCU\Code\HT66FM5440\UART_TEST\UART_TEST.c"
 104  0032  0700     R  	mov a,_rxcnt[0]
 104  0033  0080     E  	mov ra,a
 104  0034  0F05        	mov a,5
 104  0035  0200     E  	sub a,ra
 104  0036  380A        	snz c
 104  0037  2800     R  	jmp _L11
 106  0038              #line 106 "D:\WORK\Project\Github\Holtel-MCU\Code\HT66FM5440\UART_TEST\UART_TEST.c"
 106  0038  0700     R  	mov a,_rxcnt[0]
 106  0039  0080     E  	mov ra,a
 106  003A  1F00     E  	clr rb
 106  003B  0771        	mov a,[113]
"File: UART_TEST.c   Assembler  Version HGASM0202      Page 8

 106  003C  0080     E  	mov rc,a
 106  003D  0F00     R  	mov a,low offset _rxbuff
 106  003E  0380     E  	addm a,ra
 106  003F  0F00     R  	mov a,high offset _rxbuff
 106  0040  1380     E  	adcm a,rb
 106  0041  0700     E  	mov a,ra
 106  0042  0083        	mov mp,a
 106  0043  0700     E  	mov a,rb
 106  0044  0084        	mov sbp,a
 106  0045  0700     E  	mov a,rc
 106  0046  0082        	mov ir,a
 107  0047              #line 107 "D:\WORK\Project\Github\Holtel-MCU\Code\HT66FM5440\UART_TEST\UART_TEST.c"
 107  0047  0700     R  	mov a,_rxcnt[0]
 107  0048  0080     E  	mov ra,a
 107  0049  1480     E  	inc ra
 107  004A  0700     E  	mov a,ra
 107  004B  0080     R  	mov _rxcnt[0],a
 107  004C              _L11:
 107  004C  0700     E  	mov a,r2
 107  004D  008A        	mov status,a
 107  004E  0700     E  	mov a,r3
 107  004F  0083        	mov mp,a
 107  0050  0700     E  	mov a,r4
 107  0051  0084        	mov sbp,a
 107  0052  0700     E  	mov a,r1
 107  0053  0004        	reti
 107  0054              _ISR_Uart endp
 107  0054              
 107  0054              #line 107 "D:\WORK\Project\Github\Holtel-MCU\Code\HT66FM5440\UART_TEST\UART_TEST.c"
 107  0054              #pragma debug scope 1 1
 107  0054              public _print_string_const
 107  0054              #pragma debug scope 6 1
 114  0054              #line 114 "D:\WORK\Project\Github\Holtel-MCU\Code\HT66FM5440\UART_TEST\UART_TEST.c"
 114  0000              _print_string_const .section 'code'
 114  0000              _print_string_const proc
 114  0000              public _print_string_const_2
 114  0000  0003[           local _print_string_const_2 db 3 dup(?)	; 2,1
            00
            ]
 114  0003              #pragma debug pointer 43 8 6
 114  0003              #pragma debug pointer 43 8 6
 114  0003              #pragma debug variable 43 6 _print_string_const_2+0 "txdata"
 114  0003              #pragma debug variable 8 6 _print_string_const_2+2 "i"
 116  0003              #line 116 "D:\WORK\Project\Github\Holtel-MCU\Code\HT66FM5440\UART_TEST\UART_TEST.c"
 116  0000  1F00     R  	clr _print_string_const_2[2]
 116  0001  2800     R  	jmp _L17
 116  0002              _L20:
 118  0002              #line 118 "D:\WORK\Project\Github\Holtel-MCU\Code\HT66FM5440\UART_TEST\UART_TEST.c"
 118  0002  2800     R  	jmp _L18
 118  0003              _L19:
 119  0003              #line 119 "D:\WORK\Project\Github\Holtel-MCU\Code\HT66FM5440\UART_TEST\UART_TEST.c"
 119  0003              ;# 119 "D:\WORK\Project\Github\Holtel-MCU\Code\HT66FM5440\UART_TEST\UART_TEST.c" 1
 119  0003  0001        	clr wdt
 119  0004              _L18:
 118  0004              #line 118 "D:\WORK\Project\Github\Holtel-MCU\Code\HT66FM5440\UART_TEST\UART_TEST.c"
 118  0004  076D        	mov a,[109]
 118  0005  0080     E  	mov ra,a
 118  0006  0F01        	mov a,1
 118  0007  0680     E  	andm a,ra
 118  0008  1E00     E  	snz ra
"File: UART_TEST.c   Assembler  Version HGASM0202      Page 9

 118  0009  2800     R  	jmp _L19
 120  000A              #line 120 "D:\WORK\Project\Github\Holtel-MCU\Code\HT66FM5440\UART_TEST\UART_TEST.c"
 120  000A  0700     R  	mov a,_print_string_const_2[2]
 120  000B  0080     E  	mov ra,a
 120  000C  1F00     E  	clr rb
 120  000D  0700     R  	mov a,_print_string_const_2[0]
 120  000E  0380     E  	addm a,ra
 120  000F  0700     R  	mov a,_print_string_const_2[1]
 120  0010  1380     E  	adcm a,rb
 120  0011  0700     E  	mov a,ra
 120  0012  0083        	mov mp,a
 120  0013  0700     E  	mov a,rb
 120  0014  0084        	mov sbp,a
 120  0015  2000     E  	call _Crom2Prom
 120  0016  0080     E  	mov ra,a
 120  0017  0700     E  	mov a,ra
 120  0018  00F1        	mov [113],a
 116  0019              #line 116 "D:\WORK\Project\Github\Holtel-MCU\Code\HT66FM5440\UART_TEST\UART_TEST.c"
 116  0019  0700     R  	mov a,_print_string_const_2[2]
 116  001A  0080     E  	mov ra,a
 116  001B  1400     E  	inca ra
 116  001C  0080     R  	mov _print_string_const_2[2],a
 116  001D              _L17:
 116  001D  0F05        	mov a,5
 116  001E  0200     R  	sub a,_print_string_const_2[2]
 116  001F  3C0A        	sz c
 116  0020  2800     R  	jmp _L20
 116  0021  0003        	ret
 116  0022              _print_string_const endp
 116  0022              #line 116 "D:\WORK\Project\Github\Holtel-MCU\Code\HT66FM5440\UART_TEST\UART_TEST.c"
 116  0022              #pragma debug scope 1 1
 116  0022              #pragma debug struct_end
 116  0022              #pragma debug struct_end
 116  0022              #pragma debug union_end
 116  0022              #pragma debug union_end
 116  0022              #pragma debug variable 45 1 ___intc0 "__intc0" 1
 116  0022              #pragma debug struct_end
 116  0022              #pragma debug struct_end
 116  0022              #pragma debug union_end
 116  0022              #pragma debug union_end
 116  0022              #pragma debug variable 47 1 ___intc3 "__intc3" 1
 116  0022              #pragma debug struct_end
 116  0022              #pragma debug struct_end
 116  0022              #pragma debug union_end
 116  0022              #pragma debug union_end
 116  0022              #pragma debug variable 49 1 ___mfi7 "__mfi7" 1
 116  0022              #pragma debug struct_end
 116  0022              #pragma debug struct_end
 116  0022              #pragma debug union_end
 116  0022              #pragma debug union_end
 116  0022              #pragma debug variable 51 1 ___pbps1 "__pbps1" 1
 116  0022              #pragma debug struct_end
 116  0022              #pragma debug struct_end
 116  0022              #pragma debug union_end
 116  0022              #pragma debug union_end
 116  0022              #pragma debug variable 53 1 ___usr "__usr" 1
 116  0022              #pragma debug struct_end
 116  0022              #pragma debug struct_end
 116  0022              #pragma debug union_end
 116  0022              #pragma debug union_end
"File: UART_TEST.c   Assembler  Version HGASM0202      Page 10

 116  0022              #pragma debug variable 55 1 ___ucr1 "__ucr1" 1
 116  0022              #pragma debug struct_end
 116  0022              #pragma debug struct_end
 116  0022              #pragma debug union_end
 116  0022              #pragma debug union_end
 116  0022              #pragma debug variable 57 1 ___ucr2 "__ucr2" 1
 116  0022              #pragma debug struct_end
 116  0022              #pragma debug struct_end
 116  0022              #pragma debug union_end
 116  0022              #pragma debug union_end
 116  0022              #pragma debug variable 59 1 ___brg "__brg" 1
 116  0022              #pragma debug struct_end
 116  0022              #pragma debug struct_end
 116  0022              #pragma debug union_end
 116  0022              #pragma debug union_end
 116  0022              #pragma debug variable 61 1 ___txr_rxr "__txr_rxr" 1
 116  0022              extern r1:byte
 116  0022              extern r2:byte
 116  0022              extern r3:byte
 116  0022              extern r4:byte
  24  0022              #line 24 "D:\WORK\Project\Github\Holtel-MCU\Code\HT66FM5440\UART_TEST\UART_TEST.c"
  24  0000              @code .section at 0 'code'
  24  0000  2800     R  	jmp _main_startup1
  24  0001              
  24  0001              
  24  0001              ; 
  24  0001              ; Generated by holtek-gcc v3.19, Tue Aug 13 19:44:46 2019
  24  0001              ; Rebuild 115
  24  0001              ; end of file


        0 Errors, 0