"File: bdc_control.c  Assembler  Version HGASM0202      Page 1


   1  0000              ; Generated by holtek-gcc v3.19, Thu Sep 05 18:38:57 2019
   2  0000              ; 
   3  0000              ; Configuration:
   4  0000              ;       with long instruction
   5  0000              ;       Single ROM, Multi-RAM
   6  0000              ;       bits_per_rom_unit:16
   7  0000              ;       with mp1
   8  0000              ;       with tbhp, address(0x9)
   9  0000              ;          Use tabrd-const
  10  0000              ;       
  11  0000              ; SFR address of long-instruction arch:
  12  0000              ;    mp0 = -1,1,0
  13  0000              ;    mp1 = 4,3,2
  14  0000              ;    mp2 = 14,13,12
  15  0000              ;    tbp = 9,7,8
  16  0000              ;    acc = 5
  17  0000              ;    pcl = 6
  18  0000              ;    status = 10
  19  0000              ;    bp = 11
  20  0000              ;    intc = 21
  21  0000              ;       
  22  0000              ;       
  23  0000              ; use 'tabrdc' instead of 'tabrd'
  24  0000              ;       
  25  0000              
  26  0000              #pragma translator "holtek-gcc 4.6.4" "3.19" "build 20130711"
  27  0000              ; Rebuild 115
  28  0000              
  29  0000              ir equ [2]
  30  0000              mp equ [3]
  31  0000              sbp equ [4]
  32  0000              acc equ [5]
  33  0000              bp equ [11]
  34  0000              tblp equ [7]
  35  0000              tbhp equ [9]
  36  0000              status equ [10]
  37  0000              c equ [10].0
  38  0000              ac equ [10].1
  39  0000              z equ [10].2
  40  0000              ov equ [10].3
  41  0000              cz equ [10].6
  42  0000              sc equ [10].7
  43  0000              intc equ [21]
  44  0000              mdu0r0 equ [73h]
  45  0000              mdu0r1 equ [74h]
  46  0000              mdu0ctrl equ [75h]
  47  0000              mduwr0 equ [76h]
  48  0000              mduwr1 equ [77h]
  49  0000              mduwr2 equ [78h]
  50  0000              mduwr3 equ [7ah]
  51  0000              mduwr4 equ [7bh]
  52  0000              mduwr5 equ [7ch]
  53  0000              mduwrctrl equ [7dh]
  54  0000              
  55  0000              extern ra:byte
  56  0000              extern rb:byte
  57  0000              extern rc:byte
  58  0000              extern rd:byte
  59  0000              extern re:byte
"File: bdc_control.ASM  Assembler  Version HGASM0202      Page 2

  60  0000              extern rf:byte
  61  0000              extern rg:byte
  62  0000              extern rh:byte
  63  0000              extern _Crom2Prom:near
  64  0000              extern _Crom2PromNext:near
  65  0000              
  66  0000              RAMBANK 0 @BITDATASEC, @BITDATASEC1
  67  0000              @HCCINIT	.section 'data'
  68  0000              @HCCINIT0	.section 'data'
  69  0000              @BITDATASEC	 .section 'data'
  70  0000              @BITDATASEC1	 .section 'data'
  71  0000              
  72  0000              #pragma debug scope 1 1
  73  0000              	extern __DELAY3:near
  74  0000              	extern __DELAYX3:near
  75  0000              	extern __DELAYX6:near
  76  0000              	extern __DELAYY5:near
  77  0000              	extern __DELAYY3:near
  78  0000              	extern _builtin_holtek_delay_2:byte

  48  0000              #line 48 "D:\WORK\Project\Github\Holtel-MCU\Code\HT66FM5440\110V_hbridge\bdc_control.c"
  48  0000              public _direction
  48  0000              @HCCINIT0_direction .section 'data'
  48  0000  0002[       _direction	db 2 dup(0)
            00
            ]
  48  0002              #pragma debug variable 12 1 _direction "direction"
  48  0002              
  48  0000              @HCCINIT .section 'data'
  48  0000              public _motor_current
  48  0000              @HCCINIT	.section 'data'
  49  0000              #line 49 "D:\WORK\Project\Github\Holtel-MCU\Code\HT66FM5440\110V_hbridge\bdc_control.c"
  49  0000              @HCCINIT_motor_current .section 'data'
  49  0000              _motor_current label byte
  49  0000              #pragma debug variable 10 1 _motor_current "motor_current"
  49  0000              	db 0
  49  0000              @ROMDATA_BASE .section inpage 'code'
  49  0000              	db 0
  49  0001              @HCCINIT_motor_current .section 'data'
  49  0001              	db 0
  49  0001              @ROMDATA_BASE .section inpage 'code'
  49  0001              	db 0
  49  0002              @HCCINIT_motor_current .section 'data'
  50  0002              #line 50 "D:\WORK\Project\Github\Holtel-MCU\Code\HT66FM5440\110V_hbridge\bdc_control.c"
  50  0002              public _motor_state
  50  0000              @HCCINIT0_motor_state .section 'data'
  50  0000              _motor_state	db 0
  50  0001              #pragma debug variable 8 1 _motor_state "motor_state"
  50  0001              
  50  0000              @HCCINIT .section 'data'
  50  0000              public _pwmduty_now
  55  0000              #line 55 "D:\WORK\Project\Github\Holtel-MCU\Code\HT66FM5440\110V_hbridge\bdc_control.c"
  55  0000              @HCCINIT_pwmduty_now .section 'data'
  55  0000              _pwmduty_now label byte
  55  0000              #pragma debug variable 10 1 _pwmduty_now "pwmduty_now"
  55  0000              	db 0
  55  0001              @ROMDATA_BASE .section inpage 'code'
  55  0001              	db 0
  55  0001              @HCCINIT_pwmduty_now .section 'data'
  55  0001              	db 0
"File: bdc_control.c  Assembler  Version HGASM0202      Page 3

  55  0002              @ROMDATA_BASE .section inpage 'code'
  55  0002              	db 0
  55  0002              @HCCINIT_pwmduty_now .section 'data'
  55  0002              public _f_10ms
  56  0002              #line 56 "D:\WORK\Project\Github\Holtel-MCU\Code\HT66FM5440\110V_hbridge\bdc_control.c"
  56  0000              @BITDATASEC .section 'data'
  56  0000  00          _f_10ms	dbit 0
  56  0001              #pragma debug variable 2 1 _f_10ms "f_10ms"
  56  0001              public _f_200ms
  56  0001              #line 56 "D:\WORK\Project\Github\Holtel-MCU\Code\HT66FM5440\110V_hbridge\bdc_control.c"
  56  0001              @BITDATASEC .section 'data'
  56  0000              _f_200ms	dbit 0
  56  0001              #pragma debug variable 2 1 _f_200ms "f_200ms"
  59  0001              #line 59 "D:\WORK\Project\Github\Holtel-MCU\Code\HT66FM5440\110V_hbridge\bdc_control.c"
  59  0001              public _txbuff
  59  0000              @HCCINIT0_txbuff .section 'data'
  59  0000  0006[       _txbuff	db 6 dup(0)
            00
            ]
  59  0006              #pragma debug array 42 8 6 1
  59  0006              #pragma debug array 42 8 6 1
  59  0006              #pragma debug variable 42 1 _txbuff "txbuff"
  59  0006              
  59  0000              @HCCINIT .section 'data'
  60  0000              #line 60 "D:\WORK\Project\Github\Holtel-MCU\Code\HT66FM5440\110V_hbridge\bdc_control.c"
  60  0000              public _rxbuff
  60  0000              @HCCINIT0_rxbuff .section 'data'
  60  0000  0006[       _rxbuff	db 6 dup(0)
            00
            ]
  60  0006              #pragma debug variable 42 1 _rxbuff "rxbuff"
  60  0006              
  60  0000              @HCCINIT .section 'data'
  60  0000              public _rxcnt
  61  0000              #line 61 "D:\WORK\Project\Github\Holtel-MCU\Code\HT66FM5440\110V_hbridge\bdc_control.c"
  61  0000              @HCCINIT_rxcnt .section 'data'
  61  0000              _rxcnt label byte
  61  0000              #pragma debug variable 8 1 _rxcnt "rxcnt"
  61  0000              	db 0
  61  0002              @ROMDATA_BASE .section inpage 'code'
  61  0002              	db 0
  61  0001              @HCCINIT_rxcnt .section 'data'
  61  0001              public _txcnt
  61  0001              #line 61 "D:\WORK\Project\Github\Holtel-MCU\Code\HT66FM5440\110V_hbridge\bdc_control.c"
  61  0000              @HCCINIT_txcnt .section 'data'
  61  0000              _txcnt label byte
  61  0000              #pragma debug variable 8 1 _txcnt "txcnt"
  61  0000              	db 0
  61  0003              @ROMDATA_BASE .section inpage 'code'
  61  0003              	db 0
  61  0001              @HCCINIT_txcnt .section 'data'
  61  0001              public _ascii
  61  0000              @crom	.section 'crom'
  62  0000              #line 62 "D:\WORK\Project\Github\Holtel-MCU\Code\HT66FM5440\110V_hbridge\bdc_control.c"
  62  0000              @crom	.section	'crom'
  62  0000              _ascii:
  62  0000              #pragma debug array 43 7 17 1
  62  0000              #pragma debug array 43 7 17 1
  62  0000              #pragma debug variable 43 1 _ascii "ascii"
  62  0000              	db 030h,031h,032h,033h,034h,035h,036h,037h,038h,039h
"File: bdc_control.c  Assembler  Version HGASM0202      Page 4

  62  0005              	db 041h,042h,043h,044h,045h,046h,00h
  62  0009              ___pwmc equ [87]
  62  0009              ___intc0 equ [21]
  62  0009              public _main
  62  0009              #pragma debug scope 2 1
  77  0009              #line 77 "D:\WORK\Project\Github\Holtel-MCU\Code\HT66FM5440\110V_hbridge\bdc_control.c"
  77  0009              IFDEF WITH_DEFAULT_STARTUP
  77  0009              extern _main_initial0:near
  77  0009              extern _main_startup:near
  77  0009              ENDIF
  77  0009              
  77  0009              ROMBANK 0 @start
  77  0000              @start .section com_l 'code'
  77  0000              _main_startup1:
  77  0000              @start .section com_e 'code'
  77  0000  2800     R  	jmp _main
  77  0001              
  77  0000              _main .section 'code'
  77  0000              _main proc
  78  0000              #line 78 "D:\WORK\Project\Github\Holtel-MCU\Code\HT66FM5440\110V_hbridge\bdc_control.c"
  78  0000  1F00     R  	clr _pwmduty_now[0]
  78  0001  1F00     R  	clr _pwmduty_now[1]
  79  0002              #line 79 "D:\WORK\Project\Github\Holtel-MCU\Code\HT66FM5440\110V_hbridge\bdc_control.c"
  79  0002  0F02        	mov a,2
  79  0003  0080     R  	mov _motor_state[0],a
  81  0004              #line 81 "D:\WORK\Project\Github\Holtel-MCU\Code\HT66FM5440\110V_hbridge\bdc_control.c"
  81  0004  2000     R  	call _gpio_init
  82  0005              #line 82 "D:\WORK\Project\Github\Holtel-MCU\Code\HT66FM5440\110V_hbridge\bdc_control.c"
  82  0005  2000     R  	call _uart_init
  83  0006              #line 83 "D:\WORK\Project\Github\Holtel-MCU\Code\HT66FM5440\110V_hbridge\bdc_control.c"
  83  0006  2000     R  	call _timeBase_init
  84  0007              #line 84 "D:\WORK\Project\Github\Holtel-MCU\Code\HT66FM5440\110V_hbridge\bdc_control.c"
  84  0007  2000     R  	call _pwm_init
  85  0008              #line 85 "D:\WORK\Project\Github\Holtel-MCU\Code\HT66FM5440\110V_hbridge\bdc_control.c"
  85  0008  31D7        	set [87].3
  86  0009              #line 86 "D:\WORK\Project\Github\Holtel-MCU\Code\HT66FM5440\110V_hbridge\bdc_control.c"
  86  0009  3015        	set [21].0
  88  000A              #line 88 "D:\WORK\Project\Github\Holtel-MCU\Code\HT66FM5440\110V_hbridge\bdc_control.c"
  88  000A  3400     R  	clr _f_200ms
  89  000B              #line 89 "D:\WORK\Project\Github\Holtel-MCU\Code\HT66FM5440\110V_hbridge\bdc_control.c"
  89  000B  2800     R  	jmp _L2
  89  000C              _L3:
  91  000C              #line 91 "D:\WORK\Project\Github\Holtel-MCU\Code\HT66FM5440\110V_hbridge\bdc_control.c"
  91  000C              ;# 91 "D:\WORK\Project\Github\Holtel-MCU\Code\HT66FM5440\110V_hbridge\bdc_control.c" 1
  91  000C  0001        	clr wdt
  91  000D              _L2:
  89  000D              #line 89 "D:\WORK\Project\Github\Holtel-MCU\Code\HT66FM5440\110V_hbridge\bdc_control.c"
  89  000D  1F00     E  	clr ra
  89  000E  3C00     R  	sz _f_200ms
  89  000F  3000     E  	set ra.0
  89  0010  3800     E  	snz ra.0
  89  0011  2800     R  	jmp _L3
  89  0012              _L22:
  96  0012              #line 96 "D:\WORK\Project\Github\Holtel-MCU\Code\HT66FM5440\110V_hbridge\bdc_control.c"
  96  0012              ;# 96 "D:\WORK\Project\Github\Holtel-MCU\Code\HT66FM5440\110V_hbridge\bdc_control.c" 1
  96  0012  0001        	clr wdt
  97  0013              #line 97 "D:\WORK\Project\Github\Holtel-MCU\Code\HT66FM5440\110V_hbridge\bdc_control.c"
  97  0013  2000     R  	call _adc_sample
  98  0014              #line 98 "D:\WORK\Project\Github\Holtel-MCU\Code\HT66FM5440\110V_hbridge\bdc_control.c"
  98  0014  0700     R  	mov a,_motor_current[0]
"File: bdc_control.c  Assembler  Version HGASM0202      Page 5

  98  0015  0080     E  	mov ra,a
  98  0016  0700     R  	mov a,_motor_current[1]
  98  0017  0080     E  	mov rb,a
  98  0018  0700     E  	mov a,ra
  98  0019  0500     E  	or a,rb
  98  001A  3D0A        	sz z
  98  001B  2800     R  	jmp _L4
  99  001C              #line 99 "D:\WORK\Project\Github\Holtel-MCU\Code\HT66FM5440\110V_hbridge\bdc_control.c"
  99  001C  1F00     R  	clr _motor_state[0]
  99  001D              _L4:
 101  001D              #line 101 "D:\WORK\Project\Github\Holtel-MCU\Code\HT66FM5440\110V_hbridge\bdc_control.c"
 101  001D  1F00     E  	clr ra
 101  001E  3C00     R  	sz _f_10ms
 101  001F  3000     E  	set ra.0
 101  0020  3800     E  	snz ra.0
 101  0021  2800     R  	jmp _L5
 103  0022              #line 103 "D:\WORK\Project\Github\Holtel-MCU\Code\HT66FM5440\110V_hbridge\bdc_control.c"
 103  0022  3400     R  	clr _f_10ms
 105  0023              #line 105 "D:\WORK\Project\Github\Holtel-MCU\Code\HT66FM5440\110V_hbridge\bdc_control.c"
 105  0023  2000     R  	call _handle_key
 107  0024              #line 107 "D:\WORK\Project\Github\Holtel-MCU\Code\HT66FM5440\110V_hbridge\bdc_control.c"
 107  0024  0700     R  	mov a,_motor_state[0]
 107  0025  0080     E  	mov ra,a
 107  0026  1F00     E  	clr rb
 107  0027  0700     E  	mov a,ra
 107  0028  0500     E  	or a,rb
 107  0029  3D0A        	sz z
 107  002A  2800     R  	jmp _L24
 107  002B  0700     E  	mov a,ra
 107  002C  0C01        	xor a,1
 107  002D  0500     E  	or a,rb
 107  002E  3D0A        	sz z
 107  002F  2800     R  	jmp _L8
 107  0030  0700     E  	mov a,ra
 107  0031  0C02        	xor a,2
 107  0032  0500     E  	or a,rb
 107  0033  3D0A        	sz z
 107  0034  2800     R  	jmp _L9
 107  0035  0700     E  	mov a,ra
 107  0036  0C03        	xor a,3
 107  0037  0500     E  	or a,rb
 107  0038  3D0A        	sz z
 107  0039  2800     R  	jmp _L10
 107  003A  0700     E  	mov a,ra
 107  003B  0C04        	xor a,4
 107  003C  0500     E  	or a,rb
 107  003D  3D0A        	sz z
 107  003E  2800     R  	jmp _L11
 107  003F  2800     R  	jmp _L23
 107  0040              _L8:
 113  0040              #line 113 "D:\WORK\Project\Github\Holtel-MCU\Code\HT66FM5440\110V_hbridge\bdc_control.c"
 113  0040  0700     R  	mov a,_direction[0]
 113  0041  0080     E  	mov ra,a
 113  0042  0700     R  	mov a,_direction[1]
 113  0043  0080     E  	mov rb,a
 113  0044  0700     E  	mov a,ra
 113  0045  0C01        	xor a,1
 113  0046  0500     E  	or a,rb
 113  0047  390A        	snz z
 113  0048  2800     R  	jmp _L12
"File: bdc_control.c  Assembler  Version HGASM0202      Page 6

 114  0049              #line 114 "D:\WORK\Project\Github\Holtel-MCU\Code\HT66FM5440\110V_hbridge\bdc_control.c"
 114  0049  0F04        	mov a,4
 114  004A  0080     R  	mov _motor_state[0],a
 114  004B  2800     R  	jmp _L13
 114  004C              _L12:
 115  004C              #line 115 "D:\WORK\Project\Github\Holtel-MCU\Code\HT66FM5440\110V_hbridge\bdc_control.c"
 115  004C  0700     R  	mov a,_direction[0]
 115  004D  0080     E  	mov ra,a
 115  004E  0700     R  	mov a,_direction[1]
 115  004F  0080     E  	mov rb,a
 115  0050  0700     E  	mov a,ra
 115  0051  0500     E  	or a,rb
 115  0052  390A        	snz z
 115  0053  2800     R  	jmp _L13
 116  0054              #line 116 "D:\WORK\Project\Github\Holtel-MCU\Code\HT66FM5440\110V_hbridge\bdc_control.c"
 116  0054  0F03        	mov a,3
 116  0055  0080     R  	mov _motor_state[0],a
 117  0056              #line 117 "D:\WORK\Project\Github\Holtel-MCU\Code\HT66FM5440\110V_hbridge\bdc_control.c"
 117  0056  2800     R  	jmp _L5
 117  0057              _L13:
 117  0057  2800     R  	jmp _L5
 117  0058              _L9:
 120  0058              #line 120 "D:\WORK\Project\Github\Holtel-MCU\Code\HT66FM5440\110V_hbridge\bdc_control.c"
 120  0058  0700     R  	mov a,_pwmduty_now[0]
 120  0059  0080     E  	mov ra,a
 120  005A  0700     R  	mov a,_pwmduty_now[1]
 120  005B  0080     E  	mov rb,a
 120  005C  0700     E  	mov a,ra
 120  005D  0500     E  	or a,rb
 120  005E  390A        	snz z
 120  005F  2800     R  	jmp _L14
 122  0060              #line 122 "D:\WORK\Project\Github\Holtel-MCU\Code\HT66FM5440\110V_hbridge\bdc_control.c"
 122  0060  0F01        	mov a,1
 122  0061  0080     R  	mov _motor_state[0],a
 122  0062              _L14:
 124  0062              #line 124 "D:\WORK\Project\Github\Holtel-MCU\Code\HT66FM5440\110V_hbridge\bdc_control.c"
 124  0062  0700     R  	mov a,_pwmduty_now[0]
 124  0063  0080     E  	mov ra,a
 124  0064  0700     R  	mov a,_pwmduty_now[1]
 124  0065  0080     E  	mov rb,a
 124  0066  0F09        	mov a,9
 124  0067  0200     E  	sub a,ra
 124  0068  0F00        	mov a,0
 124  0069  1200     E  	sbc a,rb
 124  006A  380A        	snz c
 124  006B  2800     R  	jmp _L15
 125  006C              #line 125 "D:\WORK\Project\Github\Holtel-MCU\Code\HT66FM5440\110V_hbridge\bdc_control.c"
 125  006C  1F00     R  	clr _pwmduty_now[0]
 125  006D  1F00     R  	clr _pwmduty_now[1]
 128  006E              #line 128 "D:\WORK\Project\Github\Holtel-MCU\Code\HT66FM5440\110V_hbridge\bdc_control.c"
 128  006E  2800     R  	jmp _L5
 128  006F              _L15:
 127  006F              #line 127 "D:\WORK\Project\Github\Holtel-MCU\Code\HT66FM5440\110V_hbridge\bdc_control.c"
 127  006F  0700     R  	mov a,_pwmduty_now[0]
 127  0070  0080     E  	mov ra,a
 127  0071  0700     R  	mov a,_pwmduty_now[1]
 127  0072  0080     E  	mov rb,a
 127  0073  0FCE        	mov a,206
 127  0074  0380     E  	addm a,ra
 127  0075  0FFF        	mov a,255
"File: bdc_control.c  Assembler  Version HGASM0202      Page 7

 127  0076  1380     E  	adcm a,rb
 127  0077  0700     E  	mov a,ra
 127  0078  0080     R  	mov _pwmduty_now[0],a
 127  0079  0700     E  	mov a,rb
 127  007A  0080     R  	mov _pwmduty_now[1],a
 128  007B              #line 128 "D:\WORK\Project\Github\Holtel-MCU\Code\HT66FM5440\110V_hbridge\bdc_control.c"
 128  007B  2800     R  	jmp _L5
 128  007C              _L10:
 131  007C              #line 131 "D:\WORK\Project\Github\Holtel-MCU\Code\HT66FM5440\110V_hbridge\bdc_control.c"
 131  007C  0700     R  	mov a,_direction[0]
 131  007D  0080     E  	mov ra,a
 131  007E  0700     R  	mov a,_direction[1]
 131  007F  0080     E  	mov rb,a
 131  0080  0700     E  	mov a,ra
 131  0081  0500     E  	or a,rb
 131  0082  3D0A        	sz z
 131  0083  2800     R  	jmp _L17
 133  0084              #line 133 "D:\WORK\Project\Github\Holtel-MCU\Code\HT66FM5440\110V_hbridge\bdc_control.c"
 133  0084  0F02        	mov a,2
 133  0085  0080     R  	mov _motor_state[0],a
 133  0086              _L17:
 135  0086              #line 135 "D:\WORK\Project\Github\Holtel-MCU\Code\HT66FM5440\110V_hbridge\bdc_control.c"
 135  0086  0700     R  	mov a,_pwmduty_now[0]
 135  0087  0080     E  	mov ra,a
 135  0088  0700     R  	mov a,_pwmduty_now[1]
 135  0089  0080     E  	mov rb,a
 135  008A  0FED        	mov a,237
 135  008B  0200     E  	sub a,ra
 135  008C  0F02        	mov a,2
 135  008D  1200     E  	sbc a,rb
 135  008E  380A        	snz c
 135  008F  2800     R  	jmp _L18
 136  0090              #line 136 "D:\WORK\Project\Github\Holtel-MCU\Code\HT66FM5440\110V_hbridge\bdc_control.c"
 136  0090  0700     R  	mov a,_pwmduty_now[0]
 136  0091  0080     E  	mov ra,a
 136  0092  0700     R  	mov a,_pwmduty_now[1]
 136  0093  0080     E  	mov rb,a
 136  0094  0F32        	mov a,50
 136  0095  0380     E  	addm a,ra
 136  0096  0F00        	mov a,0
 136  0097  1380     E  	adcm a,rb
 136  0098  0700     E  	mov a,ra
 136  0099  0080     R  	mov _pwmduty_now[0],a
 136  009A  0700     E  	mov a,rb
 136  009B  0080     R  	mov _pwmduty_now[1],a
 137  009C              #line 137 "D:\WORK\Project\Github\Holtel-MCU\Code\HT66FM5440\110V_hbridge\bdc_control.c"
 137  009C  2800     R  	jmp _L5
 137  009D              _L18:
 137  009D  2800     R  	jmp _L5
 137  009E              _L11:
 140  009E              #line 140 "D:\WORK\Project\Github\Holtel-MCU\Code\HT66FM5440\110V_hbridge\bdc_control.c"
 140  009E  0700     R  	mov a,_direction[0]
 140  009F  0080     E  	mov ra,a
 140  00A0  0700     R  	mov a,_direction[1]
 140  00A1  0080     E  	mov rb,a
 140  00A2  0700     E  	mov a,ra
 140  00A3  0C01        	xor a,1
 140  00A4  0500     E  	or a,rb
 140  00A5  3D0A        	sz z
 140  00A6  2800     R  	jmp _L19
"File: bdc_control.c  Assembler  Version HGASM0202      Page 8

 142  00A7              #line 142 "D:\WORK\Project\Github\Holtel-MCU\Code\HT66FM5440\110V_hbridge\bdc_control.c"
 142  00A7  0F02        	mov a,2
 142  00A8  0080     R  	mov _motor_state[0],a
 142  00A9              _L19:
 144  00A9              #line 144 "D:\WORK\Project\Github\Holtel-MCU\Code\HT66FM5440\110V_hbridge\bdc_control.c"
 144  00A9  0700     R  	mov a,_pwmduty_now[0]
 144  00AA  0080     E  	mov ra,a
 144  00AB  0700     R  	mov a,_pwmduty_now[1]
 144  00AC  0080     E  	mov rb,a
 144  00AD  0FED        	mov a,237
 144  00AE  0200     E  	sub a,ra
 144  00AF  0F02        	mov a,2
 144  00B0  1200     E  	sbc a,rb
 144  00B1  380A        	snz c
 144  00B2  2800     R  	jmp _L20
 145  00B3              #line 145 "D:\WORK\Project\Github\Holtel-MCU\Code\HT66FM5440\110V_hbridge\bdc_control.c"
 145  00B3  0700     R  	mov a,_pwmduty_now[0]
 145  00B4  0080     E  	mov ra,a
 145  00B5  0700     R  	mov a,_pwmduty_now[1]
 145  00B6  0080     E  	mov rb,a
 145  00B7  0F32        	mov a,50
 145  00B8  0380     E  	addm a,ra
 145  00B9  0F00        	mov a,0
 145  00BA  1380     E  	adcm a,rb
 145  00BB  0700     E  	mov a,ra
 145  00BC  0080     R  	mov _pwmduty_now[0],a
 145  00BD  0700     E  	mov a,rb
 145  00BE  0080     R  	mov _pwmduty_now[1],a
 146  00BF              #line 146 "D:\WORK\Project\Github\Holtel-MCU\Code\HT66FM5440\110V_hbridge\bdc_control.c"
 146  00BF  2800     R  	jmp _L5
 146  00C0              _L20:
 146  00C0  2800     R  	jmp _L5
 146  00C1              _L23:
 149  00C1              #line 149 "D:\WORK\Project\Github\Holtel-MCU\Code\HT66FM5440\110V_hbridge\bdc_control.c"
 149  00C1  1F00     R  	clr _motor_state[0]
 150  00C2              #line 150 "D:\WORK\Project\Github\Holtel-MCU\Code\HT66FM5440\110V_hbridge\bdc_control.c"
 150  00C2  2800     R  	jmp _L5
 150  00C3              _L24:
 110  00C3              #line 110 "D:\WORK\Project\Github\Holtel-MCU\Code\HT66FM5440\110V_hbridge\bdc_control.c"
 110  00C3              	;nop
 110  00C3              _L5:
 154  00C3              #line 154 "D:\WORK\Project\Github\Holtel-MCU\Code\HT66FM5440\110V_hbridge\bdc_control.c"
 154  00C3  1F00     E  	clr ra
 154  00C4  3C00     R  	sz _f_200ms
 154  00C5  3000     E  	set ra.0
 154  00C6  3800     E  	snz ra.0
 154  00C7  2800     R  	jmp _L21
 156  00C8              #line 156 "D:\WORK\Project\Github\Holtel-MCU\Code\HT66FM5440\110V_hbridge\bdc_control.c"
 156  00C8  3400     R  	clr _f_200ms
 163  00C9              #line 163 "D:\WORK\Project\Github\Holtel-MCU\Code\HT66FM5440\110V_hbridge\bdc_control.c"
 163  00C9  2800     R  	jmp _L22
 163  00CA              _L21:
 163  00CA  2800     R  	jmp _L22
 163  00CB  2800     R  	jmp $
 163  00CC              _main endp
 163  00CC              
 163  00CC              @dummy endp
 163  00CC              
 163  00CC              #line 163 "D:\WORK\Project\Github\Holtel-MCU\Code\HT66FM5440\110V_hbridge\bdc_control.c"
 163  00CC              #pragma debug scope 1 1
"File: bdc_control.c  Assembler  Version HGASM0202      Page 9

 163  00CC              ___pb equ [38]
 163  00CC              public _handle_key
 163  00CC              #pragma debug scope 3 1
 167  00CC              #line 167 "D:\WORK\Project\Github\Holtel-MCU\Code\HT66FM5440\110V_hbridge\bdc_control.c"
 167  0000              _handle_key .section 'code'
 167  0000              _handle_key proc
 167  0000  00              local _handle_key_2 db 1 dup(?)	; 0,1
 167  0001              #pragma debug variable 8 3 _handle_key_2+0 "key_now"
 170  0001              #line 170 "D:\WORK\Project\Github\Holtel-MCU\Code\HT66FM5440\110V_hbridge\bdc_control.c"
 170  0000  0726        	mov a,[38]
 170  0001  0080     E  	mov ra,a
 170  0002  340A        	clr c
 170  0003  1B80     E  	rrc ra
 170  0004  340A        	clr c
 170  0005  1B80     E  	rrc ra
 170  0006  0F01        	mov a,1
 170  0007  0680     E  	andm a,ra
 170  0008  1F00     E  	clr rb
 170  0009  340A        	clr c
 170  000A  1A80     E  	rlc ra
 170  000B  1A80     E  	rlc rb
 170  000C  340A        	clr c
 170  000D  1A80     E  	rlc ra
 170  000E  1A80     E  	rlc rb
 170  000F  0700     E  	mov a,ra
 170  0010  0080     E  	mov rc,a
 170  0011  0726        	mov a,[38]
 170  0012  0080     E  	mov ra,a
 170  0013  340A        	clr c
 170  0014  1B80     E  	rrc ra
 170  0015  0F01        	mov a,1
 170  0016  0680     E  	andm a,ra
 170  0017  1F00     E  	clr rb
 170  0018  340A        	clr c
 170  0019  1A80     E  	rlc ra
 170  001A  1A80     E  	rlc rb
 170  001B  0700     E  	mov a,rc
 170  001C  0500     E  	or a,ra
 170  001D  0080     E  	mov rb,a
 170  001E  0726        	mov a,[38]
 170  001F  0080     E  	mov ra,a
 170  0020  0F01        	mov a,1
 170  0021  0680     E  	andm a,ra
 170  0022  0700     E  	mov a,rb
 170  0023  0580     E  	orm a,ra
 170  0024  0100     E  	cpla ra
 170  0025  0080     R  	mov _handle_key_2[0],a
 172  0026              #line 172 "D:\WORK\Project\Github\Holtel-MCU\Code\HT66FM5440\110V_hbridge\bdc_control.c"
 172  0026  0700     R  	mov a,_handle_key_2[0]
 172  0027  0080     E  	mov ra,a
 172  0028  1F00     E  	clr rb
 172  0029  0F07        	mov a,7  
 172  002A  0680     E  	andm a,ra  
 172  002B  0F00        	mov a,0  
 172  002C  0680     E  	andm a,rb
 172  002D  0700     E  	mov a,ra
 172  002E  0C01        	xor a,1
 172  002F  0500     E  	or a,rb
 172  0030  390A        	snz z
 172  0031  2800     R  	jmp _L26
"File: bdc_control.c  Assembler  Version HGASM0202      Page 10

 174  0032              #line 174 "D:\WORK\Project\Github\Holtel-MCU\Code\HT66FM5440\110V_hbridge\bdc_control.c"
 174  0032  1F00     R  	clr _direction[0]
 174  0033  1F00     R  	clr _direction[1]
 174  0034  2800     R  	jmp _L25
 174  0035              _L26:
 176  0035              #line 176 "D:\WORK\Project\Github\Holtel-MCU\Code\HT66FM5440\110V_hbridge\bdc_control.c"
 176  0035  0700     R  	mov a,_handle_key_2[0]
 176  0036  0080     E  	mov ra,a
 176  0037  1F00     E  	clr rb
 176  0038  0F07        	mov a,7  
 176  0039  0680     E  	andm a,ra  
 176  003A  0F00        	mov a,0  
 176  003B  0680     E  	andm a,rb
 176  003C  0700     E  	mov a,ra
 176  003D  0C02        	xor a,2
 176  003E  0500     E  	or a,rb
 176  003F  390A        	snz z
 176  0040  2800     R  	jmp _L28
 178  0041              #line 178 "D:\WORK\Project\Github\Holtel-MCU\Code\HT66FM5440\110V_hbridge\bdc_control.c"
 178  0041  0F01        	mov a,1
 178  0042  0080     R  	mov _direction[0],a
 178  0043  1F00     R  	clr _direction[1]
 178  0044  2800     R  	jmp _L25
 178  0045              _L28:
 181  0045              #line 181 "D:\WORK\Project\Github\Holtel-MCU\Code\HT66FM5440\110V_hbridge\bdc_control.c"
 181  0045  0F02        	mov a,2
 181  0046  0080     R  	mov _direction[0],a
 181  0047  1F00     R  	clr _direction[1]
 181  0048              _L25:
 181  0048  0003        	ret
 181  0049              _handle_key endp
 181  0049              #line 181 "D:\WORK\Project\Github\Holtel-MCU\Code\HT66FM5440\110V_hbridge\bdc_control.c"
 181  0049              #pragma debug scope 1 1
 181  0049              public _adc_sample
 181  0049              #pragma debug scope 4 1
 185  0049              #line 185 "D:\WORK\Project\Github\Holtel-MCU\Code\HT66FM5440\110V_hbridge\bdc_control.c"
 185  0000              _adc_sample .section 'code'
 185  0000              _adc_sample proc
 185  0000  0003        	ret
 185  0001              _adc_sample endp
 185  0001              #line 185 "D:\WORK\Project\Github\Holtel-MCU\Code\HT66FM5440\110V_hbridge\bdc_control.c"
 185  0001              #pragma debug scope 1 1
 185  0001              ___paps0 equ [378]
 185  0001              ___pdps0 equ [382]
 185  0001              ___pbpu equ [37]
 185  0001              ___pbc equ [39]
 185  0001              ___pa equ [35]
 185  0001              ___papu equ [34]
 185  0001              ___pac equ [36]
 185  0001              public _gpio_init
 185  0001              #pragma debug scope 5 1
 190  0001              #line 190 "D:\WORK\Project\Github\Holtel-MCU\Code\HT66FM5440\110V_hbridge\bdc_control.c"
 190  0000              _gpio_init .section 'code'
 190  0000              _gpio_init proc
 193  0000              #line 193 "D:\WORK\Project\Github\Holtel-MCU\Code\HT66FM5440\110V_hbridge\bdc_control.c"
 193  0000  B1FA 0001   	lset [378].3
 194  0002              #line 194 "D:\WORK\Project\Github\Holtel-MCU\Code\HT66FM5440\110V_hbridge\bdc_control.c"
 194  0002  B57A 0001   	lclr [378].2
 197  0004              #line 197 "D:\WORK\Project\Github\Holtel-MCU\Code\HT66FM5440\110V_hbridge\bdc_control.c"
 197  0004  877E 0001   	lmov a,[382]
"File: bdc_control.c  Assembler  Version HGASM0202      Page 11

 197  0006  0080     E  	mov ra,a
 197  0007  0FC0        	mov a,192
 197  0008  0680     E  	andm a,ra
 197  0009  0700     E  	mov a,ra
 197  000A  80FE 0001   	lmov [382],a
 199  000C              #line 199 "D:\WORK\Project\Github\Holtel-MCU\Code\HT66FM5440\110V_hbridge\bdc_control.c"
 199  000C  3026        	set [38].0
 200  000D              #line 200 "D:\WORK\Project\Github\Holtel-MCU\Code\HT66FM5440\110V_hbridge\bdc_control.c"
 200  000D  30A6        	set [38].1
 201  000E              #line 201 "D:\WORK\Project\Github\Holtel-MCU\Code\HT66FM5440\110V_hbridge\bdc_control.c"
 201  000E  3126        	set [38].2
 202  000F              #line 202 "D:\WORK\Project\Github\Holtel-MCU\Code\HT66FM5440\110V_hbridge\bdc_control.c"
 202  000F  3025        	set [37].0
 203  0010              #line 203 "D:\WORK\Project\Github\Holtel-MCU\Code\HT66FM5440\110V_hbridge\bdc_control.c"
 203  0010  30A5        	set [37].1
 204  0011              #line 204 "D:\WORK\Project\Github\Holtel-MCU\Code\HT66FM5440\110V_hbridge\bdc_control.c"
 204  0011  3125        	set [37].2
 205  0012              #line 205 "D:\WORK\Project\Github\Holtel-MCU\Code\HT66FM5440\110V_hbridge\bdc_control.c"
 205  0012  3027        	set [39].0
 206  0013              #line 206 "D:\WORK\Project\Github\Holtel-MCU\Code\HT66FM5440\110V_hbridge\bdc_control.c"
 206  0013  30A7        	set [39].1
 207  0014              #line 207 "D:\WORK\Project\Github\Holtel-MCU\Code\HT66FM5440\110V_hbridge\bdc_control.c"
 207  0014  3127        	set [39].2
 209  0015              #line 209 "D:\WORK\Project\Github\Holtel-MCU\Code\HT66FM5440\110V_hbridge\bdc_control.c"
 209  0015  31A3        	set [35].3
 210  0016              #line 210 "D:\WORK\Project\Github\Holtel-MCU\Code\HT66FM5440\110V_hbridge\bdc_control.c"
 210  0016  3223        	set [35].4
 211  0017              #line 211 "D:\WORK\Project\Github\Holtel-MCU\Code\HT66FM5440\110V_hbridge\bdc_control.c"
 211  0017  31A2        	set [34].3
 212  0018              #line 212 "D:\WORK\Project\Github\Holtel-MCU\Code\HT66FM5440\110V_hbridge\bdc_control.c"
 212  0018  3222        	set [34].4
 213  0019              #line 213 "D:\WORK\Project\Github\Holtel-MCU\Code\HT66FM5440\110V_hbridge\bdc_control.c"
 213  0019  31A4        	set [36].3
 214  001A              #line 214 "D:\WORK\Project\Github\Holtel-MCU\Code\HT66FM5440\110V_hbridge\bdc_control.c"
 214  001A  3224        	set [36].4
 217  001B              #line 217 "D:\WORK\Project\Github\Holtel-MCU\Code\HT66FM5440\110V_hbridge\bdc_control.c"
 217  001B  36A3        	clr [35].5
 218  001C              #line 218 "D:\WORK\Project\Github\Holtel-MCU\Code\HT66FM5440\110V_hbridge\bdc_control.c"
 218  001C  36A4        	clr [36].5
 218  001D  0003        	ret
 218  001E              _gpio_init endp
 218  001E              #line 218 "D:\WORK\Project\Github\Holtel-MCU\Code\HT66FM5440\110V_hbridge\bdc_control.c"
 218  001E              #pragma debug scope 1 1
 218  001E              ___pc equ [41]
 218  001E              ___pcc equ [42]
 218  001E              ___pwmcs equ [341]
 218  001E              ___dutr0h equ [89]
 218  001E              ___dutr0l equ [88]
 218  001E              ___prdrh equ [95]
 218  001E              ___prdrl equ [94]
 218  001E              ___mcf equ [100]
 218  001E              ___pwmme equ [98]
 218  001E              ___pwmmd equ [99]
 218  001E              ___plc equ [103]
 218  001E              ___mptc1 equ [75]
 218  001E              ___mptc2 equ [76]
 218  001E              ___ocps equ [68]
 218  001E              ___mfi1 equ [26]
 218  001E              public _pwm_init
 218  001E              #pragma debug scope 6 1
"File: bdc_control.c  Assembler  Version HGASM0202      Page 12

 223  001E              #line 223 "D:\WORK\Project\Github\Holtel-MCU\Code\HT66FM5440\110V_hbridge\bdc_control.c"
 223  0000              _pwm_init .section 'code'
 223  0000              _pwm_init proc
 225  0000              #line 225 "D:\WORK\Project\Github\Holtel-MCU\Code\HT66FM5440\110V_hbridge\bdc_control.c"
 225  0000  1F29        	clr [41]
 226  0001              #line 226 "D:\WORK\Project\Github\Holtel-MCU\Code\HT66FM5440\110V_hbridge\bdc_control.c"
 226  0001  1F2A        	clr [42]
 231  0002              #line 231 "D:\WORK\Project\Github\Holtel-MCU\Code\HT66FM5440\110V_hbridge\bdc_control.c"
 231  0002  37D7        	clr [87].7
 232  0003              #line 232 "D:\WORK\Project\Github\Holtel-MCU\Code\HT66FM5440\110V_hbridge\bdc_control.c"
 232  0003  3757        	clr [87].6
 234  0004              #line 234 "D:\WORK\Project\Github\Holtel-MCU\Code\HT66FM5440\110V_hbridge\bdc_control.c"
 234  0004  35D7        	clr [87].3
 235  0005              #line 235 "D:\WORK\Project\Github\Holtel-MCU\Code\HT66FM5440\110V_hbridge\bdc_control.c"
 235  0005  3657        	clr [87].4
 236  0006              #line 236 "D:\WORK\Project\Github\Holtel-MCU\Code\HT66FM5440\110V_hbridge\bdc_control.c"
 236  0006  36D7        	clr [87].5
 237  0007              #line 237 "D:\WORK\Project\Github\Holtel-MCU\Code\HT66FM5440\110V_hbridge\bdc_control.c"
 237  0007  3057        	set [87].0
 240  0008              #line 240 "D:\WORK\Project\Github\Holtel-MCU\Code\HT66FM5440\110V_hbridge\bdc_control.c"
 240  0008  B155 0001   	lset [341].2
 241  000A              #line 241 "D:\WORK\Project\Github\Holtel-MCU\Code\HT66FM5440\110V_hbridge\bdc_control.c"
 241  000A  B0D5 0001   	lset [341].1
 242  000C              #line 242 "D:\WORK\Project\Github\Holtel-MCU\Code\HT66FM5440\110V_hbridge\bdc_control.c"
 242  000C  B055 0001   	lset [341].0
 245  000E              #line 245 "D:\WORK\Project\Github\Holtel-MCU\Code\HT66FM5440\110V_hbridge\bdc_control.c"
 245  000E  1F59        	clr [89]
 246  000F              #line 246 "D:\WORK\Project\Github\Holtel-MCU\Code\HT66FM5440\110V_hbridge\bdc_control.c"
 246  000F  1F58        	clr [88]
 247  0010              #line 247 "D:\WORK\Project\Github\Holtel-MCU\Code\HT66FM5440\110V_hbridge\bdc_control.c"
 247  0010  B155 0001   	lset [341].2
 248  0012              #line 248 "D:\WORK\Project\Github\Holtel-MCU\Code\HT66FM5440\110V_hbridge\bdc_control.c"
 248  0012  0F03        	mov a,3
 248  0013  00DF        	mov [95],a
 249  0014              #line 249 "D:\WORK\Project\Github\Holtel-MCU\Code\HT66FM5440\110V_hbridge\bdc_control.c"
 249  0014  0F20        	mov a,32
 249  0015  00DE        	mov [94],a
 255  0016              #line 255 "D:\WORK\Project\Github\Holtel-MCU\Code\HT66FM5440\110V_hbridge\bdc_control.c"
 255  0016  33E4        	set [100].7
 257  0017              #line 257 "D:\WORK\Project\Github\Holtel-MCU\Code\HT66FM5440\110V_hbridge\bdc_control.c"
 257  0017  35E4        	clr [100].3
 258  0018              #line 258 "D:\WORK\Project\Github\Holtel-MCU\Code\HT66FM5440\110V_hbridge\bdc_control.c"
 258  0018  3164        	set [100].2
 259  0019              #line 259 "D:\WORK\Project\Github\Holtel-MCU\Code\HT66FM5440\110V_hbridge\bdc_control.c"
 259  0019  34E4        	clr [100].1
 260  001A              #line 260 "D:\WORK\Project\Github\Holtel-MCU\Code\HT66FM5440\110V_hbridge\bdc_control.c"
 260  001A  3064        	set [100].0
 263  001B              #line 263 "D:\WORK\Project\Github\Holtel-MCU\Code\HT66FM5440\110V_hbridge\bdc_control.c"
 263  001B  1F62        	clr [98]
 266  001C              #line 266 "D:\WORK\Project\Github\Holtel-MCU\Code\HT66FM5440\110V_hbridge\bdc_control.c"
 266  001C  1F63        	clr [99]
 277  001D              #line 277 "D:\WORK\Project\Github\Holtel-MCU\Code\HT66FM5440\110V_hbridge\bdc_control.c"
 277  001D  1F67        	clr [103]
 281  001E              #line 281 "D:\WORK\Project\Github\Holtel-MCU\Code\HT66FM5440\110V_hbridge\bdc_control.c"
 281  001E  37CB        	clr [75].7
 282  001F              #line 282 "D:\WORK\Project\Github\Holtel-MCU\Code\HT66FM5440\110V_hbridge\bdc_control.c"
 282  001F  364C        	clr [76].4
 283  0020              #line 283 "D:\WORK\Project\Github\Holtel-MCU\Code\HT66FM5440\110V_hbridge\bdc_control.c"
 283  0020  35CC        	clr [76].3
 284  0021              #line 284 "D:\WORK\Project\Github\Holtel-MCU\Code\HT66FM5440\110V_hbridge\bdc_control.c"
"File: bdc_control.c  Assembler  Version HGASM0202      Page 13

 284  0021  354C        	clr [76].2
 285  0022              #line 285 "D:\WORK\Project\Github\Holtel-MCU\Code\HT66FM5440\110V_hbridge\bdc_control.c"
 285  0022  34CC        	clr [76].1
 286  0023              #line 286 "D:\WORK\Project\Github\Holtel-MCU\Code\HT66FM5440\110V_hbridge\bdc_control.c"
 286  0023  344C        	clr [76].0
 288  0024              #line 288 "D:\WORK\Project\Github\Holtel-MCU\Code\HT66FM5440\110V_hbridge\bdc_control.c"
 288  0024  374B        	clr [75].6
 289  0025              #line 289 "D:\WORK\Project\Github\Holtel-MCU\Code\HT66FM5440\110V_hbridge\bdc_control.c"
 289  0025  354B        	clr [75].2
 290  0026              #line 290 "D:\WORK\Project\Github\Holtel-MCU\Code\HT66FM5440\110V_hbridge\bdc_control.c"
 290  0026  35CB        	clr [75].3
 291  0027              #line 291 "D:\WORK\Project\Github\Holtel-MCU\Code\HT66FM5440\110V_hbridge\bdc_control.c"
 291  0027  364B        	clr [75].4
 292  0028              #line 292 "D:\WORK\Project\Github\Holtel-MCU\Code\HT66FM5440\110V_hbridge\bdc_control.c"
 292  0028  36CB        	clr [75].5
 293  0029              #line 293 "D:\WORK\Project\Github\Holtel-MCU\Code\HT66FM5440\110V_hbridge\bdc_control.c"
 293  0029  344B        	clr [75].0
 296  002A              #line 296 "D:\WORK\Project\Github\Holtel-MCU\Code\HT66FM5440\110V_hbridge\bdc_control.c"
 296  002A  354C        	clr [76].2
 299  002B              #line 299 "D:\WORK\Project\Github\Holtel-MCU\Code\HT66FM5440\110V_hbridge\bdc_control.c"
 299  002B  1F44        	clr [68]
 301  002C              #line 301 "D:\WORK\Project\Github\Holtel-MCU\Code\HT66FM5440\110V_hbridge\bdc_control.c"
 301  002C  379A        	clr [26].7
 302  002D              #line 302 "D:\WORK\Project\Github\Holtel-MCU\Code\HT66FM5440\110V_hbridge\bdc_control.c"
 302  002D  3715        	clr [21].6
 303  002E              #line 303 "D:\WORK\Project\Github\Holtel-MCU\Code\HT66FM5440\110V_hbridge\bdc_control.c"
 303  002E  319A        	set [26].3
 304  002F              #line 304 "D:\WORK\Project\Github\Holtel-MCU\Code\HT66FM5440\110V_hbridge\bdc_control.c"
 304  002F  3195        	set [21].3
 304  0030  0003        	ret
 304  0031              _pwm_init endp
 304  0031              #line 304 "D:\WORK\Project\Github\Holtel-MCU\Code\HT66FM5440\110V_hbridge\bdc_control.c"
 304  0031              #pragma debug scope 1 1
 304  0031              ___pcps0 equ [380]
 304  0031              ___pcps1 equ [381]
 304  0031              public _ISR_PWM
 304  0031              #pragma debug scope 7 1
 310  0031              #line 310 "D:\WORK\Project\Github\Holtel-MCU\Code\HT66FM5440\110V_hbridge\bdc_control.c"
 310  0000              @ISR_PWM_code .section at 12 'code'
 310  0000              ifdef INTERRUPT_DELAY
 310  0000  0000        	nop
 310  0001              endif
 310  0001  0080     E  	mov r1,a
 310  0002  070A        	mov a,status
 310  0003              ifndef INTERRUPT_DELAY
 310  0003              	mov r2,a
 310  0003              endif
 310  0003  2800     R  	jmp _ISR_PWM
 310  0004              #pragma debug scope 1 1
 310  0004              @dummy12 endp
 310  0004              #pragma debug scope 8 1
 310  0000              _ISR_PWM .section 'code'
 310  0000              _ISR_PWM proc
 310  0000              ifdef INTERRUPT_DELAY
 310  0000  0080     E  	mov r2,a
 310  0001              endif
 311  0001              #line 311 "D:\WORK\Project\Github\Holtel-MCU\Code\HT66FM5440\110V_hbridge\bdc_control.c"
 311  0001              ;# 311 "D:\WORK\Project\Github\Holtel-MCU\Code\HT66FM5440\110V_hbridge\bdc_control.c" 1
 311  0001  0001        	clr wdt
 312  0002              #line 312 "D:\WORK\Project\Github\Holtel-MCU\Code\HT66FM5440\110V_hbridge\bdc_control.c"
"File: bdc_control.c  Assembler  Version HGASM0202      Page 14

 312  0002  379A        	clr [26].7
 313  0003              #line 313 "D:\WORK\Project\Github\Holtel-MCU\Code\HT66FM5440\110V_hbridge\bdc_control.c"
 313  0003  3715        	clr [21].6
 313  0004              #pragma debug scope 9 8
 313  0004              ;begin block, line: 313.-1
 315  0004              #line 315 "D:\WORK\Project\Github\Holtel-MCU\Code\HT66FM5440\110V_hbridge\bdc_control.c"
 315  0004  0700     R  	mov a,_pwmduty_now[0]
 315  0005  0080     E  	mov ra,a
 315  0006  0700     R  	mov a,_pwmduty_now[1]
 315  0007  0080     E  	mov rb,a
 315  0008  0700     E  	mov a,rb
 315  0009  0080     E  	mov ra,a
 315  000A  1F00     E  	clr rb
 315  000B  0700     E  	mov a,ra
 315  000C  00D9        	mov [89],a
 315  000D  0700     R  	mov a,_pwmduty_now[0]
 315  000E  0080     E  	mov ra,a
 315  000F  0700     R  	mov a,_pwmduty_now[1]
 315  0010  0080     E  	mov rb,a
 315  0011  0700     E  	mov a,ra
 315  0012  00D8        	mov [88],a
 315  0013  0F01        	mov a,1
 315  0014  0080     E  	mov ra,a
 315  0015  0F01        	mov a,1
 315  0016  0680     E  	andm a,ra
 315  0017  0700     E  	mov a,ra
 315  0018  0380     E  	addm a,ra
 315  0019  0700     E  	mov a,ra
 315  001A  0380     E  	addm a,ra
 315  001B  B555 0001   	lclr [341].2
 315  001D  0700     E  	mov a,ra
 315  001E  85D5 0001   	lorm a,[341]
 315  0020              #pragma debug scope 8 1
 316  0020              #line 316 "D:\WORK\Project\Github\Holtel-MCU\Code\HT66FM5440\110V_hbridge\bdc_control.c"
 316  0020  0700     R  	mov a,_motor_state[0]
 316  0021  0080     E  	mov ra,a
 316  0022  1F00     E  	clr rb
 316  0023  0700     E  	mov a,ra
 316  0024  0500     E  	or a,rb
 316  0025  3D0A        	sz z
 316  0026  2800     R  	jmp _L34
 316  0027              #line 316 "D:\WORK\Project\Github\Holtel-MCU\Code\HT66FM5440\110V_hbridge\bdc_control.c"
 316  0027  0700     E  	mov a,ra
 316  0028  0C01        	xor a,1
 316  0029  0500     E  	or a,rb
 316  002A  3D0A        	sz z
 316  002B  2800     R  	jmp _L35
 316  002C  0700     E  	mov a,ra
 316  002D  0C02        	xor a,2
 316  002E  0500     E  	or a,rb
 316  002F  3D0A        	sz z
 316  0030  2800     R  	jmp _L39
 316  0031  0700     E  	mov a,ra
 316  0032  0C03        	xor a,3
 316  0033  0500     E  	or a,rb
 316  0034  3D0A        	sz z
 316  0035  2800     R  	jmp _L37
 316  0036  0700     E  	mov a,ra
 316  0037  0C04        	xor a,4
 316  0038  0500     E  	or a,rb
"File: bdc_control.c  Assembler  Version HGASM0202      Page 15

 316  0039  3D0A        	sz z
 316  003A  2800     R  	jmp _L38
 316  003B  2800     R  	jmp _L32
 316  003C              _L34:
 316  003C              #pragma debug scope 10 8
 316  003C              ;begin block, line: 316.-1
 319  003C              #line 319 "D:\WORK\Project\Github\Holtel-MCU\Code\HT66FM5440\110V_hbridge\bdc_control.c"
 319  003C  1F29        	clr [41]
 319  003D  9F7C 0001   	lclr [380]
 319  003F  1F00     E  	clr ra
 319  0040  0700     E  	mov a,ra
 319  0041  80FD 0001   	lmov [381],a
 319  0043              #pragma debug scope 8 1
 323  0043              #line 323 "D:\WORK\Project\Github\Holtel-MCU\Code\HT66FM5440\110V_hbridge\bdc_control.c"
 323  0043  2800     R  	jmp _L32
 323  0044              _L35:
 323  0044              #pragma debug scope 11 8
 323  0044              ;begin block, line: 323.-1
 325  0044              #line 325 "D:\WORK\Project\Github\Holtel-MCU\Code\HT66FM5440\110V_hbridge\bdc_control.c"
 325  0044  0F28        	mov a,40
 325  0045  00A9        	mov [41],a
 325  0046  9F7C 0001   	lclr [380]
 325  0048  1F00     E  	clr ra
 325  0049  0700     E  	mov a,ra
 325  004A  80FD 0001   	lmov [381],a
 325  004C              #pragma debug scope 8 1
 329  004C              #line 329 "D:\WORK\Project\Github\Holtel-MCU\Code\HT66FM5440\110V_hbridge\bdc_control.c"
 329  004C  2800     R  	jmp _L32
 329  004D              _L37:
 329  004D              #pragma debug scope 12 8
 329  004D              ;begin block, line: 329.-1
 333  004D              #line 333 "D:\WORK\Project\Github\Holtel-MCU\Code\HT66FM5440\110V_hbridge\bdc_control.c"
 333  004D  0F20        	mov a,32
 333  004E  00A9        	mov [41],a
 333  004F  0FA0        	mov a,160
 333  0050  80FC 0001   	lmov [380],a
 333  0052  1F00     E  	clr ra
 333  0053  0700     E  	mov a,ra
 333  0054  80FD 0001   	lmov [381],a
 333  0056              #pragma debug scope 8 1
 337  0056              #line 337 "D:\WORK\Project\Github\Holtel-MCU\Code\HT66FM5440\110V_hbridge\bdc_control.c"
 337  0056  2800     R  	jmp _L32
 337  0057              _L38:
 337  0057              #pragma debug scope 13 8
 337  0057              ;begin block, line: 337.-1
 339  0057              #line 339 "D:\WORK\Project\Github\Holtel-MCU\Code\HT66FM5440\110V_hbridge\bdc_control.c"
 339  0057  0F08        	mov a,8
 339  0058  00A9        	mov [41],a
 339  0059  9F7C 0001   	lclr [380]
 339  005B  0F0A        	mov a,10
 339  005C  0080     E  	mov ra,a
 339  005D  0700     E  	mov a,ra
 339  005E  80FD 0001   	lmov [381],a
 339  0060              #pragma debug scope 8 1
 343  0060              #line 343 "D:\WORK\Project\Github\Holtel-MCU\Code\HT66FM5440\110V_hbridge\bdc_control.c"
 343  0060              	;nop
 343  0060  2800     R  	jmp _L32
 343  0061              _L39:
 331  0061              #line 331 "D:\WORK\Project\Github\Holtel-MCU\Code\HT66FM5440\110V_hbridge\bdc_control.c"
 331  0061              	;nop
"File: bdc_control.c  Assembler  Version HGASM0202      Page 16

 331  0061              _L32:
 331  0061  0700     E  	mov a,r2
 331  0062  008A        	mov status,a
 331  0063  0700     E  	mov a,r1
 331  0064  0004        	reti
 331  0065              _ISR_PWM endp
 331  0065              
 331  0065              #line 331 "D:\WORK\Project\Github\Holtel-MCU\Code\HT66FM5440\110V_hbridge\bdc_control.c"
 331  0065              #pragma debug scope 1 1
 331  0065              ___paps1 equ [379]
 331  0065              ___adcr0 equ [56]
 331  0065              ___adcr1 equ [57]
 331  0065              ___adcr2 equ [58]
 331  0065              ___adcr3 equ [324]
 331  0065              ___addl equ [61]
 331  0065              ___adbyps equ [321]
 331  0065              ___mfi2 equ [27]
 331  0065              public _adc_init
 331  0065              #pragma debug scope 14 1
 348  0065              #line 348 "D:\WORK\Project\Github\Holtel-MCU\Code\HT66FM5440\110V_hbridge\bdc_control.c"
 348  0000              _adc_init .section 'code'
 348  0000              _adc_init proc
 348  0000  00              local _adc_init_2 db 1 dup(?)	; 0,1
 348  0000  0080     R  	mov _adc_init_2[0],a
 348  0001              #pragma debug variable 8 14 _adc_init_2+0 "res"
 349  0001              #line 349 "D:\WORK\Project\Github\Holtel-MCU\Code\HT66FM5440\110V_hbridge\bdc_control.c"
 349  0001  B7FB 0001   	lclr [379].7
 350  0003              #line 350 "D:\WORK\Project\Github\Holtel-MCU\Code\HT66FM5440\110V_hbridge\bdc_control.c"
 350  0003  B37B 0001   	lset [379].6
 352  0005              #line 352 "D:\WORK\Project\Github\Holtel-MCU\Code\HT66FM5440\110V_hbridge\bdc_control.c"
 352  0005  B4FE 0001   	lclr [382].1
 353  0007              #line 353 "D:\WORK\Project\Github\Holtel-MCU\Code\HT66FM5440\110V_hbridge\bdc_control.c"
 353  0007  B07E 0001   	lset [382].0
 355  0009              #line 355 "D:\WORK\Project\Github\Holtel-MCU\Code\HT66FM5440\110V_hbridge\bdc_control.c"
 355  0009  B2FB 0001   	lset [379].5
 356  000B              #line 356 "D:\WORK\Project\Github\Holtel-MCU\Code\HT66FM5440\110V_hbridge\bdc_control.c"
 356  000B  B67B 0001   	lclr [379].4
 360  000D              #line 360 "D:\WORK\Project\Github\Holtel-MCU\Code\HT66FM5440\110V_hbridge\bdc_control.c"
 360  000D  3238        	set [56].4
 366  000E              #line 366 "D:\WORK\Project\Github\Holtel-MCU\Code\HT66FM5440\110V_hbridge\bdc_control.c"
 366  000E  36B8        	clr [56].5
 368  000F              #line 368 "D:\WORK\Project\Github\Holtel-MCU\Code\HT66FM5440\110V_hbridge\bdc_control.c"
 368  000F  35B8        	clr [56].3
 369  0010              #line 369 "D:\WORK\Project\Github\Holtel-MCU\Code\HT66FM5440\110V_hbridge\bdc_control.c"
 369  0010  3538        	clr [56].2
 370  0011              #line 370 "D:\WORK\Project\Github\Holtel-MCU\Code\HT66FM5440\110V_hbridge\bdc_control.c"
 370  0011  34B8        	clr [56].1
 371  0012              #line 371 "D:\WORK\Project\Github\Holtel-MCU\Code\HT66FM5440\110V_hbridge\bdc_control.c"
 371  0012  3438        	clr [56].0
 374  0013              #line 374 "D:\WORK\Project\Github\Holtel-MCU\Code\HT66FM5440\110V_hbridge\bdc_control.c"
 374  0013  3739        	clr [57].6
 375  0014              #line 375 "D:\WORK\Project\Github\Holtel-MCU\Code\HT66FM5440\110V_hbridge\bdc_control.c"
 375  0014  32B9        	set [57].5
 376  0015              #line 376 "D:\WORK\Project\Github\Holtel-MCU\Code\HT66FM5440\110V_hbridge\bdc_control.c"
 376  0015  3239        	set [57].4
 377  0016              #line 377 "D:\WORK\Project\Github\Holtel-MCU\Code\HT66FM5440\110V_hbridge\bdc_control.c"
 377  0016  35B9        	clr [57].3
 380  0017              #line 380 "D:\WORK\Project\Github\Holtel-MCU\Code\HT66FM5440\110V_hbridge\bdc_control.c"
 380  0017  3539        	clr [57].2
 381  0018              #line 381 "D:\WORK\Project\Github\Holtel-MCU\Code\HT66FM5440\110V_hbridge\bdc_control.c"
"File: bdc_control.c  Assembler  Version HGASM0202      Page 17

 381  0018  30B9        	set [57].1
 382  0019              #line 382 "D:\WORK\Project\Github\Holtel-MCU\Code\HT66FM5440\110V_hbridge\bdc_control.c"
 382  0019  3439        	clr [57].0
 385  001A              #line 385 "D:\WORK\Project\Github\Holtel-MCU\Code\HT66FM5440\110V_hbridge\bdc_control.c"
 385  001A  0700     R  	mov a,_adc_init_2[0]
 385  001B  0E01        	and a,1
 385  001C  0080     E  	mov ra,a
 385  001D  0F01        	mov a,1
 385  001E  0680     E  	andm a,ra
 385  001F  1900     E  	rra ra
 385  0020  1985        	rr acc
 385  0021  0EC0        	and a,0c0h
 385  0022  0080     E  	mov ra,a
 385  0023  373A        	clr [58].6
 385  0024  0700     E  	mov a,ra
 385  0025  05BA        	orm a,[58]
 386  0026              #line 386 "D:\WORK\Project\Github\Holtel-MCU\Code\HT66FM5440\110V_hbridge\bdc_control.c"
 386  0026  36BA        	clr [58].5
 387  0027              #line 387 "D:\WORK\Project\Github\Holtel-MCU\Code\HT66FM5440\110V_hbridge\bdc_control.c"
 387  0027  363A        	clr [58].4
 390  0028              #line 390 "D:\WORK\Project\Github\Holtel-MCU\Code\HT66FM5440\110V_hbridge\bdc_control.c"
 390  0028  B044 0001   	lset [324].0
 393  002A              #line 393 "D:\WORK\Project\Github\Holtel-MCU\Code\HT66FM5440\110V_hbridge\bdc_control.c"
 393  002A  1F3D        	clr [61]
 395  002B              #line 395 "D:\WORK\Project\Github\Holtel-MCU\Code\HT66FM5440\110V_hbridge\bdc_control.c"
 395  002B  B3C1 0001   	lset [321].7
 398  002D              #line 398 "D:\WORK\Project\Github\Holtel-MCU\Code\HT66FM5440\110V_hbridge\bdc_control.c"
 398  002D  361B        	clr [27].4
 399  002E              #line 399 "D:\WORK\Project\Github\Holtel-MCU\Code\HT66FM5440\110V_hbridge\bdc_control.c"
 399  002E  341B        	clr [27].0
 399  002F  0003        	ret
 399  0030              _adc_init endp
 399  0030              #line 399 "D:\WORK\Project\Github\Holtel-MCU\Code\HT66FM5440\110V_hbridge\bdc_control.c"
 399  0030              #pragma debug scope 1 1
 399  0030              ___pbps1 equ [67]
 399  0030              ___ucr1 equ [110]
 399  0030              ___ucr2 equ [111]
 399  0030              ___brg equ [112]
 399  0030              ___mfi7 equ [32]
 399  0030              ___intc3 equ [24]
 399  0030              public _uart_init
 399  0030              #pragma debug scope 15 1
 403  0030              #line 403 "D:\WORK\Project\Github\Holtel-MCU\Code\HT66FM5440\110V_hbridge\bdc_control.c"
 403  0000              _uart_init .section 'code'
 403  0000              _uart_init proc
 403  0000  00              local _uart_init_2 db 1 dup(?)	; 0,1
 403  0001              #pragma debug variable 8 15 _uart_init_2+0 "i"
 406  0001              #line 406 "D:\WORK\Project\Github\Holtel-MCU\Code\HT66FM5440\110V_hbridge\bdc_control.c"
 406  0000  3243        	set [67].4
 407  0001              #line 407 "D:\WORK\Project\Github\Holtel-MCU\Code\HT66FM5440\110V_hbridge\bdc_control.c"
 407  0001  36C3        	clr [67].5
 408  0002              #line 408 "D:\WORK\Project\Github\Holtel-MCU\Code\HT66FM5440\110V_hbridge\bdc_control.c"
 408  0002  3343        	set [67].6
 409  0003              #line 409 "D:\WORK\Project\Github\Holtel-MCU\Code\HT66FM5440\110V_hbridge\bdc_control.c"
 409  0003  37C3        	clr [67].7
 411  0004              #line 411 "D:\WORK\Project\Github\Holtel-MCU\Code\HT66FM5440\110V_hbridge\bdc_control.c"
 411  0004  0F80        	mov a,128
 411  0005  00EE        	mov [110],a
 412  0006              #line 412 "D:\WORK\Project\Github\Holtel-MCU\Code\HT66FM5440\110V_hbridge\bdc_control.c"
 412  0006  0FE4        	mov a,228
"File: bdc_control.c  Assembler  Version HGASM0202      Page 18

 412  0007  00EF        	mov [111],a
 413  0008              #line 413 "D:\WORK\Project\Github\Holtel-MCU\Code\HT66FM5440\110V_hbridge\bdc_control.c"
 413  0008  0F67        	mov a,103
 413  0009  00F0        	mov [112],a
 415  000A              #line 415 "D:\WORK\Project\Github\Holtel-MCU\Code\HT66FM5440\110V_hbridge\bdc_control.c"
 415  000A  36A0        	clr [32].5
 416  000B              #line 416 "D:\WORK\Project\Github\Holtel-MCU\Code\HT66FM5440\110V_hbridge\bdc_control.c"
 416  000B  30A0        	set [32].1
 418  000C              #line 418 "D:\WORK\Project\Github\Holtel-MCU\Code\HT66FM5440\110V_hbridge\bdc_control.c"
 418  000C  3798        	clr [24].7
 419  000D              #line 419 "D:\WORK\Project\Github\Holtel-MCU\Code\HT66FM5440\110V_hbridge\bdc_control.c"
 419  000D  3198        	set [24].3
 421  000E              #line 421 "D:\WORK\Project\Github\Holtel-MCU\Code\HT66FM5440\110V_hbridge\bdc_control.c"
 421  000E  1F00     R  	clr _rxcnt[0]
 422  000F              #line 422 "D:\WORK\Project\Github\Holtel-MCU\Code\HT66FM5440\110V_hbridge\bdc_control.c"
 422  000F  1F00     R  	clr _uart_init_2[0]
 422  0010  2800     R  	jmp _L42
 422  0011              _L43:
 424  0011              #line 424 "D:\WORK\Project\Github\Holtel-MCU\Code\HT66FM5440\110V_hbridge\bdc_control.c"
 424  0011  0700     R  	mov a,_uart_init_2[0]
 424  0012  0080     E  	mov ra,a
 424  0013  1F00     E  	clr rb
 424  0014  0F00     R  	mov a,low offset _rxbuff
 424  0015  0380     E  	addm a,ra
 424  0016  0F00     R  	mov a,high offset _rxbuff
 424  0017  1380     E  	adcm a,rb
 424  0018  0700     E  	mov a,ra
 424  0019  0083        	mov mp,a
 424  001A  0700     E  	mov a,rb
 424  001B  0084        	mov sbp,a
 424  001C  0F00        	mov a,0
 424  001D  0082        	mov ir,a
 422  001E              #line 422 "D:\WORK\Project\Github\Holtel-MCU\Code\HT66FM5440\110V_hbridge\bdc_control.c"
 422  001E  0700     R  	mov a,_uart_init_2[0]
 422  001F  0080     E  	mov ra,a
 422  0020  1400     E  	inca ra
 422  0021  0080     R  	mov _uart_init_2[0],a
 422  0022              _L42:
 422  0022  0F05        	mov a,5
 422  0023  0200     R  	sub a,_uart_init_2[0]
 422  0024  3C0A        	sz c
 422  0025  2800     R  	jmp _L43
 422  0026  0003        	ret
 422  0027              _uart_init endp
 422  0027              #line 422 "D:\WORK\Project\Github\Holtel-MCU\Code\HT66FM5440\110V_hbridge\bdc_control.c"
 422  0027              #pragma debug scope 1 1
 422  0027              ___tbc equ [275]
 422  0027              public _timeBase_init
 422  0027              #pragma debug scope 16 1
 429  0027              #line 429 "D:\WORK\Project\Github\Holtel-MCU\Code\HT66FM5440\110V_hbridge\bdc_control.c"
 429  0000              _timeBase_init .section 'code'
 429  0000              _timeBase_init proc
 430  0000              #line 430 "D:\WORK\Project\Github\Holtel-MCU\Code\HT66FM5440\110V_hbridge\bdc_control.c"
 430  0000  0FC0        	mov a,192
 430  0001  8093 0001   	lmov [275],a
 431  0003              #line 431 "D:\WORK\Project\Github\Holtel-MCU\Code\HT66FM5440\110V_hbridge\bdc_control.c"
 431  0003  31A0        	set [32].3
 432  0004              #line 432 "D:\WORK\Project\Github\Holtel-MCU\Code\HT66FM5440\110V_hbridge\bdc_control.c"
 432  0004  37A0        	clr [32].7
 433  0005              #line 433 "D:\WORK\Project\Github\Holtel-MCU\Code\HT66FM5440\110V_hbridge\bdc_control.c"
"File: bdc_control.c  Assembler  Version HGASM0202      Page 19

 433  0005  3198        	set [24].3
 434  0006              #line 434 "D:\WORK\Project\Github\Holtel-MCU\Code\HT66FM5440\110V_hbridge\bdc_control.c"
 434  0006  3798        	clr [24].7
 434  0007  0003        	ret
 434  0008              _timeBase_init endp
 434  0008              #line 434 "D:\WORK\Project\Github\Holtel-MCU\Code\HT66FM5440\110V_hbridge\bdc_control.c"
 434  0008              #pragma debug scope 1 1
 434  0008              ___usr equ [109]
 434  0008              ___txr_rxr equ [113]
 434  0008              public _ISR_TimeBase_Uart
 434  0008              #pragma debug scope 17 1
 438  0008              #line 438 "D:\WORK\Project\Github\Holtel-MCU\Code\HT66FM5440\110V_hbridge\bdc_control.c"
 438  0000              @ISR_TimeBase_Uart_code .section at 60 'code'
 438  0000              ifdef INTERRUPT_DELAY
 438  0000  0000        	nop
 438  0001              endif
 438  0001  0080     E  	mov r1,a
 438  0002  070A        	mov a,status
 438  0003              ifndef INTERRUPT_DELAY
 438  0003              	mov r2,a
 438  0003              endif
 438  0003  2800     R  	jmp _ISR_TimeBase_Uart
 438  0004              #pragma debug scope 1 1
 438  0004              @dummy60 endp
 438  0004              #pragma debug scope 18 1
 438  0000              _ISR_TimeBase_Uart .section 'code'
 438  0000              _ISR_TimeBase_Uart proc
 438  0000  00          local _ISR_TimeBase_Uart_2 db 1 dup(?)
 438  0000              ifdef INTERRUPT_DELAY
 438  0000  0080     E  	mov r2,a
 438  0001              endif
 438  0001  0703        	mov a,mp
 438  0002  0080     E  	mov r3,a
 438  0003  0704        	mov a,sbp
 438  0004  0080     E  	mov r4,a
 438  0005              #pragma debug variable 8 18 _ISR_TimeBase_Uart_2+0 "i"
 442  0005              #line 442 "D:\WORK\Project\Github\Holtel-MCU\Code\HT66FM5440\110V_hbridge\bdc_control.c"
 442  0005              ;# 442 "D:\WORK\Project\Github\Holtel-MCU\Code\HT66FM5440\110V_hbridge\bdc_control.c" 1
 442  0005  0001        	clr wdt
 444  0006              #line 444 "D:\WORK\Project\Github\Holtel-MCU\Code\HT66FM5440\110V_hbridge\bdc_control.c"
 444  0006  3798        	clr [24].7
 446  0007              #line 446 "D:\WORK\Project\Github\Holtel-MCU\Code\HT66FM5440\110V_hbridge\bdc_control.c"
 446  0007  0720        	mov a,[32]
 446  0008  0080     E  	mov ra,a
 446  0009  0F20        	mov a,32
 446  000A  0680     E  	andm a,ra
 446  000B  1E00     E  	snz ra
 446  000C  2800     R  	jmp _L46
 448  000D              #line 448 "D:\WORK\Project\Github\Holtel-MCU\Code\HT66FM5440\110V_hbridge\bdc_control.c"
 448  000D  36A0        	clr [32].5
 450  000E              #line 450 "D:\WORK\Project\Github\Holtel-MCU\Code\HT66FM5440\110V_hbridge\bdc_control.c"
 450  000E  076D        	mov a,[109]
 450  000F  0080     E  	mov ra,a
 450  0010  0F04        	mov a,4
 450  0011  0680     E  	andm a,ra
 450  0012  1E00     E  	snz ra
 450  0013  2800     R  	jmp _L46
 452  0014              #line 452 "D:\WORK\Project\Github\Holtel-MCU\Code\HT66FM5440\110V_hbridge\bdc_control.c"
 452  0014  0771        	mov a,[113]
 452  0015  0080     E  	mov ra,a
"File: bdc_control.c  Assembler  Version HGASM0202      Page 20

 452  0016  0700     E  	mov a,ra
 452  0017  0A23        	sub a,35
 452  0018  390A        	snz z
 452  0019  2800     R  	jmp _L47
 454  001A              #line 454 "D:\WORK\Project\Github\Holtel-MCU\Code\HT66FM5440\110V_hbridge\bdc_control.c"
 454  001A  1F00     R  	clr _rxcnt[0]
 455  001B              #line 455 "D:\WORK\Project\Github\Holtel-MCU\Code\HT66FM5440\110V_hbridge\bdc_control.c"
 455  001B  1F00     R  	clr _ISR_TimeBase_Uart_2[0]
 455  001C  2800     R  	jmp _L48
 455  001D              _L49:
 457  001D              #line 457 "D:\WORK\Project\Github\Holtel-MCU\Code\HT66FM5440\110V_hbridge\bdc_control.c"
 457  001D  0700     R  	mov a,_ISR_TimeBase_Uart_2[0]
 457  001E  0080     E  	mov ra,a
 457  001F  1F00     E  	clr rb
 457  0020  0F00     R  	mov a,low offset _rxbuff
 457  0021  0380     E  	addm a,ra
 457  0022  0F00     R  	mov a,high offset _rxbuff
 457  0023  1380     E  	adcm a,rb
 457  0024  0700     E  	mov a,ra
 457  0025  0083        	mov mp,a
 457  0026  0700     E  	mov a,rb
 457  0027  0084        	mov sbp,a
 457  0028  0F00        	mov a,0
 457  0029  0082        	mov ir,a
 455  002A              #line 455 "D:\WORK\Project\Github\Holtel-MCU\Code\HT66FM5440\110V_hbridge\bdc_control.c"
 455  002A  0700     R  	mov a,_ISR_TimeBase_Uart_2[0]
 455  002B  0080     E  	mov ra,a
 455  002C  1400     E  	inca ra
 455  002D  0080     R  	mov _ISR_TimeBase_Uart_2[0],a
 455  002E              _L48:
 455  002E  0F05        	mov a,5
 455  002F  0200     R  	sub a,_ISR_TimeBase_Uart_2[0]
 455  0030  3C0A        	sz c
 455  0031  2800     R  	jmp _L49
 455  0032  2800     R  	jmp _L46
 455  0033              _L47:
 460  0033              #line 460 "D:\WORK\Project\Github\Holtel-MCU\Code\HT66FM5440\110V_hbridge\bdc_control.c"
 460  0033  0700     R  	mov a,_rxcnt[0]
 460  0034  0080     E  	mov ra,a
 460  0035  0F05        	mov a,5
 460  0036  0200     E  	sub a,ra
 460  0037  380A        	snz c
 460  0038  2800     R  	jmp _L46
 462  0039              #line 462 "D:\WORK\Project\Github\Holtel-MCU\Code\HT66FM5440\110V_hbridge\bdc_control.c"
 462  0039  0700     R  	mov a,_rxcnt[0]
 462  003A  0080     E  	mov ra,a
 462  003B  1F00     E  	clr rb
 462  003C  0771        	mov a,[113]
 462  003D  0080     E  	mov rc,a
 462  003E  0F00     R  	mov a,low offset _rxbuff
 462  003F  0380     E  	addm a,ra
 462  0040  0F00     R  	mov a,high offset _rxbuff
 462  0041  1380     E  	adcm a,rb
 462  0042  0700     E  	mov a,ra
 462  0043  0083        	mov mp,a
 462  0044  0700     E  	mov a,rb
 462  0045  0084        	mov sbp,a
 462  0046  0700     E  	mov a,rc
 462  0047  0082        	mov ir,a
 463  0048              #line 463 "D:\WORK\Project\Github\Holtel-MCU\Code\HT66FM5440\110V_hbridge\bdc_control.c"
"File: bdc_control.c  Assembler  Version HGASM0202      Page 21

 463  0048  0700     R  	mov a,_rxcnt[0]
 463  0049  0080     E  	mov ra,a
 463  004A  1480     E  	inc ra
 463  004B  0700     E  	mov a,ra
 463  004C  0080     R  	mov _rxcnt[0],a
 463  004D              _L46:
 468  004D              #line 468 "D:\WORK\Project\Github\Holtel-MCU\Code\HT66FM5440\110V_hbridge\bdc_control.c"
 468  004D  0720        	mov a,[32]
 468  004E  0080     E  	mov ra,a
 468  004F  0F80        	mov a,128
 468  0050  0680     E  	andm a,ra
 468  0051  1E00     E  	snz ra
 468  0052  2800     R  	jmp _L45
 470  0053              #line 470 "D:\WORK\Project\Github\Holtel-MCU\Code\HT66FM5440\110V_hbridge\bdc_control.c"
 470  0053  0700     R  	mov a,___cnt_10ms_2768[0]
 470  0054  0080     E  	mov ra,a
 470  0055  1480     E  	inc ra
 470  0056  0700     E  	mov a,ra
 470  0057  0080     R  	mov ___cnt_10ms_2768[0],a
 470  0058  0700     R  	mov a,___cnt_10ms_2768[0]
 470  0059  0080     E  	mov ra,a
 470  005A  0F0A        	mov a,10
 470  005B  0200     E  	sub a,ra
 470  005C  3C0A        	sz c
 470  005D  2800     R  	jmp _L51
 472  005E              #line 472 "D:\WORK\Project\Github\Holtel-MCU\Code\HT66FM5440\110V_hbridge\bdc_control.c"
 472  005E  1F00     R  	clr ___cnt_10ms_2768[0]
 473  005F              #line 473 "D:\WORK\Project\Github\Holtel-MCU\Code\HT66FM5440\110V_hbridge\bdc_control.c"
 473  005F  3000     R  	set _f_10ms
 473  0060              _L51:
 476  0060              #line 476 "D:\WORK\Project\Github\Holtel-MCU\Code\HT66FM5440\110V_hbridge\bdc_control.c"
 476  0060  0700     R  	mov a,___cnt_200ms_2769[0]
 476  0061  0080     E  	mov ra,a
 476  0062  1480     E  	inc ra
 476  0063  0700     E  	mov a,ra
 476  0064  0080     R  	mov ___cnt_200ms_2769[0],a
 476  0065  0700     R  	mov a,___cnt_200ms_2769[0]
 476  0066  0080     E  	mov ra,a
 476  0067  0FC8        	mov a,200
 476  0068  0200     E  	sub a,ra
 476  0069  3C0A        	sz c
 476  006A  2800     R  	jmp _L52
 478  006B              #line 478 "D:\WORK\Project\Github\Holtel-MCU\Code\HT66FM5440\110V_hbridge\bdc_control.c"
 478  006B  1F00     R  	clr ___cnt_200ms_2769[0]
 479  006C              #line 479 "D:\WORK\Project\Github\Holtel-MCU\Code\HT66FM5440\110V_hbridge\bdc_control.c"
 479  006C  3000     R  	set _f_200ms
 479  006D              _L52:
 482  006D              #line 482 "D:\WORK\Project\Github\Holtel-MCU\Code\HT66FM5440\110V_hbridge\bdc_control.c"
 482  006D  37A0        	clr [32].7
 482  006E              _L45:
 482  006E  0700     E  	mov a,r2
 482  006F  008A        	mov status,a
 482  0070  0700     E  	mov a,r3
 482  0071  0083        	mov mp,a
 482  0072  0700     E  	mov a,r4
 482  0073  0084        	mov sbp,a
 482  0074  0700     E  	mov a,r1
 482  0075  0004        	reti
 482  0076              _ISR_TimeBase_Uart endp
 482  0076              
"File: bdc_control.c  Assembler  Version HGASM0202      Page 22

 482  0076              #line 482 "D:\WORK\Project\Github\Holtel-MCU\Code\HT66FM5440\110V_hbridge\bdc_control.c"
 482  0076              #pragma debug scope 1 1
 482  0076              public _ua_outchar
 482  0076              #pragma debug scope 19 1
 516  0076              #line 516 "D:\WORK\Project\Github\Holtel-MCU\Code\HT66FM5440\110V_hbridge\bdc_control.c"
 516  0000              _ua_outchar .section 'code'
 516  0000              _ua_outchar proc
 516  0000  0002[           local _ua_outchar_2 db 2 dup(?)	; 0,2
            00
            ]
 516  0000  0080     R  	mov _ua_outchar_2[1],a
 516  0001              #pragma debug variable 7 19 _ua_outchar_2+1 "c"
 516  0001              #pragma debug variable 8 19 _ua_outchar_2+0 "errcnt"
 517  0001              #line 517 "D:\WORK\Project\Github\Holtel-MCU\Code\HT66FM5440\110V_hbridge\bdc_control.c"
 517  0001  1F00     R  	clr _ua_outchar_2[0]
 517  0002              _L58:
 521  0002              #line 521 "D:\WORK\Project\Github\Holtel-MCU\Code\HT66FM5440\110V_hbridge\bdc_control.c"
 521  0002  0700     R  	mov a,_ua_outchar_2[0]
 521  0003  0080     E  	mov ra,a
 521  0004  1400     E  	inca ra
 521  0005  0080     R  	mov _ua_outchar_2[0],a
 521  0006  1600     E  	siza ra
 521  0007  2800     R  	jmp _L54
 522  0008              #line 522 "D:\WORK\Project\Github\Holtel-MCU\Code\HT66FM5440\110V_hbridge\bdc_control.c"
 522  0008  0F01        	mov a,1
 522  0009  0080     E  	mov ra,a
 522  000A  2800     R  	jmp _L55
 522  000B              _L54:
 524  000B              #line 524 "D:\WORK\Project\Github\Holtel-MCU\Code\HT66FM5440\110V_hbridge\bdc_control.c"
 524  000B  076D        	mov a,[109]
 524  000C  0080     E  	mov ra,a
 524  000D  0F01        	mov a,1
 524  000E  0680     E  	andm a,ra
 524  000F  1E00     E  	snz ra
 524  0010  2800     R  	jmp _L56
 525  0011              #line 525 "D:\WORK\Project\Github\Holtel-MCU\Code\HT66FM5440\110V_hbridge\bdc_control.c"
 525  0011              	;nop
 530  0011              #line 530 "D:\WORK\Project\Github\Holtel-MCU\Code\HT66FM5440\110V_hbridge\bdc_control.c"
 530  0011  0700     R  	mov a,_ua_outchar_2[1]
 530  0012  0080     E  	mov ra,a
 530  0013  0700     E  	mov a,ra
 530  0014  00F1        	mov [113],a
 531  0015              #line 531 "D:\WORK\Project\Github\Holtel-MCU\Code\HT66FM5440\110V_hbridge\bdc_control.c"
 531  0015  1F00     E  	clr ra
 531  0016  2800     R  	jmp _L55
 531  0017              _L56:
 527  0017              #line 527 "D:\WORK\Project\Github\Holtel-MCU\Code\HT66FM5440\110V_hbridge\bdc_control.c"
 527  0017              ;# 527 "D:\WORK\Project\Github\Holtel-MCU\Code\HT66FM5440\110V_hbridge\bdc_control.c" 1
 527  0017  0001        	clr wdt
 528  0018              #line 528 "D:\WORK\Project\Github\Holtel-MCU\Code\HT66FM5440\110V_hbridge\bdc_control.c"
 528  0018  2800     R  	jmp _L58
 528  0019              _L55:
 532  0019              #line 532 "D:\WORK\Project\Github\Holtel-MCU\Code\HT66FM5440\110V_hbridge\bdc_control.c"
 532  0019  0700     E  	mov a,ra
 532  001A  0003        	ret
 532  001B              _ua_outchar endp
 532  001B              #line 532 "D:\WORK\Project\Github\Holtel-MCU\Code\HT66FM5440\110V_hbridge\bdc_control.c"
 532  001B              #pragma debug scope 1 1
 532  001B              public _print_byte
 532  001B              #pragma debug scope 20 1
"File: bdc_control.c  Assembler  Version HGASM0202      Page 23

 535  001B              #line 535 "D:\WORK\Project\Github\Holtel-MCU\Code\HT66FM5440\110V_hbridge\bdc_control.c"
 535  0000              _print_byte .section 'code'
 535  0000              _print_byte proc
 535  0000  00              local _print_byte_2 db 1 dup(?)	; 0,1
 535  0000  0080     R  	mov _print_byte_2[0],a
 535  0001              #pragma debug variable 8 20 _print_byte_2+0 "b"
 536  0001              #line 536 "D:\WORK\Project\Github\Holtel-MCU\Code\HT66FM5440\110V_hbridge\bdc_control.c"
 536  0001  1100     R  	swapa _print_byte_2[0]
 536  0002  0E0F        	and a,0fh
 536  0003  0080     E  	mov ra,a
 536  0004  1F00     E  	clr rb
 536  0005  0F00     R  	mov a,low offset _ascii
 536  0006  0380     E  	addm a,ra
 536  0007  0F00     R  	mov a,high offset _ascii
 536  0008  1380     E  	adcm a,rb
 536  0009  0700     E  	mov a,ra
 536  000A  0083        	mov mp,a
 536  000B  0700     E  	mov a,rb
 536  000C  0084        	mov sbp,a
 536  000D  2000     E  	call _Crom2Prom
 536  000E  0080     E  	mov ra,a
 536  000F  0700     E  	mov a,ra
 536  0010  2000     R  	call _ua_outchar
 537  0011              #line 537 "D:\WORK\Project\Github\Holtel-MCU\Code\HT66FM5440\110V_hbridge\bdc_control.c"
 537  0011  0700     R  	mov a,_print_byte_2[0]
 537  0012  0080     E  	mov ra,a
 537  0013  1F00     E  	clr rb
 537  0014  0F0F        	mov a,15  
 537  0015  0680     E  	andm a,ra  
 537  0016  0F00        	mov a,0  
 537  0017  0680     E  	andm a,rb
 537  0018  0F00     R  	mov a,low offset _ascii
 537  0019  0380     E  	addm a,ra
 537  001A  0F00     R  	mov a,high offset _ascii
 537  001B  1380     E  	adcm a,rb
 537  001C  0700     E  	mov a,ra
 537  001D  0083        	mov mp,a
 537  001E  0700     E  	mov a,rb
 537  001F  0084        	mov sbp,a
 537  0020  2000     E  	call _Crom2Prom
 537  0021  0080     E  	mov ra,a
 537  0022  0700     E  	mov a,ra
 537  0023  2000     R  	call _ua_outchar
 537  0024  0003        	ret
 537  0025              _print_byte endp
 537  0025              #line 537 "D:\WORK\Project\Github\Holtel-MCU\Code\HT66FM5440\110V_hbridge\bdc_control.c"
 537  0025              #pragma debug scope 1 1
 537  0025              public _print_string
 537  0025              #pragma debug scope 21 1
 541  0025              #line 541 "D:\WORK\Project\Github\Holtel-MCU\Code\HT66FM5440\110V_hbridge\bdc_control.c"
 541  0000              _print_string .section 'code'
 541  0000              _print_string proc
 541  0000              public _print_string_2
 541  0000  0002[           local _print_string_2 db 2 dup(?)	; 2,0
            00
            ]
 541  0002              #pragma debug pointer 44 7 21
 541  0002              #pragma debug pointer 44 7 21
 541  0002              #pragma debug variable 44 21 _print_string_2+0 "s"
 542  0002              #line 542 "D:\WORK\Project\Github\Holtel-MCU\Code\HT66FM5440\110V_hbridge\bdc_control.c"
"File: bdc_control.c  Assembler  Version HGASM0202      Page 24

 542  0000  2800     R  	jmp _L61
 542  0001              _L63:
 544  0001              #line 544 "D:\WORK\Project\Github\Holtel-MCU\Code\HT66FM5440\110V_hbridge\bdc_control.c"
 544  0001  0700     R  	mov a,_print_string_2[0]
 544  0002  0080     E  	mov ra,a
 544  0003  0700     R  	mov a,_print_string_2[1]
 544  0004  0080     E  	mov rb,a
 544  0005  0700     E  	mov a,ra
 544  0006  0083        	mov mp,a
 544  0007  0700     E  	mov a,rb
 544  0008  0084        	mov sbp,a
 544  0009  2000     E  	call _Crom2Prom
 544  000A  0080     E  	mov ra,a
 544  000B  0700     E  	mov a,ra
 544  000C  0A0A        	sub a,10
 544  000D  390A        	snz z
 544  000E  2800     R  	jmp _L62
 545  000F              #line 545 "D:\WORK\Project\Github\Holtel-MCU\Code\HT66FM5440\110V_hbridge\bdc_control.c"
 545  000F  0F0D        	mov a,13
 545  0010  2000     R  	call _ua_outchar
 545  0011              _L62:
 546  0011              #line 546 "D:\WORK\Project\Github\Holtel-MCU\Code\HT66FM5440\110V_hbridge\bdc_control.c"
 546  0011  0700     R  	mov a,_print_string_2[0]
 546  0012  0080     E  	mov ra,a
 546  0013  0700     R  	mov a,_print_string_2[1]
 546  0014  0080     E  	mov rb,a
 546  0015  0700     E  	mov a,ra
 546  0016  0083        	mov mp,a
 546  0017  0700     E  	mov a,rb
 546  0018  0084        	mov sbp,a
 546  0019  2000     E  	call _Crom2Prom
 546  001A  0080     E  	mov ra,a
 546  001B  0700     E  	mov a,ra
 546  001C  2000     R  	call _ua_outchar
 547  001D              #line 547 "D:\WORK\Project\Github\Holtel-MCU\Code\HT66FM5440\110V_hbridge\bdc_control.c"
 547  001D  1480     R  	inc _print_string_2[0]
 547  001E  3D0A        	sz z
 547  001F  1480     R  	inc _print_string_2[1]
 547  0020              _L61:
 542  0020              #line 542 "D:\WORK\Project\Github\Holtel-MCU\Code\HT66FM5440\110V_hbridge\bdc_control.c"
 542  0020  0700     R  	mov a,_print_string_2[0]
 542  0021  0080     E  	mov ra,a
 542  0022  0700     R  	mov a,_print_string_2[1]
 542  0023  0080     E  	mov rb,a
 542  0024  0700     E  	mov a,ra
 542  0025  0083        	mov mp,a
 542  0026  0700     E  	mov a,rb
 542  0027  0084        	mov sbp,a
 542  0028  2000     E  	call _Crom2Prom
 542  0029  0080     E  	mov ra,a
 542  002A  1080     E  	sz ra
 542  002B  2800     R  	jmp _L63
 542  002C  0003        	ret
 542  002D              _print_string endp
 542  002D              #line 542 "D:\WORK\Project\Github\Holtel-MCU\Code\HT66FM5440\110V_hbridge\bdc_control.c"
 542  002D              #pragma debug scope 1 1
 542  0000              @HCCINIT	.section 'data'
 439  0000              #line 439 "D:\WORK\Project\Github\Holtel-MCU\Code\HT66FM5440\110V_hbridge\bdc_control.c"
 439  0000              @HCCINIT___cnt_10ms_2768 .section 'data'
 439  0000              ___cnt_10ms_2768 label byte
"File: bdc_control.c  Assembler  Version HGASM0202      Page 25

 439  0000              #pragma debug variable 8 18 ___cnt_10ms_2768 "cnt_10ms"
 439  0000              	db 0
 439  0003              @ROMDATA_BASE .section inpage 'code'
 439  0003              	db 0
 439  0001              @HCCINIT___cnt_10ms_2768 .section 'data'
 439  0001              #line 439 "D:\WORK\Project\Github\Holtel-MCU\Code\HT66FM5440\110V_hbridge\bdc_control.c"
 439  0000              @HCCINIT___cnt_200ms_2769 .section 'data'
 439  0000              ___cnt_200ms_2769 label byte
 439  0000              #pragma debug variable 8 18 ___cnt_200ms_2769 "cnt_200ms"
 439  0000              	db 0
 439  0004              @ROMDATA_BASE .section inpage 'code'
 439  0004              	db 0
 439  0001              @HCCINIT___cnt_200ms_2769 .section 'data'
 439  0001              #pragma debug struct_end
 439  0001              #pragma debug struct_end
 439  0001              #pragma debug union_end
 439  0001              #pragma debug union_end
 439  0001              #pragma debug variable 46 1 ___intc0 "__intc0" 1
 439  0001              #pragma debug struct_end
 439  0001              #pragma debug struct_end
 439  0001              #pragma debug union_end
 439  0001              #pragma debug union_end
 439  0001              #pragma debug variable 48 1 ___intc3 "__intc3" 1
 439  0001              #pragma debug struct_end
 439  0001              #pragma debug struct_end
 439  0001              #pragma debug union_end
 439  0001              #pragma debug union_end
 439  0001              #pragma debug variable 50 1 ___mfi1 "__mfi1" 1
 439  0001              #pragma debug struct_end
 439  0001              #pragma debug struct_end
 439  0001              #pragma debug union_end
 439  0001              #pragma debug union_end
 439  0001              #pragma debug variable 52 1 ___mfi2 "__mfi2" 1
 439  0001              #pragma debug struct_end
 439  0001              #pragma debug struct_end
 439  0001              #pragma debug union_end
 439  0001              #pragma debug union_end
 439  0001              #pragma debug variable 54 1 ___mfi7 "__mfi7" 1
 439  0001              #pragma debug struct_end
 439  0001              #pragma debug struct_end
 439  0001              #pragma debug union_end
 439  0001              #pragma debug union_end
 439  0001              #pragma debug variable 56 1 ___papu "__papu" 1
 439  0001              #pragma debug struct_end
 439  0001              #pragma debug struct_end
 439  0001              #pragma debug union_end
 439  0001              #pragma debug union_end
 439  0001              #pragma debug variable 58 1 ___pa "__pa" 1
 439  0001              #pragma debug struct_end
 439  0001              #pragma debug struct_end
 439  0001              #pragma debug union_end
 439  0001              #pragma debug union_end
 439  0001              #pragma debug variable 60 1 ___pac "__pac" 1
 439  0001              #pragma debug struct_end
 439  0001              #pragma debug struct_end
 439  0001              #pragma debug union_end
 439  0001              #pragma debug union_end
 439  0001              #pragma debug variable 62 1 ___pbpu "__pbpu" 1
 439  0001              #pragma debug struct_end
 439  0001              #pragma debug struct_end
"File: bdc_control.c  Assembler  Version HGASM0202      Page 26

 439  0001              #pragma debug union_end
 439  0001              #pragma debug union_end
 439  0001              #pragma debug variable 64 1 ___pb "__pb" 1
 439  0001              #pragma debug struct_end
 439  0001              #pragma debug struct_end
 439  0001              #pragma debug union_end
 439  0001              #pragma debug union_end
 439  0001              #pragma debug variable 66 1 ___pbc "__pbc" 1
 439  0001              #pragma debug struct_end
 439  0001              #pragma debug struct_end
 439  0001              #pragma debug union_end
 439  0001              #pragma debug union_end
 439  0001              #pragma debug variable 68 1 ___pc "__pc" 1
 439  0001              #pragma debug struct_end
 439  0001              #pragma debug struct_end
 439  0001              #pragma debug union_end
 439  0001              #pragma debug union_end
 439  0001              #pragma debug variable 70 1 ___pcc "__pcc" 1
 439  0001              #pragma debug struct_end
 439  0001              #pragma debug struct_end
 439  0001              #pragma debug union_end
 439  0001              #pragma debug union_end
 439  0001              #pragma debug variable 72 1 ___adcr0 "__adcr0" 1
 439  0001              #pragma debug struct_end
 439  0001              #pragma debug struct_end
 439  0001              #pragma debug union_end
 439  0001              #pragma debug union_end
 439  0001              #pragma debug variable 74 1 ___adcr1 "__adcr1" 1
 439  0001              #pragma debug struct_end
 439  0001              #pragma debug struct_end
 439  0001              #pragma debug union_end
 439  0001              #pragma debug union_end
 439  0001              #pragma debug variable 76 1 ___adcr2 "__adcr2" 1
 439  0001              #pragma debug variable 8 1 ___addl "__addl" 1
 439  0001              #pragma debug struct_end
 439  0001              #pragma debug struct_end
 439  0001              #pragma debug union_end
 439  0001              #pragma debug union_end
 439  0001              #pragma debug variable 78 1 ___pbps1 "__pbps1" 1
 439  0001              #pragma debug struct_end
 439  0001              #pragma debug struct_end
 439  0001              #pragma debug union_end
 439  0001              #pragma debug union_end
 439  0001              #pragma debug variable 80 1 ___ocps "__ocps" 1
 439  0001              #pragma debug struct_end
 439  0001              #pragma debug struct_end
 439  0001              #pragma debug union_end
 439  0001              #pragma debug union_end
 439  0001              #pragma debug variable 82 1 ___mptc1 "__mptc1" 1
 439  0001              #pragma debug struct_end
 439  0001              #pragma debug struct_end
 439  0001              #pragma debug union_end
 439  0001              #pragma debug union_end
 439  0001              #pragma debug variable 84 1 ___mptc2 "__mptc2" 1
 439  0001              #pragma debug struct_end
 439  0001              #pragma debug struct_end
 439  0001              #pragma debug union_end
 439  0001              #pragma debug union_end
 439  0001              #pragma debug variable 86 1 ___pwmc "__pwmc" 1
 439  0001              #pragma debug variable 8 1 ___dutr0l "__dutr0l" 1
"File: bdc_control.c  Assembler  Version HGASM0202      Page 27

 439  0001              #pragma debug variable 8 1 ___dutr0h "__dutr0h" 1
 439  0001              #pragma debug variable 8 1 ___prdrl "__prdrl" 1
 439  0001              #pragma debug variable 8 1 ___prdrh "__prdrh" 1
 439  0001              #pragma debug struct_end
 439  0001              #pragma debug struct_end
 439  0001              #pragma debug union_end
 439  0001              #pragma debug union_end
 439  0001              #pragma debug variable 88 1 ___pwmme "__pwmme" 1
 439  0001              #pragma debug struct_end
 439  0001              #pragma debug struct_end
 439  0001              #pragma debug union_end
 439  0001              #pragma debug union_end
 439  0001              #pragma debug variable 90 1 ___pwmmd "__pwmmd" 1
 439  0001              #pragma debug struct_end
 439  0001              #pragma debug struct_end
 439  0001              #pragma debug union_end
 439  0001              #pragma debug union_end
 439  0001              #pragma debug variable 92 1 ___mcf "__mcf" 1
 439  0001              #pragma debug struct_end
 439  0001              #pragma debug struct_end
 439  0001              #pragma debug union_end
 439  0001              #pragma debug union_end
 439  0001              #pragma debug variable 94 1 ___plc "__plc" 1
 439  0001              #pragma debug struct_end
 439  0001              #pragma debug struct_end
 439  0001              #pragma debug union_end
 439  0001              #pragma debug union_end
 439  0001              #pragma debug variable 96 1 ___usr "__usr" 1
 439  0001              #pragma debug struct_end
 439  0001              #pragma debug struct_end
 439  0001              #pragma debug union_end
 439  0001              #pragma debug union_end
 439  0001              #pragma debug variable 98 1 ___ucr1 "__ucr1" 1
 439  0001              #pragma debug struct_end
 439  0001              #pragma debug struct_end
 439  0001              #pragma debug union_end
 439  0001              #pragma debug union_end
 439  0001              #pragma debug variable 100 1 ___ucr2 "__ucr2" 1
 439  0001              #pragma debug struct_end
 439  0001              #pragma debug struct_end
 439  0001              #pragma debug union_end
 439  0001              #pragma debug union_end
 439  0001              #pragma debug variable 102 1 ___brg "__brg" 1
 439  0001              #pragma debug struct_end
 439  0001              #pragma debug struct_end
 439  0001              #pragma debug union_end
 439  0001              #pragma debug union_end
 439  0001              #pragma debug variable 104 1 ___txr_rxr "__txr_rxr" 1
 439  0001              #pragma debug struct_end
 439  0001              #pragma debug struct_end
 439  0001              #pragma debug union_end
 439  0001              #pragma debug union_end
 439  0001              #pragma debug variable 106 1 ___tbc "__tbc" 1
 439  0001              #pragma debug struct_end
 439  0001              #pragma debug struct_end
 439  0001              #pragma debug union_end
 439  0001              #pragma debug union_end
 439  0001              #pragma debug variable 108 1 ___adbyps "__adbyps" 1
 439  0001              #pragma debug struct_end
 439  0001              #pragma debug struct_end
"File: bdc_control.c  Assembler  Version HGASM0202      Page 28

 439  0001              #pragma debug union_end
 439  0001              #pragma debug union_end
 439  0001              #pragma debug variable 110 1 ___adcr3 "__adcr3" 1
 439  0001              #pragma debug struct_end
 439  0001              #pragma debug struct_end
 439  0001              #pragma debug union_end
 439  0001              #pragma debug union_end
 439  0001              #pragma debug variable 112 1 ___pwmcs "__pwmcs" 1
 439  0001              #pragma debug struct_end
 439  0001              #pragma debug struct_end
 439  0001              #pragma debug union_end
 439  0001              #pragma debug union_end
 439  0001              #pragma debug variable 114 1 ___paps0 "__paps0" 1
 439  0001              #pragma debug struct_end
 439  0001              #pragma debug struct_end
 439  0001              #pragma debug union_end
 439  0001              #pragma debug union_end
 439  0001              #pragma debug variable 116 1 ___paps1 "__paps1" 1
 439  0001              #pragma debug struct_end
 439  0001              #pragma debug struct_end
 439  0001              #pragma debug union_end
 439  0001              #pragma debug union_end
 439  0001              #pragma debug variable 118 1 ___pcps0 "__pcps0" 1
 439  0001              #pragma debug struct_end
 439  0001              #pragma debug struct_end
 439  0001              #pragma debug union_end
 439  0001              #pragma debug union_end
 439  0001              #pragma debug variable 120 1 ___pcps1 "__pcps1" 1
 439  0001              #pragma debug struct_end
 439  0001              #pragma debug struct_end
 439  0001              #pragma debug union_end
 439  0001              #pragma debug union_end
 439  0001              #pragma debug variable 122 1 ___pdps0 "__pdps0" 1
 439  0001              extern r1:byte
 439  0001              extern r2:byte
 439  0001              extern r3:byte
 439  0001              extern r4:byte
  77  0001              #line 77 "D:\WORK\Project\Github\Holtel-MCU\Code\HT66FM5440\110V_hbridge\bdc_control.c"
  77  0000              @code .section at 0 'code'
  77  0000  2800     R  	jmp _main_startup1
  77  0001              
  77  0001              
  77  0001              ; 
  77  0001              ; Generated by holtek-gcc v3.19, Thu Sep 05 18:38:57 2019
  77  0001              ; Rebuild 115
  77  0001              ; end of file


        0 Errors, 0