"File: bdc_control.c  Assembler  Version HGASM0202      Page 1


   1  0000              ; Generated by holtek-gcc v3.19, Thu Sep 19 20:14:18 2019
   2  0000              ; 
   3  0000              ; Configuration:
   4  0000              ;       with long instruction
   5  0000              ;       Single ROM, Multi-RAM
   6  0000              ;       bits_per_rom_unit:16
   7  0000              ;       with mp1
   8  0000              ;       with tbhp, address(0x9)
   9  0000              ;          Use tabrd-const
  10  0000              ;       
  11  0000              ; SFR address of long-instruction arch:
  12  0000              ;    mp0 = -1,1,0
  13  0000              ;    mp1 = 4,3,2
  14  0000              ;    mp2 = 14,13,12
  15  0000              ;    tbp = 9,7,8
  16  0000              ;    acc = 5
  17  0000              ;    pcl = 6
  18  0000              ;    status = 10
  19  0000              ;    bp = 11
  20  0000              ;    intc = 21
  21  0000              ;       
  22  0000              ;       
  23  0000              ; use 'tabrdc' instead of 'tabrd'
  24  0000              ;       
  25  0000              
  26  0000              #pragma translator "holtek-gcc 4.6.4" "3.19" "build 20130711"
  27  0000              ; Rebuild 718
  28  0000              
  29  0000              ir equ [2]
  30  0000              mp equ [3]
  31  0000              sbp equ [4]
  32  0000              acc equ [5]
  33  0000              bp equ [11]
  34  0000              tblp equ [7]
  35  0000              tbhp equ [9]
  36  0000              status equ [10]
  37  0000              c equ [10].0
  38  0000              ac equ [10].1
  39  0000              z equ [10].2
  40  0000              ov equ [10].3
  41  0000              cz equ [10].6
  42  0000              sc equ [10].7
  43  0000              intc equ [21]
  44  0000              mdu0r0 equ [73h]
  45  0000              mdu0r1 equ [74h]
  46  0000              mdu0ctrl equ [75h]
  47  0000              mduwr0 equ [76h]
  48  0000              mduwr1 equ [77h]
  49  0000              mduwr2 equ [78h]
  50  0000              mduwr3 equ [7ah]
  51  0000              mduwr4 equ [7bh]
  52  0000              mduwr5 equ [7ch]
  53  0000              mduwrctrl equ [7dh]
  54  0000              
  55  0000              extern ra:byte
  56  0000              extern rb:byte
  57  0000              extern rc:byte
  58  0000              extern rd:byte
  59  0000              extern re:byte
"File: bdc_control.ASM  Assembler  Version HGASM0202      Page 2

  60  0000              extern rf:byte
  61  0000              extern rg:byte
  62  0000              extern rh:byte
  63  0000              extern _Crom2Prom:near
  64  0000              extern _Crom2PromNext:near
  65  0000              
  66  0000              RAMBANK 0 @BITDATASEC, @BITDATASEC1
  67  0000              @HCCINIT	.section 'data'
  68  0000              @HCCINIT0	.section 'data'
  69  0000              @BITDATASEC	 .section 'data'
  70  0000              @BITDATASEC1	 .section 'data'
  71  0000              
  72  0000              #pragma debug scope 1 1
  73  0000              	extern __DELAY3:near
  74  0000              	extern __DELAYX3:near
  75  0000              	extern __DELAYX6:near
  76  0000              	extern __DELAYY5:near
  77  0000              	extern __DELAYY3:near
  78  0000              	extern _builtin_holtek_delay_2:byte
  79  0000              public _cnt_ms
  80  0000              @HCCINIT	.section 'data'

  20  0000              #line 20 "D:\WORK\Project\Github\Holtel-MCU\Code\HT66FM5440\110V_hbridge\bdc_control.c"
  20  0000              @HCCINIT_cnt_ms .section 'data'
  20  0000              _cnt_ms label byte
  20  0000              #pragma debug variable 10 1 _cnt_ms "cnt_ms"
  20  0000              	db 0
  20  0000              @ROMDATA_BASE .section inpage 'code'
  20  0000              	db 0
  20  0001              @HCCINIT_cnt_ms .section 'data'
  20  0001              	db 0
  20  0001              @ROMDATA_BASE .section inpage 'code'
  20  0001              	db 0
  20  0002              @HCCINIT_cnt_ms .section 'data'
  20  0002              public _cnt_10ms
  21  0002              #line 21 "D:\WORK\Project\Github\Holtel-MCU\Code\HT66FM5440\110V_hbridge\bdc_control.c"
  21  0000              @HCCINIT_cnt_10ms .section 'data'
  21  0000              _cnt_10ms label byte
  21  0000              #pragma debug variable 8 1 _cnt_10ms "cnt_10ms"
  21  0000              	db 0
  21  0001              @ROMDATA_BASE .section inpage 'code'
  21  0001              	db 0
  21  0001              @HCCINIT_cnt_10ms .section 'data'
  21  0001              public _cnt_200ms
  21  0001              #line 21 "D:\WORK\Project\Github\Holtel-MCU\Code\HT66FM5440\110V_hbridge\bdc_control.c"
  21  0000              @HCCINIT_cnt_200ms .section 'data'
  21  0000              _cnt_200ms label byte
  21  0000              #pragma debug variable 8 1 _cnt_200ms "cnt_200ms"
  21  0000              	db 0
  21  0002              @ROMDATA_BASE .section inpage 'code'
  21  0002              	db 0
  21  0001              @HCCINIT_cnt_200ms .section 'data'
  21  0001              public _f_ms
  22  0001              #line 22 "D:\WORK\Project\Github\Holtel-MCU\Code\HT66FM5440\110V_hbridge\bdc_control.c"
  22  0000              @BITDATASEC .section 'data'
  22  0000  00          _f_ms	dbit 0
  22  0001              #pragma debug variable 2 1 _f_ms "f_ms"
  22  0001              public _f_10ms
  22  0001              #line 22 "D:\WORK\Project\Github\Holtel-MCU\Code\HT66FM5440\110V_hbridge\bdc_control.c"
  22  0001              @BITDATASEC .section 'data'
"File: bdc_control.c  Assembler  Version HGASM0202      Page 3

  22  0000              _f_10ms	dbit 0
  22  0001              #pragma debug variable 2 1 _f_10ms "f_10ms"
  22  0001              public _f_200ms
  22  0001              #line 22 "D:\WORK\Project\Github\Holtel-MCU\Code\HT66FM5440\110V_hbridge\bdc_control.c"
  22  0001              @BITDATASEC .section 'data'
  22  0000              _f_200ms	dbit 0
  22  0001              #pragma debug variable 2 1 _f_200ms "f_200ms"
  33  0001              #line 33 "D:\WORK\Project\Github\Holtel-MCU\Code\HT66FM5440\110V_hbridge\bdc_control.c"
  33  0001              public _direction
  33  0000              @HCCINIT0_direction .section 'data'
  33  0000  0002[       _direction	db 2 dup(0)
            00
            ]
  33  0002              #pragma debug variable 12 1 _direction "direction"
  33  0002              
  33  0000              @HCCINIT .section 'data'
  33  0000              #line 33 "D:\WORK\Project\Github\Holtel-MCU\Code\HT66FM5440\110V_hbridge\bdc_control.c"
  33  0000              public _direction_test
  33  0000              @HCCINIT0_direction_test .section 'data'
  33  0000  0002[       _direction_test	db 2 dup(0)
            00
            ]
  33  0002              #pragma debug variable 12 1 _direction_test "direction_test"
  33  0002              
  33  0000              @HCCINIT .section 'data'
  33  0000              public _motor_current
  34  0000              #line 34 "D:\WORK\Project\Github\Holtel-MCU\Code\HT66FM5440\110V_hbridge\bdc_control.c"
  34  0000              @HCCINIT_motor_current .section 'data'
  34  0000              _motor_current label byte
  34  0000              #pragma debug variable 10 1 _motor_current "motor_current"
  34  0000              	db 0
  34  0002              @ROMDATA_BASE .section inpage 'code'
  34  0002              	db 0
  34  0001              @HCCINIT_motor_current .section 'data'
  34  0001              	db 0
  34  0003              @ROMDATA_BASE .section inpage 'code'
  34  0003              	db 0
  34  0002              @HCCINIT_motor_current .section 'data'
  35  0002              #line 35 "D:\WORK\Project\Github\Holtel-MCU\Code\HT66FM5440\110V_hbridge\bdc_control.c"
  35  0002              public _motor_state
  35  0000              @HCCINIT0_motor_state .section 'data'
  35  0000              _motor_state	db 0
  35  0001              #pragma debug variable 8 1 _motor_state "motor_state"
  35  0001              
  35  0000              @HCCINIT .section 'data'
  35  0000              public _pwmduty_now
  76  0000              #line 76 "D:\WORK\Project\Github\Holtel-MCU\Code\HT66FM5440\110V_hbridge\bdc_control.c"
  76  0000              @HCCINIT_pwmduty_now .section 'data'
  76  0000              _pwmduty_now label byte
  76  0000              #pragma debug variable 10 1 _pwmduty_now "pwmduty_now"
  76  0000              	db 0
  76  0003              @ROMDATA_BASE .section inpage 'code'
  76  0003              	db 0
  76  0001              @HCCINIT_pwmduty_now .section 'data'
  76  0001              	db 0
  76  0004              @ROMDATA_BASE .section inpage 'code'
  76  0004              	db 0
  76  0002              @HCCINIT_pwmduty_now .section 'data'
  77  0002              #line 77 "D:\WORK\Project\Github\Holtel-MCU\Code\HT66FM5440\110V_hbridge\bdc_control.c"
  77  0002              public _pwmduty_temp
"File: bdc_control.c  Assembler  Version HGASM0202      Page 4

  77  0000              @HCCINIT0_pwmduty_temp .section 'data'
  77  0000  0002[       _pwmduty_temp	db 2 dup(0)
            00
            ]
  77  0002              #pragma debug variable 10 1 _pwmduty_temp "pwmduty_temp"
  77  0002              
  77  0000              @HCCINIT .section 'data'
  77  0000              public _f_adc_ch
  85  0000              #line 85 "D:\WORK\Project\Github\Holtel-MCU\Code\HT66FM5440\110V_hbridge\bdc_control.c"
  85  0001              @BITDATASEC .section 'data'
  85  0000              _f_adc_ch	dbit 0
  85  0001              #pragma debug variable 2 1 _f_adc_ch "f_adc_ch"
  85  0001              public _iavg
  86  0001              #line 86 "D:\WORK\Project\Github\Holtel-MCU\Code\HT66FM5440\110V_hbridge\bdc_control.c"
  86  0000              @HCCINIT_iavg .section 'data'
  86  0000              _iavg label byte
  86  0000              #pragma debug variable 10 1 _iavg "iavg"
  86  0000              	db 0
  86  0004              @ROMDATA_BASE .section inpage 'code'
  86  0004              	db 0
  86  0001              @HCCINIT_iavg .section 'data'
  86  0001              	db 0
  86  0005              @ROMDATA_BASE .section inpage 'code'
  86  0005              	db 0
  86  0002              @HCCINIT_iavg .section 'data'
  86  0002              public _vdet
  86  0002              #line 86 "D:\WORK\Project\Github\Holtel-MCU\Code\HT66FM5440\110V_hbridge\bdc_control.c"
  86  0000              @HCCINIT_vdet .section 'data'
  86  0000              _vdet label byte
  86  0000              #pragma debug variable 10 1 _vdet "vdet"
  86  0000              	db 0
  86  0005              @ROMDATA_BASE .section inpage 'code'
  86  0005              	db 0
  86  0001              @HCCINIT_vdet .section 'data'
  86  0001              	db 0
  86  0006              @ROMDATA_BASE .section inpage 'code'
  86  0006              	db 0
  86  0002              @HCCINIT_vdet .section 'data'
  89  0002              #line 89 "D:\WORK\Project\Github\Holtel-MCU\Code\HT66FM5440\110V_hbridge\bdc_control.c"
  89  0002              public _txbuff
  89  0000              @HCCINIT0_txbuff .section 'data'
  89  0000  0006[       _txbuff	db 6 dup(0)
            00
            ]
  89  0006              #pragma debug array 42 8 6 1
  89  0006              #pragma debug array 42 8 6 1
  89  0006              #pragma debug variable 42 1 _txbuff "txbuff"
  89  0006              
  89  0000              @HCCINIT .section 'data'
  90  0000              #line 90 "D:\WORK\Project\Github\Holtel-MCU\Code\HT66FM5440\110V_hbridge\bdc_control.c"
  90  0000              public _rxbuff
  90  0000              @HCCINIT0_rxbuff .section 'data'
  90  0000  0006[       _rxbuff	db 6 dup(0)
            00
            ]
  90  0006              #pragma debug variable 42 1 _rxbuff "rxbuff"
  90  0006              
  90  0000              @HCCINIT .section 'data'
  90  0000              public _rxcnt
  91  0000              #line 91 "D:\WORK\Project\Github\Holtel-MCU\Code\HT66FM5440\110V_hbridge\bdc_control.c"
"File: bdc_control.c  Assembler  Version HGASM0202      Page 5

  91  0000              @HCCINIT_rxcnt .section 'data'
  91  0000              _rxcnt label byte
  91  0000              #pragma debug variable 8 1 _rxcnt "rxcnt"
  91  0000              	db 0
  91  0006              @ROMDATA_BASE .section inpage 'code'
  91  0006              	db 0
  91  0001              @HCCINIT_rxcnt .section 'data'
  91  0001              public _txcnt
  91  0001              #line 91 "D:\WORK\Project\Github\Holtel-MCU\Code\HT66FM5440\110V_hbridge\bdc_control.c"
  91  0000              @HCCINIT_txcnt .section 'data'
  91  0000              _txcnt label byte
  91  0000              #pragma debug variable 8 1 _txcnt "txcnt"
  91  0000              	db 0
  91  0007              @ROMDATA_BASE .section inpage 'code'
  91  0007              	db 0
  91  0001              @HCCINIT_txcnt .section 'data'
  91  0001              public _ascii
  91  0000              @crom	.section 'crom'
  92  0000              #line 92 "D:\WORK\Project\Github\Holtel-MCU\Code\HT66FM5440\110V_hbridge\bdc_control.c"
  92  0000              @crom	.section	'crom'
  92  0000              _ascii:
  92  0000              #pragma debug array 43 7 17 1
  92  0000              #pragma debug array 43 7 17 1
  92  0000              #pragma debug variable 43 1 _ascii "ascii"
  92  0000              	db 030h,031h,032h,033h,034h,035h,036h,037h,038h,039h
  92  0005              	db 041h,042h,043h,044h,045h,046h,00h
  92  0009              public _f_testmode
  92  0000              @HCCINIT	.section 'data'
  95  0000              #line 95 "D:\WORK\Project\Github\Holtel-MCU\Code\HT66FM5440\110V_hbridge\bdc_control.c"
  95  0001              @BITDATASEC .section 'data'
  95  0000              _f_testmode	dbit 0
  95  0001              #pragma debug variable 2 1 _f_testmode "f_testmode"
  95  0001              ___pwmc equ [87]
  95  0001              ___intc0 equ [21]
  95  0001              ___pa equ [35]
  95  0001              public _main
  95  0001              #pragma debug scope 2 1
 111  0001              #line 111 "D:\WORK\Project\Github\Holtel-MCU\Code\HT66FM5440\110V_hbridge\bdc_control.c"
 111  0001              IFDEF WITH_DEFAULT_STARTUP
 111  0001              extern _main_initial0:near
 111  0001              extern _main_startup:near
 111  0001              ENDIF
 111  0001              
 111  0001              ROMBANK 0 @start
 111  0000              @start .section com_l 'code'
 111  0000              _main_startup1:
 111  0000              @start .section com_e 'code'
 111  0000  2800     R  	jmp _main
 111  0001              
 111  0000              _main .section 'code'
 111  0000              _main proc
 112  0000              #line 112 "D:\WORK\Project\Github\Holtel-MCU\Code\HT66FM5440\110V_hbridge\bdc_control.c"
 112  0000  1F00     R  	clr _pwmduty_now[0]
 112  0001  1F00     R  	clr _pwmduty_now[1]
 113  0002              #line 113 "D:\WORK\Project\Github\Holtel-MCU\Code\HT66FM5440\110V_hbridge\bdc_control.c"
 113  0002  0F02        	mov a,2
 113  0003  0080     R  	mov _motor_state[0],a
 114  0004              #line 114 "D:\WORK\Project\Github\Holtel-MCU\Code\HT66FM5440\110V_hbridge\bdc_control.c"
 114  0004  1F00     R  	clr _direction_test[0]
 114  0005  1F00     R  	clr _direction_test[1]
"File: bdc_control.c  Assembler  Version HGASM0202      Page 6

 116  0006              #line 116 "D:\WORK\Project\Github\Holtel-MCU\Code\HT66FM5440\110V_hbridge\bdc_control.c"
 116  0006  2000     R  	call _gpio_init
 117  0007              #line 117 "D:\WORK\Project\Github\Holtel-MCU\Code\HT66FM5440\110V_hbridge\bdc_control.c"
 117  0007  0F00        	mov a,0
 117  0008  2000     R  	call _adc_init
 118  0009              #line 118 "D:\WORK\Project\Github\Holtel-MCU\Code\HT66FM5440\110V_hbridge\bdc_control.c"
 118  0009  2000     R  	call _uart_init
 119  000A              #line 119 "D:\WORK\Project\Github\Holtel-MCU\Code\HT66FM5440\110V_hbridge\bdc_control.c"
 119  000A  2000     R  	call _timeBase_init
 120  000B              #line 120 "D:\WORK\Project\Github\Holtel-MCU\Code\HT66FM5440\110V_hbridge\bdc_control.c"
 120  000B  2000     R  	call _pwm_init
 121  000C              #line 121 "D:\WORK\Project\Github\Holtel-MCU\Code\HT66FM5440\110V_hbridge\bdc_control.c"
 121  000C  31D7        	set [87].3
 122  000D              #line 122 "D:\WORK\Project\Github\Holtel-MCU\Code\HT66FM5440\110V_hbridge\bdc_control.c"
 122  000D  3015        	set [21].0
 125  000E              #line 125 "D:\WORK\Project\Github\Holtel-MCU\Code\HT66FM5440\110V_hbridge\bdc_control.c"
 125  000E  0FF4        	mov a,-12
 125  000F  0080     R  	mov _cnt_ms[0],a
 125  0010  0F01        	mov a,1
 125  0011  0080     R  	mov _cnt_ms[1],a
 126  0012              #line 126 "D:\WORK\Project\Github\Holtel-MCU\Code\HT66FM5440\110V_hbridge\bdc_control.c"
 126  0012  3400     R  	clr _f_ms
 128  0013              #line 128 "D:\WORK\Project\Github\Holtel-MCU\Code\HT66FM5440\110V_hbridge\bdc_control.c"
 128  0013  2800     R  	jmp _L2
 128  0014              _L3:
 130  0014              #line 130 "D:\WORK\Project\Github\Holtel-MCU\Code\HT66FM5440\110V_hbridge\bdc_control.c"
 130  0014              ;# 130 "D:\WORK\Project\Github\Holtel-MCU\Code\HT66FM5440\110V_hbridge\bdc_control.c" 1
 130  0014  0001        	clr wdt
 130  0015              _L2:
 128  0015              #line 128 "D:\WORK\Project\Github\Holtel-MCU\Code\HT66FM5440\110V_hbridge\bdc_control.c"
 128  0015  1F00     E  	clr ra
 128  0016  3C00     R  	sz _f_ms
 128  0017  3000     E  	set ra.0
 128  0018  3800     E  	snz ra.0
 128  0019  2800     R  	jmp _L3
 128  001A              _L47:
 136  001A              #line 136 "D:\WORK\Project\Github\Holtel-MCU\Code\HT66FM5440\110V_hbridge\bdc_control.c"
 136  001A              ;# 136 "D:\WORK\Project\Github\Holtel-MCU\Code\HT66FM5440\110V_hbridge\bdc_control.c" 1
 136  001A  0001        	clr wdt
 143  001B              #line 143 "D:\WORK\Project\Github\Holtel-MCU\Code\HT66FM5440\110V_hbridge\bdc_control.c"
 143  001B  0700     R  	mov a,_motor_current[0]
 143  001C  0080     E  	mov ra,a
 143  001D  0700     R  	mov a,_motor_current[1]
 143  001E  0080     E  	mov rb,a
 143  001F  0700     E  	mov a,ra
 143  0020  0500     E  	or a,rb
 143  0021  3D0A        	sz z
 143  0022  2800     R  	jmp _L4
 144  0023              #line 144 "D:\WORK\Project\Github\Holtel-MCU\Code\HT66FM5440\110V_hbridge\bdc_control.c"
 144  0023  1F00     R  	clr _motor_state[0]
 144  0024              _L4:
 147  0024              #line 147 "D:\WORK\Project\Github\Holtel-MCU\Code\HT66FM5440\110V_hbridge\bdc_control.c"
 147  0024  1F00     E  	clr ra
 147  0025  3C00     R  	sz _f_10ms
 147  0026  3000     E  	set ra.0
 147  0027  3800     E  	snz ra.0
 147  0028  2800     R  	jmp _L5
 149  0029              #line 149 "D:\WORK\Project\Github\Holtel-MCU\Code\HT66FM5440\110V_hbridge\bdc_control.c"
 149  0029  3400     R  	clr _f_10ms
 150  002A              #line 150 "D:\WORK\Project\Github\Holtel-MCU\Code\HT66FM5440\110V_hbridge\bdc_control.c"
"File: bdc_control.c  Assembler  Version HGASM0202      Page 7

 150  002A  2000     R  	call _handle_key
 152  002B              #line 152 "D:\WORK\Project\Github\Holtel-MCU\Code\HT66FM5440\110V_hbridge\bdc_control.c"
 152  002B  0700     R  	mov a,_motor_state[0]
 152  002C  0080     E  	mov ra,a
 152  002D  1F00     E  	clr rb
 152  002E  0F01        	mov a,1  
 152  002F  0680     E  	andm a,ra  
 152  0030  0F00        	mov a,0  
 152  0031  0680     E  	andm a,rb
 152  0032  0700     E  	mov a,ra
 152  0033  0500     E  	or a,rb
 152  0034  3D0A        	sz z
 152  0035  2800     R  	jmp _L6
 153  0036              #line 153 "D:\WORK\Project\Github\Holtel-MCU\Code\HT66FM5440\110V_hbridge\bdc_control.c"
 153  0036  31A3        	set [35].3
 153  0037  2800     R  	jmp _L7
 153  0038              _L6:
 155  0038              #line 155 "D:\WORK\Project\Github\Holtel-MCU\Code\HT66FM5440\110V_hbridge\bdc_control.c"
 155  0038  35A3        	clr [35].3
 155  0039              _L7:
 157  0039              #line 157 "D:\WORK\Project\Github\Holtel-MCU\Code\HT66FM5440\110V_hbridge\bdc_control.c"
 157  0039  0700     R  	mov a,_motor_state[0]
 157  003A  0080     E  	mov ra,a
 157  003B  1F00     E  	clr rb
 157  003C  0F02        	mov a,2  
 157  003D  0680     E  	andm a,ra  
 157  003E  0F00        	mov a,0  
 157  003F  0680     E  	andm a,rb
 157  0040  0700     E  	mov a,ra
 157  0041  0500     E  	or a,rb
 157  0042  3D0A        	sz z
 157  0043  2800     R  	jmp _L8
 158  0044              #line 158 "D:\WORK\Project\Github\Holtel-MCU\Code\HT66FM5440\110V_hbridge\bdc_control.c"
 158  0044  3223        	set [35].4
 158  0045  2800     R  	jmp _L9
 158  0046              _L8:
 160  0046              #line 160 "D:\WORK\Project\Github\Holtel-MCU\Code\HT66FM5440\110V_hbridge\bdc_control.c"
 160  0046  3623        	clr [35].4
 160  0047              _L9:
 162  0047              #line 162 "D:\WORK\Project\Github\Holtel-MCU\Code\HT66FM5440\110V_hbridge\bdc_control.c"
 162  0047  0700     R  	mov a,_motor_state[0]
 162  0048  0080     E  	mov ra,a
 162  0049  1F00     E  	clr rb
 162  004A  0F04        	mov a,4  
 162  004B  0680     E  	andm a,ra  
 162  004C  0F00        	mov a,0  
 162  004D  0680     E  	andm a,rb
 162  004E  0700     E  	mov a,ra
 162  004F  0500     E  	or a,rb
 162  0050  3D0A        	sz z
 162  0051  2800     R  	jmp _L10
 163  0052              #line 163 "D:\WORK\Project\Github\Holtel-MCU\Code\HT66FM5440\110V_hbridge\bdc_control.c"
 163  0052  32A3        	set [35].5
 163  0053  2800     R  	jmp _L11
 163  0054              _L10:
 165  0054              #line 165 "D:\WORK\Project\Github\Holtel-MCU\Code\HT66FM5440\110V_hbridge\bdc_control.c"
 165  0054  36A3        	clr [35].5
 165  0055              _L11:
 167  0055              #line 167 "D:\WORK\Project\Github\Holtel-MCU\Code\HT66FM5440\110V_hbridge\bdc_control.c"
 167  0055  1F00     E  	clr ra
"File: bdc_control.c  Assembler  Version HGASM0202      Page 8

 167  0056  3C00     R  	sz _f_adc_ch
 167  0057  3000     E  	set ra.0
 167  0058  3C00     E  	sz ra.0
 167  0059  2800     R  	jmp _L12
 169  005A              #line 169 "D:\WORK\Project\Github\Holtel-MCU\Code\HT66FM5440\110V_hbridge\bdc_control.c"
 169  005A  3000     R  	set _f_adc_ch
 170  005B              #line 170 "D:\WORK\Project\Github\Holtel-MCU\Code\HT66FM5440\110V_hbridge\bdc_control.c"
 170  005B  0F08        	mov a,8
 170  005C  2000     R  	call _adc_sample
 170  005D  2800     R  	jmp _L13
 170  005E              _L12:
 174  005E              #line 174 "D:\WORK\Project\Github\Holtel-MCU\Code\HT66FM5440\110V_hbridge\bdc_control.c"
 174  005E  3400     R  	clr _f_adc_ch
 175  005F              #line 175 "D:\WORK\Project\Github\Holtel-MCU\Code\HT66FM5440\110V_hbridge\bdc_control.c"
 175  005F  0F07        	mov a,7
 175  0060  2000     R  	call _adc_sample
 175  0061              _L13:
 198  0061              #line 198 "D:\WORK\Project\Github\Holtel-MCU\Code\HT66FM5440\110V_hbridge\bdc_control.c"
 198  0061  0700     R  	mov a,_motor_state[0]
 198  0062  0080     E  	mov ra,a
 198  0063  1F00     E  	clr rb
 198  0064  0700     E  	mov a,ra
 198  0065  0500     E  	or a,rb
 198  0066  3D0A        	sz z
 198  0067  2800     R  	jmp _L15
 198  0068  0700     E  	mov a,ra
 198  0069  0C01        	xor a,1
 198  006A  0500     E  	or a,rb
 198  006B  3D0A        	sz z
 198  006C  2800     R  	jmp _L16
 198  006D  0700     E  	mov a,ra
 198  006E  0C02        	xor a,2
 198  006F  0500     E  	or a,rb
 198  0070  3D0A        	sz z
 198  0071  2800     R  	jmp _L17
 198  0072  0700     E  	mov a,ra
 198  0073  0C03        	xor a,3
 198  0074  0500     E  	or a,rb
 198  0075  3D0A        	sz z
 198  0076  2800     R  	jmp _L18
 198  0077  0700     E  	mov a,ra
 198  0078  0C04        	xor a,4
 198  0079  0500     E  	or a,rb
 198  007A  3D0A        	sz z
 198  007B  2800     R  	jmp _L19
 198  007C  0700     E  	mov a,ra
 198  007D  0C05        	xor a,5
 198  007E  0500     E  	or a,rb
 198  007F  3D0A        	sz z
 198  0080  2800     R  	jmp _L20
 198  0081  0700     E  	mov a,ra
 198  0082  0C06        	xor a,6
 198  0083  0500     E  	or a,rb
 198  0084  3D0A        	sz z
 198  0085  2800     R  	jmp _L21
 198  0086  0700     E  	mov a,ra
 198  0087  0C07        	xor a,7
 198  0088  0500     E  	or a,rb
 198  0089  3D0A        	sz z
 198  008A  2800     R  	jmp _L22
"File: bdc_control.c  Assembler  Version HGASM0202      Page 9

 198  008B  2800     R  	jmp _L48
 198  008C              _L15:
 201  008C              #line 201 "D:\WORK\Project\Github\Holtel-MCU\Code\HT66FM5440\110V_hbridge\bdc_control.c"
 201  008C  1F00     R  	clr _pwmduty_now[0]
 201  008D  1F00     R  	clr _pwmduty_now[1]
 202  008E              #line 202 "D:\WORK\Project\Github\Holtel-MCU\Code\HT66FM5440\110V_hbridge\bdc_control.c"
 202  008E  2800     R  	jmp _L5
 202  008F              _L16:
 205  008F              #line 205 "D:\WORK\Project\Github\Holtel-MCU\Code\HT66FM5440\110V_hbridge\bdc_control.c"
 205  008F  1F00     E  	clr ra
 205  0090  3C00     R  	sz _f_testmode
 205  0091  3000     E  	set ra.0
 205  0092  3C00     E  	sz ra.0
 205  0093  2800     R  	jmp _L23
 206  0094              #line 206 "D:\WORK\Project\Github\Holtel-MCU\Code\HT66FM5440\110V_hbridge\bdc_control.c"
 206  0094  1F00     R  	clr _direction_test[0]
 206  0095  1F00     R  	clr _direction_test[1]
 206  0096              _L23:
 207  0096              #line 207 "D:\WORK\Project\Github\Holtel-MCU\Code\HT66FM5440\110V_hbridge\bdc_control.c"
 207  0096  1F00     E  	clr ra
 207  0097  3C00     R  	sz _f_testmode
 207  0098  3000     E  	set ra.0
 207  0099  3800     E  	snz ra.0
 207  009A  2800     R  	jmp _L24
 207  009B  1F00     E  	clr ra
 207  009C  3C00     R  	sz _f_ms
 207  009D  3000     E  	set ra.0
 207  009E  3800     E  	snz ra.0
 207  009F  2800     R  	jmp _L24
 209  00A0              #line 209 "D:\WORK\Project\Github\Holtel-MCU\Code\HT66FM5440\110V_hbridge\bdc_control.c"
 209  00A0  0F05        	mov a,5
 209  00A1  0080     R  	mov _motor_state[0],a
 209  00A2  2800     R  	jmp _L25
 209  00A3              _L24:
 213  00A3              #line 213 "D:\WORK\Project\Github\Holtel-MCU\Code\HT66FM5440\110V_hbridge\bdc_control.c"
 213  00A3  0700     R  	mov a,_direction[0]
 213  00A4  0080     E  	mov ra,a
 213  00A5  0700     R  	mov a,_direction[1]
 213  00A6  0080     E  	mov rb,a
 213  00A7  0700     E  	mov a,ra
 213  00A8  0C01        	xor a,1
 213  00A9  0500     E  	or a,rb
 213  00AA  390A        	snz z
 213  00AB  2800     R  	jmp _L26
 214  00AC              #line 214 "D:\WORK\Project\Github\Holtel-MCU\Code\HT66FM5440\110V_hbridge\bdc_control.c"
 214  00AC  0F04        	mov a,4
 214  00AD  0080     R  	mov _motor_state[0],a
 214  00AE  2800     R  	jmp _L25
 214  00AF              _L26:
 215  00AF              #line 215 "D:\WORK\Project\Github\Holtel-MCU\Code\HT66FM5440\110V_hbridge\bdc_control.c"
 215  00AF  0700     R  	mov a,_direction[0]
 215  00B0  0080     E  	mov ra,a
 215  00B1  0700     R  	mov a,_direction[1]
 215  00B2  0080     E  	mov rb,a
 215  00B3  0700     E  	mov a,ra
 215  00B4  0500     E  	or a,rb
 215  00B5  390A        	snz z
 215  00B6  2800     R  	jmp _L25
 216  00B7              #line 216 "D:\WORK\Project\Github\Holtel-MCU\Code\HT66FM5440\110V_hbridge\bdc_control.c"
 216  00B7  0F03        	mov a,3
"File: bdc_control.c  Assembler  Version HGASM0202      Page 10

 216  00B8  0080     R  	mov _motor_state[0],a
 218  00B9              #line 218 "D:\WORK\Project\Github\Holtel-MCU\Code\HT66FM5440\110V_hbridge\bdc_control.c"
 218  00B9  2800     R  	jmp _L5
 218  00BA              _L25:
 218  00BA  2800     R  	jmp _L5
 218  00BB              _L20:
 220  00BB              #line 220 "D:\WORK\Project\Github\Holtel-MCU\Code\HT66FM5440\110V_hbridge\bdc_control.c"
 220  00BB  0FD0        	mov a,-48
 220  00BC  0080     R  	mov _cnt_ms[0],a
 220  00BD  0F07        	mov a,7
 220  00BE  0080     R  	mov _cnt_ms[1],a
 221  00BF              #line 221 "D:\WORK\Project\Github\Holtel-MCU\Code\HT66FM5440\110V_hbridge\bdc_control.c"
 221  00BF  3400     R  	clr _f_ms
 222  00C0              #line 222 "D:\WORK\Project\Github\Holtel-MCU\Code\HT66FM5440\110V_hbridge\bdc_control.c"
 222  00C0  0700     R  	mov a,_direction_test[0]
 222  00C1  0080     E  	mov ra,a
 222  00C2  0700     R  	mov a,_direction_test[1]
 222  00C3  0080     E  	mov rb,a
 222  00C4  0700     E  	mov a,ra
 222  00C5  0500     E  	or a,rb
 222  00C6  390A        	snz z
 222  00C7  2800     R  	jmp _L27
 224  00C8              #line 224 "D:\WORK\Project\Github\Holtel-MCU\Code\HT66FM5440\110V_hbridge\bdc_control.c"
 224  00C8  0F01        	mov a,1
 224  00C9  0080     R  	mov _direction_test[0],a
 224  00CA  1F00     R  	clr _direction_test[1]
 225  00CB              #line 225 "D:\WORK\Project\Github\Holtel-MCU\Code\HT66FM5440\110V_hbridge\bdc_control.c"
 225  00CB  0F07        	mov a,7
 225  00CC  0080     R  	mov _motor_state[0],a
 225  00CD  2800     R  	jmp _L28
 225  00CE              _L27:
 227  00CE              #line 227 "D:\WORK\Project\Github\Holtel-MCU\Code\HT66FM5440\110V_hbridge\bdc_control.c"
 227  00CE  0700     R  	mov a,_direction_test[0]
 227  00CF  0080     E  	mov ra,a
 227  00D0  0700     R  	mov a,_direction_test[1]
 227  00D1  0080     E  	mov rb,a
 227  00D2  0700     E  	mov a,ra
 227  00D3  0C01        	xor a,1
 227  00D4  0500     E  	or a,rb
 227  00D5  390A        	snz z
 227  00D6  2800     R  	jmp _L29
 229  00D7              #line 229 "D:\WORK\Project\Github\Holtel-MCU\Code\HT66FM5440\110V_hbridge\bdc_control.c"
 229  00D7  1F00     R  	clr _direction_test[0]
 229  00D8  1F00     R  	clr _direction_test[1]
 230  00D9              #line 230 "D:\WORK\Project\Github\Holtel-MCU\Code\HT66FM5440\110V_hbridge\bdc_control.c"
 230  00D9  0F06        	mov a,6
 230  00DA  0080     R  	mov _motor_state[0],a
 230  00DB  2800     R  	jmp _L28
 230  00DC              _L29:
 233  00DC              #line 233 "D:\WORK\Project\Github\Holtel-MCU\Code\HT66FM5440\110V_hbridge\bdc_control.c"
 233  00DC  0F02        	mov a,2
 233  00DD  0080     R  	mov _motor_state[0],a
 234  00DE              #line 234 "D:\WORK\Project\Github\Holtel-MCU\Code\HT66FM5440\110V_hbridge\bdc_control.c"
 234  00DE  2800     R  	jmp _L5
 234  00DF              _L28:
 234  00DF  2800     R  	jmp _L5
 234  00E0              _L21:
 236  00E0              #line 236 "D:\WORK\Project\Github\Holtel-MCU\Code\HT66FM5440\110V_hbridge\bdc_control.c"
 236  00E0  1F00     E  	clr ra
 236  00E1  3C00     R  	sz _f_testmode
"File: bdc_control.c  Assembler  Version HGASM0202      Page 11

 236  00E2  3000     E  	set ra.0
 236  00E3  3800     E  	snz ra.0
 236  00E4  2800     R  	jmp _L30
 236  00E5  1F00     E  	clr ra
 236  00E6  3C00     R  	sz _f_ms
 236  00E7  3000     E  	set ra.0
 236  00E8  3800     E  	snz ra.0
 236  00E9  2800     R  	jmp _L31
 236  00EA              _L30:
 238  00EA              #line 238 "D:\WORK\Project\Github\Holtel-MCU\Code\HT66FM5440\110V_hbridge\bdc_control.c"
 238  00EA  0FB8        	mov a,-72
 238  00EB  0080     R  	mov _cnt_ms[0],a
 238  00EC  0F0B        	mov a,11
 238  00ED  0080     R  	mov _cnt_ms[1],a
 239  00EE              #line 239 "D:\WORK\Project\Github\Holtel-MCU\Code\HT66FM5440\110V_hbridge\bdc_control.c"
 239  00EE  3400     R  	clr _f_ms
 240  00EF              #line 240 "D:\WORK\Project\Github\Holtel-MCU\Code\HT66FM5440\110V_hbridge\bdc_control.c"
 240  00EF  0F90        	mov a,-112
 240  00F0  0080     R  	mov _pwmduty_now[0],a
 240  00F1  0F01        	mov a,1
 240  00F2  0080     R  	mov _pwmduty_now[1],a
 241  00F3              #line 241 "D:\WORK\Project\Github\Holtel-MCU\Code\HT66FM5440\110V_hbridge\bdc_control.c"
 241  00F3  0F02        	mov a,2
 241  00F4  0080     R  	mov _motor_state[0],a
 241  00F5  2800     R  	jmp _L32
 241  00F6              _L31:
 245  00F6              #line 245 "D:\WORK\Project\Github\Holtel-MCU\Code\HT66FM5440\110V_hbridge\bdc_control.c"
 245  00F6  0700     R  	mov a,_pwmduty_now[0]
 245  00F7  0080     E  	mov ra,a
 245  00F8  0700     R  	mov a,_pwmduty_now[1]
 245  00F9  0080     E  	mov rb,a
 245  00FA  0F0A        	mov a,10
 245  00FB  0380     E  	addm a,ra
 245  00FC  0F00        	mov a,0
 245  00FD  1380     E  	adcm a,rb
 245  00FE  0700     E  	mov a,ra
 245  00FF  0080     R  	mov _pwmduty_temp[0],a
 245  0100  0700     E  	mov a,rb
 245  0101  0080     R  	mov _pwmduty_temp[1],a
 246  0102              #line 246 "D:\WORK\Project\Github\Holtel-MCU\Code\HT66FM5440\110V_hbridge\bdc_control.c"
 246  0102  0700     R  	mov a,_pwmduty_temp[0]
 246  0103  0080     E  	mov ra,a
 246  0104  0700     R  	mov a,_pwmduty_temp[1]
 246  0105  0080     E  	mov rb,a
 246  0106  0FEE        	mov a,238
 246  0107  0200     E  	sub a,ra
 246  0108  0F02        	mov a,2
 246  0109  1200     E  	sbc a,rb
 246  010A  3C0A        	sz c
 246  010B  2800     R  	jmp _L33
 247  010C              #line 247 "D:\WORK\Project\Github\Holtel-MCU\Code\HT66FM5440\110V_hbridge\bdc_control.c"
 247  010C  0FEE        	mov a,-18
 247  010D  0080     R  	mov _pwmduty_now[0],a
 247  010E  0F02        	mov a,2
 247  010F  0080     R  	mov _pwmduty_now[1],a
 247  0110  2800     R  	jmp _L32
 247  0111              _L33:
 249  0111              #line 249 "D:\WORK\Project\Github\Holtel-MCU\Code\HT66FM5440\110V_hbridge\bdc_control.c"
 249  0111  0700     R  	mov a,_pwmduty_temp[0]
 249  0112  0080     E  	mov ra,a
"File: bdc_control.c  Assembler  Version HGASM0202      Page 12

 249  0113  0700     R  	mov a,_pwmduty_temp[1]
 249  0114  0080     E  	mov rb,a
 249  0115  0700     E  	mov a,ra
 249  0116  0080     R  	mov _pwmduty_now[0],a
 249  0117  0700     E  	mov a,rb
 249  0118  0080     R  	mov _pwmduty_now[1],a
 251  0119              #line 251 "D:\WORK\Project\Github\Holtel-MCU\Code\HT66FM5440\110V_hbridge\bdc_control.c"
 251  0119  2800     R  	jmp _L5
 251  011A              _L32:
 251  011A  2800     R  	jmp _L5
 251  011B              _L22:
 253  011B              #line 253 "D:\WORK\Project\Github\Holtel-MCU\Code\HT66FM5440\110V_hbridge\bdc_control.c"
 253  011B  1F00     E  	clr ra
 253  011C  3C00     R  	sz _f_testmode
 253  011D  3000     E  	set ra.0
 253  011E  3800     E  	snz ra.0
 253  011F  2800     R  	jmp _L34
 253  0120  1F00     E  	clr ra
 253  0121  3C00     R  	sz _f_ms
 253  0122  3000     E  	set ra.0
 253  0123  3800     E  	snz ra.0
 253  0124  2800     R  	jmp _L35
 253  0125              _L34:
 255  0125              #line 255 "D:\WORK\Project\Github\Holtel-MCU\Code\HT66FM5440\110V_hbridge\bdc_control.c"
 255  0125  0FB8        	mov a,-72
 255  0126  0080     R  	mov _cnt_ms[0],a
 255  0127  0F0B        	mov a,11
 255  0128  0080     R  	mov _cnt_ms[1],a
 256  0129              #line 256 "D:\WORK\Project\Github\Holtel-MCU\Code\HT66FM5440\110V_hbridge\bdc_control.c"
 256  0129  3400     R  	clr _f_ms
 257  012A              #line 257 "D:\WORK\Project\Github\Holtel-MCU\Code\HT66FM5440\110V_hbridge\bdc_control.c"
 257  012A  0F90        	mov a,-112
 257  012B  0080     R  	mov _pwmduty_now[0],a
 257  012C  0F01        	mov a,1
 257  012D  0080     R  	mov _pwmduty_now[1],a
 258  012E              #line 258 "D:\WORK\Project\Github\Holtel-MCU\Code\HT66FM5440\110V_hbridge\bdc_control.c"
 258  012E  0F02        	mov a,2
 258  012F  0080     R  	mov _motor_state[0],a
 258  0130  2800     R  	jmp _L36
 258  0131              _L35:
 262  0131              #line 262 "D:\WORK\Project\Github\Holtel-MCU\Code\HT66FM5440\110V_hbridge\bdc_control.c"
 262  0131  0700     R  	mov a,_pwmduty_now[0]
 262  0132  0080     E  	mov ra,a
 262  0133  0700     R  	mov a,_pwmduty_now[1]
 262  0134  0080     E  	mov rb,a
 262  0135  0F0A        	mov a,10
 262  0136  0380     E  	addm a,ra
 262  0137  0F00        	mov a,0
 262  0138  1380     E  	adcm a,rb
 262  0139  0700     E  	mov a,ra
 262  013A  0080     R  	mov _pwmduty_temp[0],a
 262  013B  0700     E  	mov a,rb
 262  013C  0080     R  	mov _pwmduty_temp[1],a
 263  013D              #line 263 "D:\WORK\Project\Github\Holtel-MCU\Code\HT66FM5440\110V_hbridge\bdc_control.c"
 263  013D  0700     R  	mov a,_pwmduty_temp[0]
 263  013E  0080     E  	mov ra,a
 263  013F  0700     R  	mov a,_pwmduty_temp[1]
 263  0140  0080     E  	mov rb,a
 263  0141  0FEE        	mov a,238
 263  0142  0200     E  	sub a,ra
"File: bdc_control.c  Assembler  Version HGASM0202      Page 13

 263  0143  0F02        	mov a,2
 263  0144  1200     E  	sbc a,rb
 263  0145  3C0A        	sz c
 263  0146  2800     R  	jmp _L37
 264  0147              #line 264 "D:\WORK\Project\Github\Holtel-MCU\Code\HT66FM5440\110V_hbridge\bdc_control.c"
 264  0147  0FEE        	mov a,-18
 264  0148  0080     R  	mov _pwmduty_now[0],a
 264  0149  0F02        	mov a,2
 264  014A  0080     R  	mov _pwmduty_now[1],a
 264  014B  2800     R  	jmp _L36
 264  014C              _L37:
 266  014C              #line 266 "D:\WORK\Project\Github\Holtel-MCU\Code\HT66FM5440\110V_hbridge\bdc_control.c"
 266  014C  0700     R  	mov a,_pwmduty_temp[0]
 266  014D  0080     E  	mov ra,a
 266  014E  0700     R  	mov a,_pwmduty_temp[1]
 266  014F  0080     E  	mov rb,a
 266  0150  0700     E  	mov a,ra
 266  0151  0080     R  	mov _pwmduty_now[0],a
 266  0152  0700     E  	mov a,rb
 266  0153  0080     R  	mov _pwmduty_now[1],a
 268  0154              #line 268 "D:\WORK\Project\Github\Holtel-MCU\Code\HT66FM5440\110V_hbridge\bdc_control.c"
 268  0154  2800     R  	jmp _L5
 268  0155              _L36:
 268  0155  2800     R  	jmp _L5
 268  0156              _L17:
 270  0156              #line 270 "D:\WORK\Project\Github\Holtel-MCU\Code\HT66FM5440\110V_hbridge\bdc_control.c"
 270  0156  0F05        	mov a,5
 270  0157  0080     R  	mov _pwmduty_temp[0],a
 270  0158  1F00     R  	clr _pwmduty_temp[1]
 271  0159              #line 271 "D:\WORK\Project\Github\Holtel-MCU\Code\HT66FM5440\110V_hbridge\bdc_control.c"
 271  0159  0700     R  	mov a,_pwmduty_now[0]
 271  015A  0080     E  	mov rc,a
 271  015B  0700     R  	mov a,_pwmduty_now[1]
 271  015C  0080     E  	mov rd,a
 271  015D  0700     R  	mov a,_pwmduty_temp[0]
 271  015E  0080     E  	mov ra,a
 271  015F  0700     R  	mov a,_pwmduty_temp[1]
 271  0160  0080     E  	mov rb,a
 271  0161  0700     E  	mov a,rc
 271  0162  0200     E  	sub a,ra
 271  0163  0700     E  	mov a,rd
 271  0164  1200     E  	sbc a,rb
 271  0165  3C0A        	sz c
 271  0166  2800     R  	jmp _L38
 273  0167              #line 273 "D:\WORK\Project\Github\Holtel-MCU\Code\HT66FM5440\110V_hbridge\bdc_control.c"
 273  0167  1F00     R  	clr _pwmduty_now[0]
 273  0168  1F00     R  	clr _pwmduty_now[1]
 274  0169              #line 274 "D:\WORK\Project\Github\Holtel-MCU\Code\HT66FM5440\110V_hbridge\bdc_control.c"
 274  0169  0F01        	mov a,1
 274  016A  0080     R  	mov _motor_state[0],a
 278  016B              #line 278 "D:\WORK\Project\Github\Holtel-MCU\Code\HT66FM5440\110V_hbridge\bdc_control.c"
 278  016B  2800     R  	jmp _L5
 278  016C              _L38:
 277  016C              #line 277 "D:\WORK\Project\Github\Holtel-MCU\Code\HT66FM5440\110V_hbridge\bdc_control.c"
 277  016C  0700     R  	mov a,_pwmduty_now[0]
 277  016D  0080     E  	mov rc,a
 277  016E  0700     R  	mov a,_pwmduty_now[1]
 277  016F  0080     E  	mov rd,a
 277  0170  0700     R  	mov a,_pwmduty_temp[0]
 277  0171  0080     E  	mov ra,a
"File: bdc_control.c  Assembler  Version HGASM0202      Page 14

 277  0172  0700     R  	mov a,_pwmduty_temp[1]
 277  0173  0080     E  	mov rb,a
 277  0174  0700     E  	mov a,rc
 277  0175  0280     E  	subm a,ra
 277  0176  0700     E  	mov a,rd
 277  0177  1280     E  	sbcm a,rb
 277  0178  0700     E  	mov a,ra
 277  0179  0080     R  	mov _pwmduty_now[0],a
 277  017A  0700     E  	mov a,rb
 277  017B  0080     R  	mov _pwmduty_now[1],a
 278  017C              #line 278 "D:\WORK\Project\Github\Holtel-MCU\Code\HT66FM5440\110V_hbridge\bdc_control.c"
 278  017C  2800     R  	jmp _L5
 278  017D              _L18:
 281  017D              #line 281 "D:\WORK\Project\Github\Holtel-MCU\Code\HT66FM5440\110V_hbridge\bdc_control.c"
 281  017D  0700     R  	mov a,_direction[0]
 281  017E  0080     E  	mov ra,a
 281  017F  0700     R  	mov a,_direction[1]
 281  0180  0080     E  	mov rb,a
 281  0181  0700     E  	mov a,ra
 281  0182  0500     E  	or a,rb
 281  0183  3D0A        	sz z
 281  0184  2800     R  	jmp _L40
 283  0185              #line 283 "D:\WORK\Project\Github\Holtel-MCU\Code\HT66FM5440\110V_hbridge\bdc_control.c"
 283  0185  0F90        	mov a,-112
 283  0186  0080     R  	mov _pwmduty_now[0],a
 283  0187  0F01        	mov a,1
 283  0188  0080     R  	mov _pwmduty_now[1],a
 284  0189              #line 284 "D:\WORK\Project\Github\Holtel-MCU\Code\HT66FM5440\110V_hbridge\bdc_control.c"
 284  0189  0F02        	mov a,2
 284  018A  0080     R  	mov _motor_state[0],a
 284  018B  2800     R  	jmp _L41
 284  018C              _L40:
 288  018C              #line 288 "D:\WORK\Project\Github\Holtel-MCU\Code\HT66FM5440\110V_hbridge\bdc_control.c"
 288  018C  0700     R  	mov a,_pwmduty_now[0]
 288  018D  0080     E  	mov ra,a
 288  018E  0700     R  	mov a,_pwmduty_now[1]
 288  018F  0080     E  	mov rb,a
 288  0190  0F0A        	mov a,10
 288  0191  0380     E  	addm a,ra
 288  0192  0F00        	mov a,0
 288  0193  1380     E  	adcm a,rb
 288  0194  0700     E  	mov a,ra
 288  0195  0080     R  	mov _pwmduty_temp[0],a
 288  0196  0700     E  	mov a,rb
 288  0197  0080     R  	mov _pwmduty_temp[1],a
 289  0198              #line 289 "D:\WORK\Project\Github\Holtel-MCU\Code\HT66FM5440\110V_hbridge\bdc_control.c"
 289  0198  0700     R  	mov a,_pwmduty_temp[0]
 289  0199  0080     E  	mov ra,a
 289  019A  0700     R  	mov a,_pwmduty_temp[1]
 289  019B  0080     E  	mov rb,a
 289  019C  0FEE        	mov a,238
 289  019D  0200     E  	sub a,ra
 289  019E  0F02        	mov a,2
 289  019F  1200     E  	sbc a,rb
 289  01A0  3C0A        	sz c
 289  01A1  2800     R  	jmp _L42
 290  01A2              #line 290 "D:\WORK\Project\Github\Holtel-MCU\Code\HT66FM5440\110V_hbridge\bdc_control.c"
 290  01A2  0FEE        	mov a,-18
 290  01A3  0080     R  	mov _pwmduty_now[0],a
 290  01A4  0F02        	mov a,2
"File: bdc_control.c  Assembler  Version HGASM0202      Page 15

 290  01A5  0080     R  	mov _pwmduty_now[1],a
 290  01A6  2800     R  	jmp _L41
 290  01A7              _L42:
 292  01A7              #line 292 "D:\WORK\Project\Github\Holtel-MCU\Code\HT66FM5440\110V_hbridge\bdc_control.c"
 292  01A7  0700     R  	mov a,_pwmduty_temp[0]
 292  01A8  0080     E  	mov ra,a
 292  01A9  0700     R  	mov a,_pwmduty_temp[1]
 292  01AA  0080     E  	mov rb,a
 292  01AB  0700     E  	mov a,ra
 292  01AC  0080     R  	mov _pwmduty_now[0],a
 292  01AD  0700     E  	mov a,rb
 292  01AE  0080     R  	mov _pwmduty_now[1],a
 294  01AF              #line 294 "D:\WORK\Project\Github\Holtel-MCU\Code\HT66FM5440\110V_hbridge\bdc_control.c"
 294  01AF  2800     R  	jmp _L5
 294  01B0              _L41:
 294  01B0  2800     R  	jmp _L5
 294  01B1              _L19:
 297  01B1              #line 297 "D:\WORK\Project\Github\Holtel-MCU\Code\HT66FM5440\110V_hbridge\bdc_control.c"
 297  01B1  0700     R  	mov a,_direction[0]
 297  01B2  0080     E  	mov ra,a
 297  01B3  0700     R  	mov a,_direction[1]
 297  01B4  0080     E  	mov rb,a
 297  01B5  0700     E  	mov a,ra
 297  01B6  0C01        	xor a,1
 297  01B7  0500     E  	or a,rb
 297  01B8  3D0A        	sz z
 297  01B9  2800     R  	jmp _L43
 299  01BA              #line 299 "D:\WORK\Project\Github\Holtel-MCU\Code\HT66FM5440\110V_hbridge\bdc_control.c"
 299  01BA  0F90        	mov a,-112
 299  01BB  0080     R  	mov _pwmduty_now[0],a
 299  01BC  0F01        	mov a,1
 299  01BD  0080     R  	mov _pwmduty_now[1],a
 300  01BE              #line 300 "D:\WORK\Project\Github\Holtel-MCU\Code\HT66FM5440\110V_hbridge\bdc_control.c"
 300  01BE  0F02        	mov a,2
 300  01BF  0080     R  	mov _motor_state[0],a
 300  01C0  2800     R  	jmp _L44
 300  01C1              _L43:
 304  01C1              #line 304 "D:\WORK\Project\Github\Holtel-MCU\Code\HT66FM5440\110V_hbridge\bdc_control.c"
 304  01C1  0700     R  	mov a,_pwmduty_now[0]
 304  01C2  0080     E  	mov ra,a
 304  01C3  0700     R  	mov a,_pwmduty_now[1]
 304  01C4  0080     E  	mov rb,a
 304  01C5  0F0A        	mov a,10
 304  01C6  0380     E  	addm a,ra
 304  01C7  0F00        	mov a,0
 304  01C8  1380     E  	adcm a,rb
 304  01C9  0700     E  	mov a,ra
 304  01CA  0080     R  	mov _pwmduty_temp[0],a
 304  01CB  0700     E  	mov a,rb
 304  01CC  0080     R  	mov _pwmduty_temp[1],a
 305  01CD              #line 305 "D:\WORK\Project\Github\Holtel-MCU\Code\HT66FM5440\110V_hbridge\bdc_control.c"
 305  01CD  0700     R  	mov a,_pwmduty_temp[0]
 305  01CE  0080     E  	mov ra,a
 305  01CF  0700     R  	mov a,_pwmduty_temp[1]
 305  01D0  0080     E  	mov rb,a
 305  01D1  0FEE        	mov a,238
 305  01D2  0200     E  	sub a,ra
 305  01D3  0F02        	mov a,2
 305  01D4  1200     E  	sbc a,rb
 305  01D5  3C0A        	sz c
"File: bdc_control.c  Assembler  Version HGASM0202      Page 16

 305  01D6  2800     R  	jmp _L45
 306  01D7              #line 306 "D:\WORK\Project\Github\Holtel-MCU\Code\HT66FM5440\110V_hbridge\bdc_control.c"
 306  01D7  0FEE        	mov a,-18
 306  01D8  0080     R  	mov _pwmduty_now[0],a
 306  01D9  0F02        	mov a,2
 306  01DA  0080     R  	mov _pwmduty_now[1],a
 306  01DB  2800     R  	jmp _L44
 306  01DC              _L45:
 308  01DC              #line 308 "D:\WORK\Project\Github\Holtel-MCU\Code\HT66FM5440\110V_hbridge\bdc_control.c"
 308  01DC  0700     R  	mov a,_pwmduty_temp[0]
 308  01DD  0080     E  	mov ra,a
 308  01DE  0700     R  	mov a,_pwmduty_temp[1]
 308  01DF  0080     E  	mov rb,a
 308  01E0  0700     E  	mov a,ra
 308  01E1  0080     R  	mov _pwmduty_now[0],a
 308  01E2  0700     E  	mov a,rb
 308  01E3  0080     R  	mov _pwmduty_now[1],a
 310  01E4              #line 310 "D:\WORK\Project\Github\Holtel-MCU\Code\HT66FM5440\110V_hbridge\bdc_control.c"
 310  01E4  2800     R  	jmp _L5
 310  01E5              _L44:
 310  01E5  2800     R  	jmp _L5
 310  01E6              _L48:
 313  01E6              #line 313 "D:\WORK\Project\Github\Holtel-MCU\Code\HT66FM5440\110V_hbridge\bdc_control.c"
 313  01E6  1F00     R  	clr _motor_state[0]
 314  01E7              #line 314 "D:\WORK\Project\Github\Holtel-MCU\Code\HT66FM5440\110V_hbridge\bdc_control.c"
 314  01E7              	;nop
 314  01E7              _L5:
 318  01E7              #line 318 "D:\WORK\Project\Github\Holtel-MCU\Code\HT66FM5440\110V_hbridge\bdc_control.c"
 318  01E7  1F00     E  	clr ra
 318  01E8  3C00     R  	sz _f_200ms
 318  01E9  3000     E  	set ra.0
 318  01EA  3800     E  	snz ra.0
 318  01EB  2800     R  	jmp _L46
 320  01EC              #line 320 "D:\WORK\Project\Github\Holtel-MCU\Code\HT66FM5440\110V_hbridge\bdc_control.c"
 320  01EC  3400     R  	clr _f_200ms
 326  01ED              #line 326 "D:\WORK\Project\Github\Holtel-MCU\Code\HT66FM5440\110V_hbridge\bdc_control.c"
 326  01ED  2800     R  	jmp _L47
 326  01EE              _L46:
 326  01EE  2800     R  	jmp _L47
 326  01EF  2800     R  	jmp $
 326  01F0              _main endp
 326  01F0              
 326  01F0              @dummy endp
 326  01F0              
 326  01F0              #line 326 "D:\WORK\Project\Github\Holtel-MCU\Code\HT66FM5440\110V_hbridge\bdc_control.c"
 326  01F0              #pragma debug scope 1 1
 326  01F0              ___pb equ [38]
 326  01F0              public _handle_key
 326  01F0              #pragma debug scope 3 1
 330  01F0              #line 330 "D:\WORK\Project\Github\Holtel-MCU\Code\HT66FM5440\110V_hbridge\bdc_control.c"
 330  0000              _handle_key .section 'code'
 330  0000              _handle_key proc
 330  0000  00              local _handle_key_2 db 1 dup(?)	; 0,1
 330  0001              #pragma debug variable 8 3 _handle_key_2+0 "key_now"
 333  0001              #line 333 "D:\WORK\Project\Github\Holtel-MCU\Code\HT66FM5440\110V_hbridge\bdc_control.c"
 333  0000  0726        	mov a,[38]
 333  0001  0080     E  	mov ra,a
 333  0002  340A        	clr c
 333  0003  1B80     E  	rrc ra
 333  0004  340A        	clr c
"File: bdc_control.c  Assembler  Version HGASM0202      Page 17

 333  0005  1B80     E  	rrc ra
 333  0006  0F01        	mov a,1
 333  0007  0680     E  	andm a,ra
 333  0008  1F00     E  	clr rb
 333  0009  340A        	clr c
 333  000A  1A80     E  	rlc ra
 333  000B  1A80     E  	rlc rb
 333  000C  340A        	clr c
 333  000D  1A80     E  	rlc ra
 333  000E  1A80     E  	rlc rb
 333  000F  0700     E  	mov a,ra
 333  0010  0080     E  	mov rc,a
 333  0011  0726        	mov a,[38]
 333  0012  0080     E  	mov ra,a
 333  0013  340A        	clr c
 333  0014  1B80     E  	rrc ra
 333  0015  0F01        	mov a,1
 333  0016  0680     E  	andm a,ra
 333  0017  1F00     E  	clr rb
 333  0018  340A        	clr c
 333  0019  1A80     E  	rlc ra
 333  001A  1A80     E  	rlc rb
 333  001B  0700     E  	mov a,rc
 333  001C  0500     E  	or a,ra
 333  001D  0080     E  	mov rb,a
 333  001E  0726        	mov a,[38]
 333  001F  0080     E  	mov ra,a
 333  0020  0F01        	mov a,1
 333  0021  0680     E  	andm a,ra
 333  0022  0700     E  	mov a,rb
 333  0023  0580     E  	orm a,ra
 333  0024  0100     E  	cpla ra
 333  0025  0080     R  	mov _handle_key_2[0],a
 335  0026              #line 335 "D:\WORK\Project\Github\Holtel-MCU\Code\HT66FM5440\110V_hbridge\bdc_control.c"
 335  0026  0700     R  	mov a,_handle_key_2[0]
 335  0027  0080     E  	mov ra,a
 335  0028  1F00     E  	clr rb
 335  0029  0F07        	mov a,7  
 335  002A  0680     E  	andm a,ra  
 335  002B  0F00        	mov a,0  
 335  002C  0680     E  	andm a,rb
 335  002D  0700     E  	mov a,ra
 335  002E  0C01        	xor a,1
 335  002F  0500     E  	or a,rb
 335  0030  390A        	snz z
 335  0031  2800     R  	jmp _L50
 337  0032              #line 337 "D:\WORK\Project\Github\Holtel-MCU\Code\HT66FM5440\110V_hbridge\bdc_control.c"
 337  0032  0F01        	mov a,1
 337  0033  0080     R  	mov _direction[0],a
 337  0034  1F00     R  	clr _direction[1]
 337  0035  2800     R  	jmp _L51
 337  0036              _L50:
 339  0036              #line 339 "D:\WORK\Project\Github\Holtel-MCU\Code\HT66FM5440\110V_hbridge\bdc_control.c"
 339  0036  0700     R  	mov a,_handle_key_2[0]
 339  0037  0080     E  	mov ra,a
 339  0038  1F00     E  	clr rb
 339  0039  0F07        	mov a,7  
 339  003A  0680     E  	andm a,ra  
 339  003B  0F00        	mov a,0  
 339  003C  0680     E  	andm a,rb
"File: bdc_control.c  Assembler  Version HGASM0202      Page 18

 339  003D  0700     E  	mov a,ra
 339  003E  0C02        	xor a,2
 339  003F  0500     E  	or a,rb
 339  0040  390A        	snz z
 339  0041  2800     R  	jmp _L52
 341  0042              #line 341 "D:\WORK\Project\Github\Holtel-MCU\Code\HT66FM5440\110V_hbridge\bdc_control.c"
 341  0042  1F00     R  	clr _direction[0]
 341  0043  1F00     R  	clr _direction[1]
 341  0044  2800     R  	jmp _L51
 341  0045              _L52:
 344  0045              #line 344 "D:\WORK\Project\Github\Holtel-MCU\Code\HT66FM5440\110V_hbridge\bdc_control.c"
 344  0045  0F02        	mov a,2
 344  0046  0080     R  	mov _direction[0],a
 344  0047  1F00     R  	clr _direction[1]
 344  0048              _L51:
 346  0048              #line 346 "D:\WORK\Project\Github\Holtel-MCU\Code\HT66FM5440\110V_hbridge\bdc_control.c"
 346  0048  0700     R  	mov a,_handle_key_2[0]
 346  0049  0080     E  	mov ra,a
 346  004A  1F00     E  	clr rb
 346  004B  0F04        	mov a,4  
 346  004C  0680     E  	andm a,ra  
 346  004D  0F00        	mov a,0  
 346  004E  0680     E  	andm a,rb
 346  004F  0700     E  	mov a,ra
 346  0050  0500     E  	or a,rb
 346  0051  3D0A        	sz z
 346  0052  2800     R  	jmp _L53
 348  0053              #line 348 "D:\WORK\Project\Github\Holtel-MCU\Code\HT66FM5440\110V_hbridge\bdc_control.c"
 348  0053  3000     R  	set _f_testmode
 348  0054  2800     R  	jmp _L49
 348  0055              _L53:
 351  0055              #line 351 "D:\WORK\Project\Github\Holtel-MCU\Code\HT66FM5440\110V_hbridge\bdc_control.c"
 351  0055  3400     R  	clr _f_testmode
 351  0056              _L49:
 351  0056  0003        	ret
 351  0057              _handle_key endp
 351  0057              #line 351 "D:\WORK\Project\Github\Holtel-MCU\Code\HT66FM5440\110V_hbridge\bdc_control.c"
 351  0057              #pragma debug scope 1 1
 351  0057              ___paps0 equ [378]
 351  0057              ___pdps0 equ [382]
 351  0057              ___pbpu equ [37]
 351  0057              ___pbc equ [39]
 351  0057              ___pac equ [36]
 351  0057              public _gpio_init
 351  0057              #pragma debug scope 4 1
 358  0057              #line 358 "D:\WORK\Project\Github\Holtel-MCU\Code\HT66FM5440\110V_hbridge\bdc_control.c"
 358  0000              _gpio_init .section 'code'
 358  0000              _gpio_init proc
 361  0000              #line 361 "D:\WORK\Project\Github\Holtel-MCU\Code\HT66FM5440\110V_hbridge\bdc_control.c"
 361  0000  B1FA 0001   	lset [378].3
 362  0002              #line 362 "D:\WORK\Project\Github\Holtel-MCU\Code\HT66FM5440\110V_hbridge\bdc_control.c"
 362  0002  B57A 0001   	lclr [378].2
 365  0004              #line 365 "D:\WORK\Project\Github\Holtel-MCU\Code\HT66FM5440\110V_hbridge\bdc_control.c"
 365  0004  877E 0001   	lmov a,[382]
 365  0006  0080     E  	mov ra,a
 365  0007  0FC0        	mov a,192
 365  0008  0680     E  	andm a,ra
 365  0009  0700     E  	mov a,ra
 365  000A  80FE 0001   	lmov [382],a
 367  000C              #line 367 "D:\WORK\Project\Github\Holtel-MCU\Code\HT66FM5440\110V_hbridge\bdc_control.c"
"File: bdc_control.c  Assembler  Version HGASM0202      Page 19

 367  000C  3026        	set [38].0
 368  000D              #line 368 "D:\WORK\Project\Github\Holtel-MCU\Code\HT66FM5440\110V_hbridge\bdc_control.c"
 368  000D  30A6        	set [38].1
 369  000E              #line 369 "D:\WORK\Project\Github\Holtel-MCU\Code\HT66FM5440\110V_hbridge\bdc_control.c"
 369  000E  3126        	set [38].2
 370  000F              #line 370 "D:\WORK\Project\Github\Holtel-MCU\Code\HT66FM5440\110V_hbridge\bdc_control.c"
 370  000F  3025        	set [37].0
 371  0010              #line 371 "D:\WORK\Project\Github\Holtel-MCU\Code\HT66FM5440\110V_hbridge\bdc_control.c"
 371  0010  30A5        	set [37].1
 372  0011              #line 372 "D:\WORK\Project\Github\Holtel-MCU\Code\HT66FM5440\110V_hbridge\bdc_control.c"
 372  0011  3125        	set [37].2
 373  0012              #line 373 "D:\WORK\Project\Github\Holtel-MCU\Code\HT66FM5440\110V_hbridge\bdc_control.c"
 373  0012  3027        	set [39].0
 374  0013              #line 374 "D:\WORK\Project\Github\Holtel-MCU\Code\HT66FM5440\110V_hbridge\bdc_control.c"
 374  0013  30A7        	set [39].1
 375  0014              #line 375 "D:\WORK\Project\Github\Holtel-MCU\Code\HT66FM5440\110V_hbridge\bdc_control.c"
 375  0014  3127        	set [39].2
 378  0015              #line 378 "D:\WORK\Project\Github\Holtel-MCU\Code\HT66FM5440\110V_hbridge\bdc_control.c"
 378  0015  35A3        	clr [35].3
 379  0016              #line 379 "D:\WORK\Project\Github\Holtel-MCU\Code\HT66FM5440\110V_hbridge\bdc_control.c"
 379  0016  3623        	clr [35].4
 380  0017              #line 380 "D:\WORK\Project\Github\Holtel-MCU\Code\HT66FM5440\110V_hbridge\bdc_control.c"
 380  0017  35A4        	clr [36].3
 381  0018              #line 381 "D:\WORK\Project\Github\Holtel-MCU\Code\HT66FM5440\110V_hbridge\bdc_control.c"
 381  0018  3624        	clr [36].4
 382  0019              #line 382 "D:\WORK\Project\Github\Holtel-MCU\Code\HT66FM5440\110V_hbridge\bdc_control.c"
 382  0019  36A3        	clr [35].5
 383  001A              #line 383 "D:\WORK\Project\Github\Holtel-MCU\Code\HT66FM5440\110V_hbridge\bdc_control.c"
 383  001A  36A4        	clr [36].5
 383  001B  0003        	ret
 383  001C              _gpio_init endp
 383  001C              #line 383 "D:\WORK\Project\Github\Holtel-MCU\Code\HT66FM5440\110V_hbridge\bdc_control.c"
 383  001C              #pragma debug scope 1 1
 383  001C              ___pc equ [41]
 383  001C              ___pcc equ [42]
 383  001C              ___pwmcs equ [341]
 383  001C              ___dutr0h equ [89]
 383  001C              ___dutr0l equ [88]
 383  001C              ___prdrh equ [95]
 383  001C              ___prdrl equ [94]
 383  001C              ___mcf equ [100]
 383  001C              ___pwmme equ [98]
 383  001C              ___pwmmd equ [99]
 383  001C              ___dts equ [102]
 383  001C              ___plc equ [103]
 383  001C              ___mptc1 equ [75]
 383  001C              ___mptc2 equ [76]
 383  001C              ___ocps equ [68]
 383  001C              ___mfi1 equ [26]
 383  001C              public _pwm_init
 383  001C              #pragma debug scope 5 1
 388  001C              #line 388 "D:\WORK\Project\Github\Holtel-MCU\Code\HT66FM5440\110V_hbridge\bdc_control.c"
 388  0000              _pwm_init .section 'code'
 388  0000              _pwm_init proc
 390  0000              #line 390 "D:\WORK\Project\Github\Holtel-MCU\Code\HT66FM5440\110V_hbridge\bdc_control.c"
 390  0000  1F29        	clr [41]
 391  0001              #line 391 "D:\WORK\Project\Github\Holtel-MCU\Code\HT66FM5440\110V_hbridge\bdc_control.c"
 391  0001  1F2A        	clr [42]
 396  0002              #line 396 "D:\WORK\Project\Github\Holtel-MCU\Code\HT66FM5440\110V_hbridge\bdc_control.c"
 396  0002  37D7        	clr [87].7
"File: bdc_control.c  Assembler  Version HGASM0202      Page 20

 397  0003              #line 397 "D:\WORK\Project\Github\Holtel-MCU\Code\HT66FM5440\110V_hbridge\bdc_control.c"
 397  0003  3757        	clr [87].6
 399  0004              #line 399 "D:\WORK\Project\Github\Holtel-MCU\Code\HT66FM5440\110V_hbridge\bdc_control.c"
 399  0004  35D7        	clr [87].3
 400  0005              #line 400 "D:\WORK\Project\Github\Holtel-MCU\Code\HT66FM5440\110V_hbridge\bdc_control.c"
 400  0005  3657        	clr [87].4
 401  0006              #line 401 "D:\WORK\Project\Github\Holtel-MCU\Code\HT66FM5440\110V_hbridge\bdc_control.c"
 401  0006  36D7        	clr [87].5
 402  0007              #line 402 "D:\WORK\Project\Github\Holtel-MCU\Code\HT66FM5440\110V_hbridge\bdc_control.c"
 402  0007  3057        	set [87].0
 405  0008              #line 405 "D:\WORK\Project\Github\Holtel-MCU\Code\HT66FM5440\110V_hbridge\bdc_control.c"
 405  0008  B155 0001   	lset [341].2
 406  000A              #line 406 "D:\WORK\Project\Github\Holtel-MCU\Code\HT66FM5440\110V_hbridge\bdc_control.c"
 406  000A  B0D5 0001   	lset [341].1
 407  000C              #line 407 "D:\WORK\Project\Github\Holtel-MCU\Code\HT66FM5440\110V_hbridge\bdc_control.c"
 407  000C  B055 0001   	lset [341].0
 410  000E              #line 410 "D:\WORK\Project\Github\Holtel-MCU\Code\HT66FM5440\110V_hbridge\bdc_control.c"
 410  000E  1F59        	clr [89]
 411  000F              #line 411 "D:\WORK\Project\Github\Holtel-MCU\Code\HT66FM5440\110V_hbridge\bdc_control.c"
 411  000F  1F58        	clr [88]
 412  0010              #line 412 "D:\WORK\Project\Github\Holtel-MCU\Code\HT66FM5440\110V_hbridge\bdc_control.c"
 412  0010  B155 0001   	lset [341].2
 413  0012              #line 413 "D:\WORK\Project\Github\Holtel-MCU\Code\HT66FM5440\110V_hbridge\bdc_control.c"
 413  0012  0F03        	mov a,3
 413  0013  00DF        	mov [95],a
 414  0014              #line 414 "D:\WORK\Project\Github\Holtel-MCU\Code\HT66FM5440\110V_hbridge\bdc_control.c"
 414  0014  0F20        	mov a,32
 414  0015  00DE        	mov [94],a
 420  0016              #line 420 "D:\WORK\Project\Github\Holtel-MCU\Code\HT66FM5440\110V_hbridge\bdc_control.c"
 420  0016  33E4        	set [100].7
 422  0017              #line 422 "D:\WORK\Project\Github\Holtel-MCU\Code\HT66FM5440\110V_hbridge\bdc_control.c"
 422  0017  35E4        	clr [100].3
 423  0018              #line 423 "D:\WORK\Project\Github\Holtel-MCU\Code\HT66FM5440\110V_hbridge\bdc_control.c"
 423  0018  3164        	set [100].2
 424  0019              #line 424 "D:\WORK\Project\Github\Holtel-MCU\Code\HT66FM5440\110V_hbridge\bdc_control.c"
 424  0019  34E4        	clr [100].1
 425  001A              #line 425 "D:\WORK\Project\Github\Holtel-MCU\Code\HT66FM5440\110V_hbridge\bdc_control.c"
 425  001A  3064        	set [100].0
 428  001B              #line 428 "D:\WORK\Project\Github\Holtel-MCU\Code\HT66FM5440\110V_hbridge\bdc_control.c"
 428  001B  1F62        	clr [98]
 431  001C              #line 431 "D:\WORK\Project\Github\Holtel-MCU\Code\HT66FM5440\110V_hbridge\bdc_control.c"
 431  001C  1F63        	clr [99]
 436  001D              #line 436 "D:\WORK\Project\Github\Holtel-MCU\Code\HT66FM5440\110V_hbridge\bdc_control.c"
 436  001D  33E6        	set [102].7
 437  001E              #line 437 "D:\WORK\Project\Github\Holtel-MCU\Code\HT66FM5440\110V_hbridge\bdc_control.c"
 437  001E  3366        	set [102].6
 438  001F              #line 438 "D:\WORK\Project\Github\Holtel-MCU\Code\HT66FM5440\110V_hbridge\bdc_control.c"
 438  001F  32E6        	set [102].5
 439  0020              #line 439 "D:\WORK\Project\Github\Holtel-MCU\Code\HT66FM5440\110V_hbridge\bdc_control.c"
 439  0020  0766        	mov a,[102]
 439  0021  0080     E  	mov ra,a
 439  0022  0FE0        	mov a,224
 439  0023  0680     E  	andm a,ra
 439  0024  0700     E  	mov a,ra
 439  0025  00E6        	mov [102],a
 439  0026  0700     E  	mov a,ra
 439  0027  00E6        	mov [102],a
 442  0028              #line 442 "D:\WORK\Project\Github\Holtel-MCU\Code\HT66FM5440\110V_hbridge\bdc_control.c"
 442  0028  1F67        	clr [103]
 446  0029              #line 446 "D:\WORK\Project\Github\Holtel-MCU\Code\HT66FM5440\110V_hbridge\bdc_control.c"
"File: bdc_control.c  Assembler  Version HGASM0202      Page 21

 446  0029  37CB        	clr [75].7
 447  002A              #line 447 "D:\WORK\Project\Github\Holtel-MCU\Code\HT66FM5440\110V_hbridge\bdc_control.c"
 447  002A  364C        	clr [76].4
 448  002B              #line 448 "D:\WORK\Project\Github\Holtel-MCU\Code\HT66FM5440\110V_hbridge\bdc_control.c"
 448  002B  35CC        	clr [76].3
 449  002C              #line 449 "D:\WORK\Project\Github\Holtel-MCU\Code\HT66FM5440\110V_hbridge\bdc_control.c"
 449  002C  354C        	clr [76].2
 450  002D              #line 450 "D:\WORK\Project\Github\Holtel-MCU\Code\HT66FM5440\110V_hbridge\bdc_control.c"
 450  002D  34CC        	clr [76].1
 451  002E              #line 451 "D:\WORK\Project\Github\Holtel-MCU\Code\HT66FM5440\110V_hbridge\bdc_control.c"
 451  002E  344C        	clr [76].0
 453  002F              #line 453 "D:\WORK\Project\Github\Holtel-MCU\Code\HT66FM5440\110V_hbridge\bdc_control.c"
 453  002F  374B        	clr [75].6
 454  0030              #line 454 "D:\WORK\Project\Github\Holtel-MCU\Code\HT66FM5440\110V_hbridge\bdc_control.c"
 454  0030  354B        	clr [75].2
 455  0031              #line 455 "D:\WORK\Project\Github\Holtel-MCU\Code\HT66FM5440\110V_hbridge\bdc_control.c"
 455  0031  35CB        	clr [75].3
 456  0032              #line 456 "D:\WORK\Project\Github\Holtel-MCU\Code\HT66FM5440\110V_hbridge\bdc_control.c"
 456  0032  364B        	clr [75].4
 457  0033              #line 457 "D:\WORK\Project\Github\Holtel-MCU\Code\HT66FM5440\110V_hbridge\bdc_control.c"
 457  0033  36CB        	clr [75].5
 458  0034              #line 458 "D:\WORK\Project\Github\Holtel-MCU\Code\HT66FM5440\110V_hbridge\bdc_control.c"
 458  0034  344B        	clr [75].0
 461  0035              #line 461 "D:\WORK\Project\Github\Holtel-MCU\Code\HT66FM5440\110V_hbridge\bdc_control.c"
 461  0035  354C        	clr [76].2
 464  0036              #line 464 "D:\WORK\Project\Github\Holtel-MCU\Code\HT66FM5440\110V_hbridge\bdc_control.c"
 464  0036  1F44        	clr [68]
 466  0037              #line 466 "D:\WORK\Project\Github\Holtel-MCU\Code\HT66FM5440\110V_hbridge\bdc_control.c"
 466  0037  379A        	clr [26].7
 467  0038              #line 467 "D:\WORK\Project\Github\Holtel-MCU\Code\HT66FM5440\110V_hbridge\bdc_control.c"
 467  0038  3715        	clr [21].6
 468  0039              #line 468 "D:\WORK\Project\Github\Holtel-MCU\Code\HT66FM5440\110V_hbridge\bdc_control.c"
 468  0039  319A        	set [26].3
 469  003A              #line 469 "D:\WORK\Project\Github\Holtel-MCU\Code\HT66FM5440\110V_hbridge\bdc_control.c"
 469  003A  3195        	set [21].3
 469  003B  0003        	ret
 469  003C              _pwm_init endp
 469  003C              #line 469 "D:\WORK\Project\Github\Holtel-MCU\Code\HT66FM5440\110V_hbridge\bdc_control.c"
 469  003C              #pragma debug scope 1 1
 469  003C              ___pcps0 equ [380]
 469  003C              ___pcps1 equ [381]
 469  003C              public _ISR_PWM
 469  003C              #pragma debug scope 6 1
 475  003C              #line 475 "D:\WORK\Project\Github\Holtel-MCU\Code\HT66FM5440\110V_hbridge\bdc_control.c"
 475  0000              @ISR_PWM_code .section at 12 'code'
 475  0000              ifdef INTERRUPT_DELAY
 475  0000  0000        	nop
 475  0001              endif
 475  0001  0080     E  	mov r1,a
 475  0002  070A        	mov a,status
 475  0003              ifndef INTERRUPT_DELAY
 475  0003              	mov r2,a
 475  0003              endif
 475  0003  2800     R  	jmp _ISR_PWM
 475  0004              #pragma debug scope 1 1
 475  0004              @dummy12 endp
 475  0004              #pragma debug scope 7 1
 475  0000              _ISR_PWM .section 'code'
 475  0000              _ISR_PWM proc
 475  0000              ifdef INTERRUPT_DELAY
"File: bdc_control.c  Assembler  Version HGASM0202      Page 22

 475  0000  0080     E  	mov r2,a
 475  0001              endif
 476  0001              #line 476 "D:\WORK\Project\Github\Holtel-MCU\Code\HT66FM5440\110V_hbridge\bdc_control.c"
 476  0001              ;# 476 "D:\WORK\Project\Github\Holtel-MCU\Code\HT66FM5440\110V_hbridge\bdc_control.c" 1
 476  0001  0001        	clr wdt
 477  0002              #line 477 "D:\WORK\Project\Github\Holtel-MCU\Code\HT66FM5440\110V_hbridge\bdc_control.c"
 477  0002  379A        	clr [26].7
 478  0003              #line 478 "D:\WORK\Project\Github\Holtel-MCU\Code\HT66FM5440\110V_hbridge\bdc_control.c"
 478  0003  3715        	clr [21].6
 481  0004              #line 481 "D:\WORK\Project\Github\Holtel-MCU\Code\HT66FM5440\110V_hbridge\bdc_control.c"
 481  0004  0700     R  	mov a,_motor_state[0]
 481  0005  0080     E  	mov ra,a
 481  0006  1F00     E  	clr rb
 481  0007  0700     E  	mov a,ra
 481  0008  0500     E  	or a,rb
 481  0009  3D0A        	sz z
 481  000A  2800     R  	jmp _L59
 481  000B              #line 481 "D:\WORK\Project\Github\Holtel-MCU\Code\HT66FM5440\110V_hbridge\bdc_control.c"
 481  000B  0700     E  	mov a,ra
 481  000C  0C01        	xor a,1
 481  000D  0500     E  	or a,rb
 481  000E  3D0A        	sz z
 481  000F  2800     R  	jmp _L60
 481  0010  0700     E  	mov a,ra
 481  0011  0C02        	xor a,2
 481  0012  0500     E  	or a,rb
 481  0013  3D0A        	sz z
 481  0014  2800     R  	jmp _L61
 481  0015  0700     E  	mov a,ra
 481  0016  0C03        	xor a,3
 481  0017  0500     E  	or a,rb
 481  0018  3D0A        	sz z
 481  0019  2800     R  	jmp _L62
 481  001A  0700     E  	mov a,ra
 481  001B  0C04        	xor a,4
 481  001C  0500     E  	or a,rb
 481  001D  3D0A        	sz z
 481  001E  2800     R  	jmp _L63
 481  001F  0700     E  	mov a,ra
 481  0020  0C05        	xor a,5
 481  0021  0500     E  	or a,rb
 481  0022  3D0A        	sz z
 481  0023  2800     R  	jmp _L68
 481  0024  0700     E  	mov a,ra
 481  0025  0C06        	xor a,6
 481  0026  0500     E  	or a,rb
 481  0027  3D0A        	sz z
 481  0028  2800     R  	jmp _L65
 481  0029  0700     E  	mov a,ra
 481  002A  0C07        	xor a,7
 481  002B  0500     E  	or a,rb
 481  002C  3D0A        	sz z
 481  002D  2800     R  	jmp _L66
 514  002E              #line 514 "D:\WORK\Project\Github\Holtel-MCU\Code\HT66FM5440\110V_hbridge\bdc_control.c"
 514  002E  2800     R  	jmp _L57
 514  002F              _L59:
 514  002F              #pragma debug scope 8 7
 514  002F              ;begin block, line: 514.-1
 484  002F              #line 484 "D:\WORK\Project\Github\Holtel-MCU\Code\HT66FM5440\110V_hbridge\bdc_control.c"
 484  002F  0700     R  	mov a,_pwmduty_now[0]
"File: bdc_control.c  Assembler  Version HGASM0202      Page 23

 484  0030  0080     E  	mov ra,a
 484  0031  0700     R  	mov a,_pwmduty_now[1]
 484  0032  0080     E  	mov rb,a
 484  0033  0700     E  	mov a,rb
 484  0034  0080     E  	mov ra,a
 484  0035  1F00     E  	clr rb
 484  0036  0700     E  	mov a,ra
 484  0037  00D9        	mov [89],a
 484  0038  0700     R  	mov a,_pwmduty_now[0]
 484  0039  0080     E  	mov ra,a
 484  003A  0700     R  	mov a,_pwmduty_now[1]
 484  003B  0080     E  	mov rb,a
 484  003C  0700     E  	mov a,ra
 484  003D  00D8        	mov [88],a
 484  003E  0F01        	mov a,1
 484  003F  0080     E  	mov ra,a
 484  0040  0F01        	mov a,1
 484  0041  0680     E  	andm a,ra
 484  0042  0700     E  	mov a,ra
 484  0043  0380     E  	addm a,ra
 484  0044  0700     E  	mov a,ra
 484  0045  0380     E  	addm a,ra
 484  0046  B555 0001   	lclr [341].2
 484  0048  0700     E  	mov a,ra
 484  0049  85D5 0001   	lorm a,[341]
 484  004B              #pragma debug scope 7 1
 484  004B              #pragma debug scope 9 7
 484  004B              ;begin block, line: 484.-1
 485  004B              #line 485 "D:\WORK\Project\Github\Holtel-MCU\Code\HT66FM5440\110V_hbridge\bdc_control.c"
 485  004B  1F29        	clr [41]
 485  004C  9F7C 0001   	lclr [380]
 485  004E  1F00     E  	clr ra
 485  004F  0700     E  	mov a,ra
 485  0050  80FD 0001   	lmov [381],a
 485  0052              #pragma debug scope 7 1
 486  0052              #line 486 "D:\WORK\Project\Github\Holtel-MCU\Code\HT66FM5440\110V_hbridge\bdc_control.c"
 486  0052  2800     R  	jmp _L57
 486  0053              _L60:
 486  0053              #pragma debug scope 10 7
 486  0053              ;begin block, line: 486.-1
 488  0053              #line 488 "D:\WORK\Project\Github\Holtel-MCU\Code\HT66FM5440\110V_hbridge\bdc_control.c"
 488  0053  0700     R  	mov a,_pwmduty_now[0]
 488  0054  0080     E  	mov ra,a
 488  0055  0700     R  	mov a,_pwmduty_now[1]
 488  0056  0080     E  	mov rb,a
 488  0057  0700     E  	mov a,rb
 488  0058  0080     E  	mov ra,a
 488  0059  1F00     E  	clr rb
 488  005A  0700     E  	mov a,ra
 488  005B  00D9        	mov [89],a
 488  005C  0700     R  	mov a,_pwmduty_now[0]
 488  005D  0080     E  	mov ra,a
 488  005E  0700     R  	mov a,_pwmduty_now[1]
 488  005F  0080     E  	mov rb,a
 488  0060  0700     E  	mov a,ra
 488  0061  00D8        	mov [88],a
 488  0062  0F01        	mov a,1
 488  0063  0080     E  	mov ra,a
 488  0064  0F01        	mov a,1
 488  0065  0680     E  	andm a,ra
"File: bdc_control.c  Assembler  Version HGASM0202      Page 24

 488  0066  0700     E  	mov a,ra
 488  0067  0380     E  	addm a,ra
 488  0068  0700     E  	mov a,ra
 488  0069  0380     E  	addm a,ra
 488  006A  B555 0001   	lclr [341].2
 488  006C  0700     E  	mov a,ra
 488  006D  85D5 0001   	lorm a,[341]
 488  006F              #pragma debug scope 7 1
 488  006F              #pragma debug scope 11 7
 488  006F              ;begin block, line: 488.-1
 489  006F              #line 489 "D:\WORK\Project\Github\Holtel-MCU\Code\HT66FM5440\110V_hbridge\bdc_control.c"
 489  006F  0F28        	mov a,40
 489  0070  00A9        	mov [41],a
 489  0071  9F7C 0001   	lclr [380]
 489  0073  1F00     E  	clr ra
 489  0074  0700     E  	mov a,ra
 489  0075  80FD 0001   	lmov [381],a
 489  0077              #pragma debug scope 7 1
 490  0077              #line 490 "D:\WORK\Project\Github\Holtel-MCU\Code\HT66FM5440\110V_hbridge\bdc_control.c"
 490  0077  2800     R  	jmp _L57
 490  0078              _L61:
 490  0078              #pragma debug scope 12 7
 490  0078              ;begin block, line: 490.-1
 492  0078              #line 492 "D:\WORK\Project\Github\Holtel-MCU\Code\HT66FM5440\110V_hbridge\bdc_control.c"
 492  0078  0700     R  	mov a,_pwmduty_now[0]
 492  0079  0080     E  	mov ra,a
 492  007A  0700     R  	mov a,_pwmduty_now[1]
 492  007B  0080     E  	mov rb,a
 492  007C  0700     E  	mov a,rb
 492  007D  0080     E  	mov ra,a
 492  007E  1F00     E  	clr rb
 492  007F  0700     E  	mov a,ra
 492  0080  00D9        	mov [89],a
 492  0081  0700     R  	mov a,_pwmduty_now[0]
 492  0082  0080     E  	mov ra,a
 492  0083  0700     R  	mov a,_pwmduty_now[1]
 492  0084  0080     E  	mov rb,a
 492  0085  0700     E  	mov a,ra
 492  0086  00D8        	mov [88],a
 492  0087  0F01        	mov a,1
 492  0088  0080     E  	mov ra,a
 492  0089  0F01        	mov a,1
 492  008A  0680     E  	andm a,ra
 492  008B  0700     E  	mov a,ra
 492  008C  0380     E  	addm a,ra
 492  008D  0700     E  	mov a,ra
 492  008E  0380     E  	addm a,ra
 492  008F  B555 0001   	lclr [341].2
 492  0091  0700     E  	mov a,ra
 492  0092  85D5 0001   	lorm a,[341]
 492  0094              #pragma debug scope 7 1
 492  0094              #pragma debug scope 13 7
 492  0094              ;begin block, line: 492.-1
 493  0094              #line 493 "D:\WORK\Project\Github\Holtel-MCU\Code\HT66FM5440\110V_hbridge\bdc_control.c"
 493  0094  1F29        	clr [41]
 493  0095  0F80        	mov a,128
 493  0096  80FC 0001   	lmov [380],a
 493  0098  0F08        	mov a,8
 493  0099  0080     E  	mov ra,a
 493  009A  0700     E  	mov a,ra
"File: bdc_control.c  Assembler  Version HGASM0202      Page 25

 493  009B  80FD 0001   	lmov [381],a
 493  009D              #pragma debug scope 7 1
 494  009D              #line 494 "D:\WORK\Project\Github\Holtel-MCU\Code\HT66FM5440\110V_hbridge\bdc_control.c"
 494  009D  2800     R  	jmp _L57
 494  009E              _L62:
 494  009E              #pragma debug scope 14 7
 494  009E              ;begin block, line: 494.-1
 496  009E              #line 496 "D:\WORK\Project\Github\Holtel-MCU\Code\HT66FM5440\110V_hbridge\bdc_control.c"
 496  009E  0700     R  	mov a,_pwmduty_now[0]
 496  009F  0080     E  	mov ra,a
 496  00A0  0700     R  	mov a,_pwmduty_now[1]
 496  00A1  0080     E  	mov rb,a
 496  00A2  0700     E  	mov a,rb
 496  00A3  0080     E  	mov ra,a
 496  00A4  1F00     E  	clr rb
 496  00A5  0700     E  	mov a,ra
 496  00A6  00D9        	mov [89],a
 496  00A7  0700     R  	mov a,_pwmduty_now[0]
 496  00A8  0080     E  	mov ra,a
 496  00A9  0700     R  	mov a,_pwmduty_now[1]
 496  00AA  0080     E  	mov rb,a
 496  00AB  0700     E  	mov a,ra
 496  00AC  00D8        	mov [88],a
 496  00AD  0F01        	mov a,1
 496  00AE  0080     E  	mov ra,a
 496  00AF  0F01        	mov a,1
 496  00B0  0680     E  	andm a,ra
 496  00B1  0700     E  	mov a,ra
 496  00B2  0380     E  	addm a,ra
 496  00B3  0700     E  	mov a,ra
 496  00B4  0380     E  	addm a,ra
 496  00B5  B555 0001   	lclr [341].2
 496  00B7  0700     E  	mov a,ra
 496  00B8  85D5 0001   	lorm a,[341]
 496  00BA              #pragma debug scope 7 1
 496  00BA              #pragma debug scope 15 7
 496  00BA              ;begin block, line: 496.-1
 497  00BA              #line 497 "D:\WORK\Project\Github\Holtel-MCU\Code\HT66FM5440\110V_hbridge\bdc_control.c"
 497  00BA  0F08        	mov a,8
 497  00BB  00A9        	mov [41],a
 497  00BC  9F7C 0001   	lclr [380]
 497  00BE  0F0A        	mov a,10
 497  00BF  0080     E  	mov ra,a
 497  00C0  0700     E  	mov a,ra
 497  00C1  80FD 0001   	lmov [381],a
 497  00C3              #pragma debug scope 7 1
 498  00C3              #line 498 "D:\WORK\Project\Github\Holtel-MCU\Code\HT66FM5440\110V_hbridge\bdc_control.c"
 498  00C3  2800     R  	jmp _L57
 498  00C4              _L63:
 498  00C4              #pragma debug scope 16 7
 498  00C4              ;begin block, line: 498.-1
 500  00C4              #line 500 "D:\WORK\Project\Github\Holtel-MCU\Code\HT66FM5440\110V_hbridge\bdc_control.c"
 500  00C4  0700     R  	mov a,_pwmduty_now[0]
 500  00C5  0080     E  	mov ra,a
 500  00C6  0700     R  	mov a,_pwmduty_now[1]
 500  00C7  0080     E  	mov rb,a
 500  00C8  0700     E  	mov a,rb
 500  00C9  0080     E  	mov ra,a
 500  00CA  1F00     E  	clr rb
 500  00CB  0700     E  	mov a,ra
"File: bdc_control.c  Assembler  Version HGASM0202      Page 26

 500  00CC  00D9        	mov [89],a
 500  00CD  0700     R  	mov a,_pwmduty_now[0]
 500  00CE  0080     E  	mov ra,a
 500  00CF  0700     R  	mov a,_pwmduty_now[1]
 500  00D0  0080     E  	mov rb,a
 500  00D1  0700     E  	mov a,ra
 500  00D2  00D8        	mov [88],a
 500  00D3  0F01        	mov a,1
 500  00D4  0080     E  	mov ra,a
 500  00D5  0F01        	mov a,1
 500  00D6  0680     E  	andm a,ra
 500  00D7  0700     E  	mov a,ra
 500  00D8  0380     E  	addm a,ra
 500  00D9  0700     E  	mov a,ra
 500  00DA  0380     E  	addm a,ra
 500  00DB  B555 0001   	lclr [341].2
 500  00DD  0700     E  	mov a,ra
 500  00DE  85D5 0001   	lorm a,[341]
 500  00E0              #pragma debug scope 7 1
 500  00E0              #pragma debug scope 17 7
 500  00E0              ;begin block, line: 500.-1
 501  00E0              #line 501 "D:\WORK\Project\Github\Holtel-MCU\Code\HT66FM5440\110V_hbridge\bdc_control.c"
 501  00E0  0F20        	mov a,32
 501  00E1  00A9        	mov [41],a
 501  00E2  0FA0        	mov a,160
 501  00E3  80FC 0001   	lmov [380],a
 501  00E5  1F00     E  	clr ra
 501  00E6  0700     E  	mov a,ra
 501  00E7  80FD 0001   	lmov [381],a
 501  00E9              #pragma debug scope 7 1
 502  00E9              #line 502 "D:\WORK\Project\Github\Holtel-MCU\Code\HT66FM5440\110V_hbridge\bdc_control.c"
 502  00E9  2800     R  	jmp _L57
 502  00EA              _L65:
 502  00EA              #pragma debug scope 18 7
 502  00EA              ;begin block, line: 502.-1
 504  00EA              #line 504 "D:\WORK\Project\Github\Holtel-MCU\Code\HT66FM5440\110V_hbridge\bdc_control.c"
 504  00EA  0700     R  	mov a,_pwmduty_now[0]
 504  00EB  0080     E  	mov ra,a
 504  00EC  0700     R  	mov a,_pwmduty_now[1]
 504  00ED  0080     E  	mov rb,a
 504  00EE  0700     E  	mov a,rb
 504  00EF  0080     E  	mov ra,a
 504  00F0  1F00     E  	clr rb
 504  00F1  0700     E  	mov a,ra
 504  00F2  00D9        	mov [89],a
 504  00F3  0700     R  	mov a,_pwmduty_now[0]
 504  00F4  0080     E  	mov ra,a
 504  00F5  0700     R  	mov a,_pwmduty_now[1]
 504  00F6  0080     E  	mov rb,a
 504  00F7  0700     E  	mov a,ra
 504  00F8  00D8        	mov [88],a
 504  00F9  0F01        	mov a,1
 504  00FA  0080     E  	mov ra,a
 504  00FB  0F01        	mov a,1
 504  00FC  0680     E  	andm a,ra
 504  00FD  0700     E  	mov a,ra
 504  00FE  0380     E  	addm a,ra
 504  00FF  0700     E  	mov a,ra
 504  0100  0380     E  	addm a,ra
 504  0101  B555 0001   	lclr [341].2
"File: bdc_control.c  Assembler  Version HGASM0202      Page 27

 504  0103  0700     E  	mov a,ra
 504  0104  85D5 0001   	lorm a,[341]
 504  0106              #pragma debug scope 7 1
 504  0106              #pragma debug scope 19 7
 504  0106              ;begin block, line: 504.-1
 505  0106              #line 505 "D:\WORK\Project\Github\Holtel-MCU\Code\HT66FM5440\110V_hbridge\bdc_control.c"
 505  0106  0F08        	mov a,8
 505  0107  00A9        	mov [41],a
 505  0108  9F7C 0001   	lclr [380]
 505  010A  0F0A        	mov a,10
 505  010B  0080     E  	mov ra,a
 505  010C  0700     E  	mov a,ra
 505  010D  80FD 0001   	lmov [381],a
 505  010F              #pragma debug scope 7 1
 506  010F              #line 506 "D:\WORK\Project\Github\Holtel-MCU\Code\HT66FM5440\110V_hbridge\bdc_control.c"
 506  010F  2800     R  	jmp _L57
 506  0110              _L66:
 506  0110              #pragma debug scope 20 7
 506  0110              ;begin block, line: 506.-1
 508  0110              #line 508 "D:\WORK\Project\Github\Holtel-MCU\Code\HT66FM5440\110V_hbridge\bdc_control.c"
 508  0110  0700     R  	mov a,_pwmduty_now[0]
 508  0111  0080     E  	mov ra,a
 508  0112  0700     R  	mov a,_pwmduty_now[1]
 508  0113  0080     E  	mov rb,a
 508  0114  0700     E  	mov a,rb
 508  0115  0080     E  	mov ra,a
 508  0116  1F00     E  	clr rb
 508  0117  0700     E  	mov a,ra
 508  0118  00D9        	mov [89],a
 508  0119  0700     R  	mov a,_pwmduty_now[0]
 508  011A  0080     E  	mov ra,a
 508  011B  0700     R  	mov a,_pwmduty_now[1]
 508  011C  0080     E  	mov rb,a
 508  011D  0700     E  	mov a,ra
 508  011E  00D8        	mov [88],a
 508  011F  0F01        	mov a,1
 508  0120  0080     E  	mov ra,a
 508  0121  0F01        	mov a,1
 508  0122  0680     E  	andm a,ra
 508  0123  0700     E  	mov a,ra
 508  0124  0380     E  	addm a,ra
 508  0125  0700     E  	mov a,ra
 508  0126  0380     E  	addm a,ra
 508  0127  B555 0001   	lclr [341].2
 508  0129  0700     E  	mov a,ra
 508  012A  85D5 0001   	lorm a,[341]
 508  012C              #pragma debug scope 7 1
 508  012C              #pragma debug scope 21 7
 508  012C              ;begin block, line: 508.-1
 509  012C              #line 509 "D:\WORK\Project\Github\Holtel-MCU\Code\HT66FM5440\110V_hbridge\bdc_control.c"
 509  012C  0F20        	mov a,32
 509  012D  00A9        	mov [41],a
 509  012E  0FA0        	mov a,160
 509  012F  80FC 0001   	lmov [380],a
 509  0131  1F00     E  	clr ra
 509  0132  0700     E  	mov a,ra
 509  0133  80FD 0001   	lmov [381],a
 509  0135              #pragma debug scope 7 1
 510  0135              #line 510 "D:\WORK\Project\Github\Holtel-MCU\Code\HT66FM5440\110V_hbridge\bdc_control.c"
 510  0135  2800     R  	jmp _L57
"File: bdc_control.c  Assembler  Version HGASM0202      Page 28

 510  0136              _L68:
 512  0136              #line 512 "D:\WORK\Project\Github\Holtel-MCU\Code\HT66FM5440\110V_hbridge\bdc_control.c"
 512  0136              	;nop
 512  0136              _L57:
 512  0136  0700     E  	mov a,r2
 512  0137  008A        	mov status,a
 512  0138  0700     E  	mov a,r1
 512  0139  0004        	reti
 512  013A              _ISR_PWM endp
 512  013A              
 512  013A              #line 512 "D:\WORK\Project\Github\Holtel-MCU\Code\HT66FM5440\110V_hbridge\bdc_control.c"
 512  013A              #pragma debug scope 1 1
 512  013A              ___adcr1 equ [57]
 512  013A              ___adcr0 equ [56]
 512  013A              ___paps1 equ [379]
 512  013A              ___adcr2 equ [58]
 512  013A              ___mfi2 equ [27]
 512  013A              ___intc2 equ [23]
 512  013A              ___adbyps equ [321]
 512  013A              public _adc_init
 512  013A              #pragma debug scope 22 1
 519  013A              #line 519 "D:\WORK\Project\Github\Holtel-MCU\Code\HT66FM5440\110V_hbridge\bdc_control.c"
 519  0000              _adc_init .section 'code'
 519  0000              _adc_init proc
 519  0000  00              local _adc_init_2 db 1 dup(?)	; 0,1
 519  0000  0080     R  	mov _adc_init_2[0],a
 519  0001              #pragma debug variable 8 22 _adc_init_2+0 "res"
 533  0001              #line 533 "D:\WORK\Project\Github\Holtel-MCU\Code\HT66FM5440\110V_hbridge\bdc_control.c"
 533  0001  3139        	set [57].2
 534  0002              #line 534 "D:\WORK\Project\Github\Holtel-MCU\Code\HT66FM5440\110V_hbridge\bdc_control.c"
 534  0002  30B9        	set [57].1
 535  0003              #line 535 "D:\WORK\Project\Github\Holtel-MCU\Code\HT66FM5440\110V_hbridge\bdc_control.c"
 535  0003  3439        	clr [57].0
 538  0004              #line 538 "D:\WORK\Project\Github\Holtel-MCU\Code\HT66FM5440\110V_hbridge\bdc_control.c"
 538  0004  36B8        	clr [56].5
 542  0005              #line 542 "D:\WORK\Project\Github\Holtel-MCU\Code\HT66FM5440\110V_hbridge\bdc_control.c"
 542  0005  0738        	mov a,[56]
 542  0006  0080     E  	mov ra,a
 542  0007  0FF0        	mov a,240
 542  0008  0680     E  	andm a,ra
 542  0009  0700     E  	mov a,ra
 542  000A  00B8        	mov [56],a
 543  000B              #line 543 "D:\WORK\Project\Github\Holtel-MCU\Code\HT66FM5440\110V_hbridge\bdc_control.c"
 543  000B  0738        	mov a,[56]
 543  000C  0080     E  	mov ra,a
 543  000D  3000     E  	set ra.3
 543  000E  0700     E  	mov a,ra
 543  000F  00B8        	mov [56],a
 551  0010              #line 551 "D:\WORK\Project\Github\Holtel-MCU\Code\HT66FM5440\110V_hbridge\bdc_control.c"
 551  0010  B7FB 0001   	lclr [379].7
 552  0012              #line 552 "D:\WORK\Project\Github\Holtel-MCU\Code\HT66FM5440\110V_hbridge\bdc_control.c"
 552  0012  B37B 0001   	lset [379].6
 553  0014              #line 553 "D:\WORK\Project\Github\Holtel-MCU\Code\HT66FM5440\110V_hbridge\bdc_control.c"
 553  0014  B2FB 0001   	lset [379].5
 554  0016              #line 554 "D:\WORK\Project\Github\Holtel-MCU\Code\HT66FM5440\110V_hbridge\bdc_control.c"
 554  0016  B67B 0001   	lclr [379].4
 558  0018              #line 558 "D:\WORK\Project\Github\Holtel-MCU\Code\HT66FM5440\110V_hbridge\bdc_control.c"
 558  0018  0700     R  	mov a,_adc_init_2[0]
 558  0019  0E01        	and a,1
 558  001A  0080     E  	mov ra,a
"File: bdc_control.c  Assembler  Version HGASM0202      Page 29

 558  001B  0F01        	mov a,1
 558  001C  0680     E  	andm a,ra
 558  001D  1900     E  	rra ra
 558  001E  1985        	rr acc
 558  001F  0EC0        	and a,0c0h
 558  0020  0080     E  	mov ra,a
 558  0021  373A        	clr [58].6
 558  0022  0700     E  	mov a,ra
 558  0023  05BA        	orm a,[58]
 559  0024              #line 559 "D:\WORK\Project\Github\Holtel-MCU\Code\HT66FM5440\110V_hbridge\bdc_control.c"
 559  0024  3238        	set [56].4
 567  0025              #line 567 "D:\WORK\Project\Github\Holtel-MCU\Code\HT66FM5440\110V_hbridge\bdc_control.c"
 567  0025  369B        	clr [27].5
 568  0026              #line 568 "D:\WORK\Project\Github\Holtel-MCU\Code\HT66FM5440\110V_hbridge\bdc_control.c"
 568  0026  309B        	set [27].1
 569  0027              #line 569 "D:\WORK\Project\Github\Holtel-MCU\Code\HT66FM5440\110V_hbridge\bdc_control.c"
 569  0027  3617        	clr [23].4
 570  0028              #line 570 "D:\WORK\Project\Github\Holtel-MCU\Code\HT66FM5440\110V_hbridge\bdc_control.c"
 570  0028  3017        	set [23].0
 573  0029              #line 573 "D:\WORK\Project\Github\Holtel-MCU\Code\HT66FM5440\110V_hbridge\bdc_control.c"
 573  0029  B3C1 0001   	lset [321].7
 573  002B  0003        	ret
 573  002C              _adc_init endp
 573  002C              #line 573 "D:\WORK\Project\Github\Holtel-MCU\Code\HT66FM5440\110V_hbridge\bdc_control.c"
 573  002C              #pragma debug scope 1 1
 573  002C              ___adrh equ [55]
 573  002C              ___adrl equ [54]
 573  002C              public _ISR_Adc
 573  002C              #pragma debug scope 23 1
 577  002C              #line 577 "D:\WORK\Project\Github\Holtel-MCU\Code\HT66FM5440\110V_hbridge\bdc_control.c"
 577  0000              @ISR_Adc_code .section at 32 'code'
 577  0000              ifdef INTERRUPT_DELAY
 577  0000  0000        	nop
 577  0001              endif
 577  0001  0080     E  	mov r1,a
 577  0002  070A        	mov a,status
 577  0003              ifndef INTERRUPT_DELAY
 577  0003              	mov r2,a
 577  0003              endif
 577  0003  2800     R  	jmp _ISR_Adc
 577  0004              #pragma debug scope 1 1
 577  0004              @dummy32 endp
 577  0004              #pragma debug scope 24 1
 577  0000              _ISR_Adc .section 'code'
 577  0000              _ISR_Adc proc
 577  0000              ifdef INTERRUPT_DELAY
 577  0000  0080     E  	mov r2,a
 577  0001              endif
 578  0001              #line 578 "D:\WORK\Project\Github\Holtel-MCU\Code\HT66FM5440\110V_hbridge\bdc_control.c"
 578  0001              ;# 578 "D:\WORK\Project\Github\Holtel-MCU\Code\HT66FM5440\110V_hbridge\bdc_control.c" 1
 578  0001  0001        	clr wdt
 579  0002              #line 579 "D:\WORK\Project\Github\Holtel-MCU\Code\HT66FM5440\110V_hbridge\bdc_control.c"
 579  0002  1F00     E  	clr ra
 579  0003  3C00     R  	sz _f_adc_ch
 579  0004  3000     E  	set ra.0
 579  0005  3800     E  	snz ra.0
 579  0006  2800     R  	jmp _L71
 580  0007              #line 580 "D:\WORK\Project\Github\Holtel-MCU\Code\HT66FM5440\110V_hbridge\bdc_control.c"
 580  0007  0737        	mov a,[55]
 580  0008  0080     E  	mov ra,a
"File: bdc_control.c  Assembler  Version HGASM0202      Page 30

 580  0009  1F00     E  	clr rb
 580  000A  0700     E  	mov a,ra
 580  000B  0080     E  	mov rd,a
 580  000C  1F00     E  	clr rc
 580  000D  0736        	mov a,[54]
 580  000E  0080     E  	mov ra,a
 580  000F  1F00     E  	clr rb
 580  0010  0700     E  	mov a,rd
 580  0011  0580     E  	orm a,rb
 580  0012  0700     E  	mov a,rc
 580  0013  0580     E  	orm a,ra
 580  0014  0700     E  	mov a,ra
 580  0015  0080     R  	mov _vdet[0],a
 580  0016  0700     E  	mov a,rb
 580  0017  0080     R  	mov _vdet[1],a
 580  0018  2800     R  	jmp _L72
 580  0019              _L71:
 582  0019              #line 582 "D:\WORK\Project\Github\Holtel-MCU\Code\HT66FM5440\110V_hbridge\bdc_control.c"
 582  0019  0737        	mov a,[55]
 582  001A  0080     E  	mov ra,a
 582  001B  1F00     E  	clr rb
 582  001C  0700     E  	mov a,ra
 582  001D  0080     E  	mov rd,a
 582  001E  1F00     E  	clr rc
 582  001F  0736        	mov a,[54]
 582  0020  0080     E  	mov ra,a
 582  0021  1F00     E  	clr rb
 582  0022  0700     E  	mov a,rd
 582  0023  0580     E  	orm a,rb
 582  0024  0700     E  	mov a,rc
 582  0025  0580     E  	orm a,ra
 582  0026  0700     E  	mov a,ra
 582  0027  0080     R  	mov _iavg[0],a
 582  0028  0700     E  	mov a,rb
 582  0029  0080     R  	mov _iavg[1],a
 582  002A              _L72:
 583  002A              #line 583 "D:\WORK\Project\Github\Holtel-MCU\Code\HT66FM5440\110V_hbridge\bdc_control.c"
 583  002A  369B        	clr [27].5
 584  002B              #line 584 "D:\WORK\Project\Github\Holtel-MCU\Code\HT66FM5440\110V_hbridge\bdc_control.c"
 584  002B  3617        	clr [23].4
 584  002C  0700     E  	mov a,r2
 584  002D  008A        	mov status,a
 584  002E  0700     E  	mov a,r1
 584  002F  0004        	reti
 584  0030              _ISR_Adc endp
 584  0030              
 584  0030              #line 584 "D:\WORK\Project\Github\Holtel-MCU\Code\HT66FM5440\110V_hbridge\bdc_control.c"
 584  0030              #pragma debug scope 1 1
 584  0030              public _adc_sample
 584  0030              #pragma debug scope 25 1
 597  0030              #line 597 "D:\WORK\Project\Github\Holtel-MCU\Code\HT66FM5440\110V_hbridge\bdc_control.c"
 597  0000              _adc_sample .section 'code'
 597  0000              _adc_sample proc
 597  0000  00              local _adc_sample_2 db 1 dup(?)	; 0,1
 597  0000  0080     R  	mov _adc_sample_2[0],a
 597  0001              #pragma debug variable 8 25 _adc_sample_2+0 "ch"
 599  0001              #line 599 "D:\WORK\Project\Github\Holtel-MCU\Code\HT66FM5440\110V_hbridge\bdc_control.c"
 599  0001  0738        	mov a,[56]
 599  0002  0080     E  	mov ra,a
 599  0003  0FF0        	mov a,240
"File: bdc_control.c  Assembler  Version HGASM0202      Page 31

 599  0004  0680     E  	andm a,ra
 599  0005  0700     E  	mov a,ra
 599  0006  00B8        	mov [56],a
 600  0007              #line 600 "D:\WORK\Project\Github\Holtel-MCU\Code\HT66FM5440\110V_hbridge\bdc_control.c"
 600  0007  0738        	mov a,[56]
 600  0008  0080     E  	mov ra,a
 600  0009  0700     R  	mov a,_adc_sample_2[0]
 600  000A  0580     E  	orm a,ra
 600  000B  0700     E  	mov a,ra
 600  000C  00B8        	mov [56],a
 601  000D              #line 601 "D:\WORK\Project\Github\Holtel-MCU\Code\HT66FM5440\110V_hbridge\bdc_control.c"
 601  000D  37B8        	clr [56].7
 602  000E              #line 602 "D:\WORK\Project\Github\Holtel-MCU\Code\HT66FM5440\110V_hbridge\bdc_control.c"
 602  000E  33B8        	set [56].7
 603  000F              #line 603 "D:\WORK\Project\Github\Holtel-MCU\Code\HT66FM5440\110V_hbridge\bdc_control.c"
 603  000F  37B8        	clr [56].7
 609  0010              #line 609 "D:\WORK\Project\Github\Holtel-MCU\Code\HT66FM5440\110V_hbridge\bdc_control.c"
 609  0010  0F01        	mov a,1
 609  0011  0080     E  	mov ra,a
 609  0012  1F00     E  	clr rb
 609  0013  0003        	ret
 609  0014              _adc_sample endp
 609  0014              #line 609 "D:\WORK\Project\Github\Holtel-MCU\Code\HT66FM5440\110V_hbridge\bdc_control.c"
 609  0014              #pragma debug scope 1 1
 609  0014              ___pbps1 equ [67]
 609  0014              ___ucr1 equ [110]
 609  0014              ___ucr2 equ [111]
 609  0014              ___brg equ [112]
 609  0014              ___mfi7 equ [32]
 609  0014              ___intc3 equ [24]
 609  0014              public _uart_init
 609  0014              #pragma debug scope 26 1
 613  0014              #line 613 "D:\WORK\Project\Github\Holtel-MCU\Code\HT66FM5440\110V_hbridge\bdc_control.c"
 613  0000              _uart_init .section 'code'
 613  0000              _uart_init proc
 613  0000  00              local _uart_init_2 db 1 dup(?)	; 0,1
 613  0001              #pragma debug variable 8 26 _uart_init_2+0 "i"
 616  0001              #line 616 "D:\WORK\Project\Github\Holtel-MCU\Code\HT66FM5440\110V_hbridge\bdc_control.c"
 616  0000  3243        	set [67].4
 617  0001              #line 617 "D:\WORK\Project\Github\Holtel-MCU\Code\HT66FM5440\110V_hbridge\bdc_control.c"
 617  0001  36C3        	clr [67].5
 618  0002              #line 618 "D:\WORK\Project\Github\Holtel-MCU\Code\HT66FM5440\110V_hbridge\bdc_control.c"
 618  0002  3343        	set [67].6
 619  0003              #line 619 "D:\WORK\Project\Github\Holtel-MCU\Code\HT66FM5440\110V_hbridge\bdc_control.c"
 619  0003  37C3        	clr [67].7
 621  0004              #line 621 "D:\WORK\Project\Github\Holtel-MCU\Code\HT66FM5440\110V_hbridge\bdc_control.c"
 621  0004  0F80        	mov a,128
 621  0005  00EE        	mov [110],a
 622  0006              #line 622 "D:\WORK\Project\Github\Holtel-MCU\Code\HT66FM5440\110V_hbridge\bdc_control.c"
 622  0006  0FE4        	mov a,228
 622  0007  00EF        	mov [111],a
 623  0008              #line 623 "D:\WORK\Project\Github\Holtel-MCU\Code\HT66FM5440\110V_hbridge\bdc_control.c"
 623  0008  0F67        	mov a,103
 623  0009  00F0        	mov [112],a
 625  000A              #line 625 "D:\WORK\Project\Github\Holtel-MCU\Code\HT66FM5440\110V_hbridge\bdc_control.c"
 625  000A  36A0        	clr [32].5
 626  000B              #line 626 "D:\WORK\Project\Github\Holtel-MCU\Code\HT66FM5440\110V_hbridge\bdc_control.c"
 626  000B  30A0        	set [32].1
 628  000C              #line 628 "D:\WORK\Project\Github\Holtel-MCU\Code\HT66FM5440\110V_hbridge\bdc_control.c"
 628  000C  3798        	clr [24].7
"File: bdc_control.c  Assembler  Version HGASM0202      Page 32

 629  000D              #line 629 "D:\WORK\Project\Github\Holtel-MCU\Code\HT66FM5440\110V_hbridge\bdc_control.c"
 629  000D  3198        	set [24].3
 631  000E              #line 631 "D:\WORK\Project\Github\Holtel-MCU\Code\HT66FM5440\110V_hbridge\bdc_control.c"
 631  000E  1F00     R  	clr _rxcnt[0]
 632  000F              #line 632 "D:\WORK\Project\Github\Holtel-MCU\Code\HT66FM5440\110V_hbridge\bdc_control.c"
 632  000F  1F00     R  	clr _uart_init_2[0]
 632  0010  2800     R  	jmp _L76
 632  0011              _L77:
 634  0011              #line 634 "D:\WORK\Project\Github\Holtel-MCU\Code\HT66FM5440\110V_hbridge\bdc_control.c"
 634  0011  0700     R  	mov a,_uart_init_2[0]
 634  0012  0080     E  	mov ra,a
 634  0013  1F00     E  	clr rb
 634  0014  0F00     R  	mov a,low offset _rxbuff
 634  0015  0380     E  	addm a,ra
 634  0016  0F00     R  	mov a,high offset _rxbuff
 634  0017  1380     E  	adcm a,rb
 634  0018  0700     E  	mov a,ra
 634  0019  0083        	mov mp,a
 634  001A  0700     E  	mov a,rb
 634  001B  0084        	mov sbp,a
 634  001C  0F00        	mov a,0
 634  001D  0082        	mov ir,a
 632  001E              #line 632 "D:\WORK\Project\Github\Holtel-MCU\Code\HT66FM5440\110V_hbridge\bdc_control.c"
 632  001E  0700     R  	mov a,_uart_init_2[0]
 632  001F  0080     E  	mov ra,a
 632  0020  1400     E  	inca ra
 632  0021  0080     R  	mov _uart_init_2[0],a
 632  0022              _L76:
 632  0022  0F05        	mov a,5
 632  0023  0200     R  	sub a,_uart_init_2[0]
 632  0024  3C0A        	sz c
 632  0025  2800     R  	jmp _L77
 632  0026  0003        	ret
 632  0027              _uart_init endp
 632  0027              #line 632 "D:\WORK\Project\Github\Holtel-MCU\Code\HT66FM5440\110V_hbridge\bdc_control.c"
 632  0027              #pragma debug scope 1 1
 632  0027              ___tbc equ [275]
 632  0027              public _timeBase_init
 632  0027              #pragma debug scope 27 1
 639  0027              #line 639 "D:\WORK\Project\Github\Holtel-MCU\Code\HT66FM5440\110V_hbridge\bdc_control.c"
 639  0000              _timeBase_init .section 'code'
 639  0000              _timeBase_init proc
 640  0000              #line 640 "D:\WORK\Project\Github\Holtel-MCU\Code\HT66FM5440\110V_hbridge\bdc_control.c"
 640  0000  0FC0        	mov a,192
 640  0001  8093 0001   	lmov [275],a
 641  0003              #line 641 "D:\WORK\Project\Github\Holtel-MCU\Code\HT66FM5440\110V_hbridge\bdc_control.c"
 641  0003  31A0        	set [32].3
 642  0004              #line 642 "D:\WORK\Project\Github\Holtel-MCU\Code\HT66FM5440\110V_hbridge\bdc_control.c"
 642  0004  37A0        	clr [32].7
 643  0005              #line 643 "D:\WORK\Project\Github\Holtel-MCU\Code\HT66FM5440\110V_hbridge\bdc_control.c"
 643  0005  3198        	set [24].3
 644  0006              #line 644 "D:\WORK\Project\Github\Holtel-MCU\Code\HT66FM5440\110V_hbridge\bdc_control.c"
 644  0006  3798        	clr [24].7
 644  0007  0003        	ret
 644  0008              _timeBase_init endp
 644  0008              #line 644 "D:\WORK\Project\Github\Holtel-MCU\Code\HT66FM5440\110V_hbridge\bdc_control.c"
 644  0008              #pragma debug scope 1 1
 644  0008              ___usr equ [109]
 644  0008              ___txr_rxr equ [113]
 644  0008              public _ISR_TimeBase_Uart
"File: bdc_control.c  Assembler  Version HGASM0202      Page 33

 644  0008              #pragma debug scope 28 1
 648  0008              #line 648 "D:\WORK\Project\Github\Holtel-MCU\Code\HT66FM5440\110V_hbridge\bdc_control.c"
 648  0000              @ISR_TimeBase_Uart_code .section at 60 'code'
 648  0000              ifdef INTERRUPT_DELAY
 648  0000  0000        	nop
 648  0001              endif
 648  0001  0080     E  	mov r1,a
 648  0002  070A        	mov a,status
 648  0003              ifndef INTERRUPT_DELAY
 648  0003              	mov r2,a
 648  0003              endif
 648  0003  2800     R  	jmp _ISR_TimeBase_Uart
 648  0004              #pragma debug scope 1 1
 648  0004              @dummy60 endp
 648  0004              #pragma debug scope 29 1
 648  0000              _ISR_TimeBase_Uart .section 'code'
 648  0000              _ISR_TimeBase_Uart proc
 648  0000  00          local _ISR_TimeBase_Uart_2 db 1 dup(?)
 648  0000              ifdef INTERRUPT_DELAY
 648  0000  0080     E  	mov r2,a
 648  0001              endif
 648  0001  0703        	mov a,mp
 648  0002  0080     E  	mov r3,a
 648  0003  0704        	mov a,sbp
 648  0004  0080     E  	mov r4,a
 648  0005              #pragma debug variable 8 29 _ISR_TimeBase_Uart_2+0 "i"
 653  0005              #line 653 "D:\WORK\Project\Github\Holtel-MCU\Code\HT66FM5440\110V_hbridge\bdc_control.c"
 653  0005              ;# 653 "D:\WORK\Project\Github\Holtel-MCU\Code\HT66FM5440\110V_hbridge\bdc_control.c" 1
 653  0005  0001        	clr wdt
 655  0006              #line 655 "D:\WORK\Project\Github\Holtel-MCU\Code\HT66FM5440\110V_hbridge\bdc_control.c"
 655  0006  3798        	clr [24].7
 657  0007              #line 657 "D:\WORK\Project\Github\Holtel-MCU\Code\HT66FM5440\110V_hbridge\bdc_control.c"
 657  0007  0720        	mov a,[32]
 657  0008  0080     E  	mov ra,a
 657  0009  0F20        	mov a,32
 657  000A  0680     E  	andm a,ra
 657  000B  1E00     E  	snz ra
 657  000C  2800     R  	jmp _L80
 659  000D              #line 659 "D:\WORK\Project\Github\Holtel-MCU\Code\HT66FM5440\110V_hbridge\bdc_control.c"
 659  000D  36A0        	clr [32].5
 661  000E              #line 661 "D:\WORK\Project\Github\Holtel-MCU\Code\HT66FM5440\110V_hbridge\bdc_control.c"
 661  000E  076D        	mov a,[109]
 661  000F  0080     E  	mov ra,a
 661  0010  0F04        	mov a,4
 661  0011  0680     E  	andm a,ra
 661  0012  1E00     E  	snz ra
 661  0013  2800     R  	jmp _L80
 663  0014              #line 663 "D:\WORK\Project\Github\Holtel-MCU\Code\HT66FM5440\110V_hbridge\bdc_control.c"
 663  0014  0771        	mov a,[113]
 663  0015  0080     E  	mov ra,a
 663  0016  0700     E  	mov a,ra
 663  0017  0A23        	sub a,35
 663  0018  390A        	snz z
 663  0019  2800     R  	jmp _L81
 665  001A              #line 665 "D:\WORK\Project\Github\Holtel-MCU\Code\HT66FM5440\110V_hbridge\bdc_control.c"
 665  001A  1F00     R  	clr _rxcnt[0]
 666  001B              #line 666 "D:\WORK\Project\Github\Holtel-MCU\Code\HT66FM5440\110V_hbridge\bdc_control.c"
 666  001B  1F00     R  	clr _ISR_TimeBase_Uart_2[0]
 666  001C  2800     R  	jmp _L82
 666  001D              _L83:
"File: bdc_control.c  Assembler  Version HGASM0202      Page 34

 668  001D              #line 668 "D:\WORK\Project\Github\Holtel-MCU\Code\HT66FM5440\110V_hbridge\bdc_control.c"
 668  001D  0700     R  	mov a,_ISR_TimeBase_Uart_2[0]
 668  001E  0080     E  	mov ra,a
 668  001F  1F00     E  	clr rb
 668  0020  0F00     R  	mov a,low offset _rxbuff
 668  0021  0380     E  	addm a,ra
 668  0022  0F00     R  	mov a,high offset _rxbuff
 668  0023  1380     E  	adcm a,rb
 668  0024  0700     E  	mov a,ra
 668  0025  0083        	mov mp,a
 668  0026  0700     E  	mov a,rb
 668  0027  0084        	mov sbp,a
 668  0028  0F00        	mov a,0
 668  0029  0082        	mov ir,a
 666  002A              #line 666 "D:\WORK\Project\Github\Holtel-MCU\Code\HT66FM5440\110V_hbridge\bdc_control.c"
 666  002A  0700     R  	mov a,_ISR_TimeBase_Uart_2[0]
 666  002B  0080     E  	mov ra,a
 666  002C  1400     E  	inca ra
 666  002D  0080     R  	mov _ISR_TimeBase_Uart_2[0],a
 666  002E              _L82:
 666  002E  0F05        	mov a,5
 666  002F  0200     R  	sub a,_ISR_TimeBase_Uart_2[0]
 666  0030  3C0A        	sz c
 666  0031  2800     R  	jmp _L83
 666  0032  2800     R  	jmp _L80
 666  0033              _L81:
 671  0033              #line 671 "D:\WORK\Project\Github\Holtel-MCU\Code\HT66FM5440\110V_hbridge\bdc_control.c"
 671  0033  0700     R  	mov a,_rxcnt[0]
 671  0034  0080     E  	mov ra,a
 671  0035  0F05        	mov a,5
 671  0036  0200     E  	sub a,ra
 671  0037  380A        	snz c
 671  0038  2800     R  	jmp _L80
 673  0039              #line 673 "D:\WORK\Project\Github\Holtel-MCU\Code\HT66FM5440\110V_hbridge\bdc_control.c"
 673  0039  0700     R  	mov a,_rxcnt[0]
 673  003A  0080     E  	mov ra,a
 673  003B  1F00     E  	clr rb
 673  003C  0771        	mov a,[113]
 673  003D  0080     E  	mov rc,a
 673  003E  0F00     R  	mov a,low offset _rxbuff
 673  003F  0380     E  	addm a,ra
 673  0040  0F00     R  	mov a,high offset _rxbuff
 673  0041  1380     E  	adcm a,rb
 673  0042  0700     E  	mov a,ra
 673  0043  0083        	mov mp,a
 673  0044  0700     E  	mov a,rb
 673  0045  0084        	mov sbp,a
 673  0046  0700     E  	mov a,rc
 673  0047  0082        	mov ir,a
 674  0048              #line 674 "D:\WORK\Project\Github\Holtel-MCU\Code\HT66FM5440\110V_hbridge\bdc_control.c"
 674  0048  0700     R  	mov a,_rxcnt[0]
 674  0049  0080     E  	mov ra,a
 674  004A  1480     E  	inc ra
 674  004B  0700     E  	mov a,ra
 674  004C  0080     R  	mov _rxcnt[0],a
 674  004D              _L80:
 679  004D              #line 679 "D:\WORK\Project\Github\Holtel-MCU\Code\HT66FM5440\110V_hbridge\bdc_control.c"
 679  004D  0720        	mov a,[32]
 679  004E  0080     E  	mov ra,a
 679  004F  0F80        	mov a,128
"File: bdc_control.c  Assembler  Version HGASM0202      Page 35

 679  0050  0680     E  	andm a,ra
 679  0051  1E00     E  	snz ra
 679  0052  2800     R  	jmp _L79
 681  0053              #line 681 "D:\WORK\Project\Github\Holtel-MCU\Code\HT66FM5440\110V_hbridge\bdc_control.c"
 681  0053  0700     R  	mov a,_cnt_ms[0]
 681  0054  0080     E  	mov ra,a
 681  0055  0700     R  	mov a,_cnt_ms[1]
 681  0056  0080     E  	mov rb,a
 681  0057  0FFF        	mov a,255
 681  0058  0380     E  	addm a,ra
 681  0059  0FFF        	mov a,255
 681  005A  1380     E  	adcm a,rb
 681  005B  0700     E  	mov a,ra
 681  005C  0080     R  	mov _cnt_ms[0],a
 681  005D  0700     E  	mov a,rb
 681  005E  0080     R  	mov _cnt_ms[1],a
 681  005F  0700     E  	mov a,ra
 681  0060  0500     E  	or a,rb
 681  0061  390A        	snz z
 681  0062  2800     R  	jmp _L85
 683  0063              #line 683 "D:\WORK\Project\Github\Holtel-MCU\Code\HT66FM5440\110V_hbridge\bdc_control.c"
 683  0063  3000     R  	set _f_ms
 683  0064              _L85:
 686  0064              #line 686 "D:\WORK\Project\Github\Holtel-MCU\Code\HT66FM5440\110V_hbridge\bdc_control.c"
 686  0064  0700     R  	mov a,_cnt_10ms[0]
 686  0065  0080     E  	mov ra,a
 686  0066  1480     E  	inc ra
 686  0067  0700     E  	mov a,ra
 686  0068  0080     R  	mov _cnt_10ms[0],a
 686  0069  0F0A        	mov a,10
 686  006A  0200     E  	sub a,ra
 686  006B  3C0A        	sz c
 686  006C  2800     R  	jmp _L86
 688  006D              #line 688 "D:\WORK\Project\Github\Holtel-MCU\Code\HT66FM5440\110V_hbridge\bdc_control.c"
 688  006D  1F00     R  	clr _cnt_10ms[0]
 689  006E              #line 689 "D:\WORK\Project\Github\Holtel-MCU\Code\HT66FM5440\110V_hbridge\bdc_control.c"
 689  006E  3000     R  	set _f_10ms
 689  006F              _L86:
 692  006F              #line 692 "D:\WORK\Project\Github\Holtel-MCU\Code\HT66FM5440\110V_hbridge\bdc_control.c"
 692  006F  0700     R  	mov a,_cnt_200ms[0]
 692  0070  0080     E  	mov ra,a
 692  0071  1480     E  	inc ra
 692  0072  0700     E  	mov a,ra
 692  0073  0080     R  	mov _cnt_200ms[0],a
 692  0074  0FC8        	mov a,200
 692  0075  0200     E  	sub a,ra
 692  0076  3C0A        	sz c
 692  0077  2800     R  	jmp _L87
 694  0078              #line 694 "D:\WORK\Project\Github\Holtel-MCU\Code\HT66FM5440\110V_hbridge\bdc_control.c"
 694  0078  1F00     R  	clr _cnt_200ms[0]
 695  0079              #line 695 "D:\WORK\Project\Github\Holtel-MCU\Code\HT66FM5440\110V_hbridge\bdc_control.c"
 695  0079  3000     R  	set _f_200ms
 695  007A              _L87:
 698  007A              #line 698 "D:\WORK\Project\Github\Holtel-MCU\Code\HT66FM5440\110V_hbridge\bdc_control.c"
 698  007A  37A0        	clr [32].7
 698  007B              _L79:
 698  007B  0700     E  	mov a,r2
 698  007C  008A        	mov status,a
 698  007D  0700     E  	mov a,r3
 698  007E  0083        	mov mp,a
"File: bdc_control.c  Assembler  Version HGASM0202      Page 36

 698  007F  0700     E  	mov a,r4
 698  0080  0084        	mov sbp,a
 698  0081  0700     E  	mov a,r1
 698  0082  0004        	reti
 698  0083              _ISR_TimeBase_Uart endp
 698  0083              
 698  0083              #line 698 "D:\WORK\Project\Github\Holtel-MCU\Code\HT66FM5440\110V_hbridge\bdc_control.c"
 698  0083              #pragma debug scope 1 1
 698  0083              public _ua_outchar
 698  0083              #pragma debug scope 30 1
 732  0083              #line 732 "D:\WORK\Project\Github\Holtel-MCU\Code\HT66FM5440\110V_hbridge\bdc_control.c"
 732  0000              _ua_outchar .section 'code'
 732  0000              _ua_outchar proc
 732  0000  0002[           local _ua_outchar_2 db 2 dup(?)	; 0,2
            00
            ]
 732  0000  0080     R  	mov _ua_outchar_2[1],a
 732  0001              #pragma debug variable 7 30 _ua_outchar_2+1 "c"
 732  0001              #pragma debug variable 8 30 _ua_outchar_2+0 "errcnt"
 733  0001              #line 733 "D:\WORK\Project\Github\Holtel-MCU\Code\HT66FM5440\110V_hbridge\bdc_control.c"
 733  0001  1F00     R  	clr _ua_outchar_2[0]
 733  0002              _L93:
 737  0002              #line 737 "D:\WORK\Project\Github\Holtel-MCU\Code\HT66FM5440\110V_hbridge\bdc_control.c"
 737  0002  0700     R  	mov a,_ua_outchar_2[0]
 737  0003  0080     E  	mov ra,a
 737  0004  1400     E  	inca ra
 737  0005  0080     R  	mov _ua_outchar_2[0],a
 737  0006  1600     E  	siza ra
 737  0007  2800     R  	jmp _L89
 738  0008              #line 738 "D:\WORK\Project\Github\Holtel-MCU\Code\HT66FM5440\110V_hbridge\bdc_control.c"
 738  0008  0F01        	mov a,1
 738  0009  0080     E  	mov ra,a
 738  000A  2800     R  	jmp _L90
 738  000B              _L89:
 740  000B              #line 740 "D:\WORK\Project\Github\Holtel-MCU\Code\HT66FM5440\110V_hbridge\bdc_control.c"
 740  000B  076D        	mov a,[109]
 740  000C  0080     E  	mov ra,a
 740  000D  0F01        	mov a,1
 740  000E  0680     E  	andm a,ra
 740  000F  1E00     E  	snz ra
 740  0010  2800     R  	jmp _L91
 741  0011              #line 741 "D:\WORK\Project\Github\Holtel-MCU\Code\HT66FM5440\110V_hbridge\bdc_control.c"
 741  0011              	;nop
 746  0011              #line 746 "D:\WORK\Project\Github\Holtel-MCU\Code\HT66FM5440\110V_hbridge\bdc_control.c"
 746  0011  0700     R  	mov a,_ua_outchar_2[1]
 746  0012  0080     E  	mov ra,a
 746  0013  0700     E  	mov a,ra
 746  0014  00F1        	mov [113],a
 747  0015              #line 747 "D:\WORK\Project\Github\Holtel-MCU\Code\HT66FM5440\110V_hbridge\bdc_control.c"
 747  0015  1F00     E  	clr ra
 747  0016  2800     R  	jmp _L90
 747  0017              _L91:
 743  0017              #line 743 "D:\WORK\Project\Github\Holtel-MCU\Code\HT66FM5440\110V_hbridge\bdc_control.c"
 743  0017              ;# 743 "D:\WORK\Project\Github\Holtel-MCU\Code\HT66FM5440\110V_hbridge\bdc_control.c" 1
 743  0017  0001        	clr wdt
 744  0018              #line 744 "D:\WORK\Project\Github\Holtel-MCU\Code\HT66FM5440\110V_hbridge\bdc_control.c"
 744  0018  2800     R  	jmp _L93
 744  0019              _L90:
 748  0019              #line 748 "D:\WORK\Project\Github\Holtel-MCU\Code\HT66FM5440\110V_hbridge\bdc_control.c"
 748  0019  0700     E  	mov a,ra
"File: bdc_control.c  Assembler  Version HGASM0202      Page 37

 748  001A  0003        	ret
 748  001B              _ua_outchar endp
 748  001B              #line 748 "D:\WORK\Project\Github\Holtel-MCU\Code\HT66FM5440\110V_hbridge\bdc_control.c"
 748  001B              #pragma debug scope 1 1
 748  001B              public _print_byte
 748  001B              #pragma debug scope 31 1
 751  001B              #line 751 "D:\WORK\Project\Github\Holtel-MCU\Code\HT66FM5440\110V_hbridge\bdc_control.c"
 751  0000              _print_byte .section 'code'
 751  0000              _print_byte proc
 751  0000  00              local _print_byte_2 db 1 dup(?)	; 0,1
 751  0000  0080     R  	mov _print_byte_2[0],a
 751  0001              #pragma debug variable 8 31 _print_byte_2+0 "b"
 752  0001              #line 752 "D:\WORK\Project\Github\Holtel-MCU\Code\HT66FM5440\110V_hbridge\bdc_control.c"
 752  0001  1100     R  	swapa _print_byte_2[0]
 752  0002  0E0F        	and a,0fh
 752  0003  0080     E  	mov ra,a
 752  0004  1F00     E  	clr rb
 752  0005  0F00     R  	mov a,low offset _ascii
 752  0006  0380     E  	addm a,ra
 752  0007  0F00     R  	mov a,high offset _ascii
 752  0008  1380     E  	adcm a,rb
 752  0009  0700     E  	mov a,ra
 752  000A  0083        	mov mp,a
 752  000B  0700     E  	mov a,rb
 752  000C  0084        	mov sbp,a
 752  000D  2000     E  	call _Crom2Prom
 752  000E  0080     E  	mov ra,a
 752  000F  0700     E  	mov a,ra
 752  0010  2000     R  	call _ua_outchar
 753  0011              #line 753 "D:\WORK\Project\Github\Holtel-MCU\Code\HT66FM5440\110V_hbridge\bdc_control.c"
 753  0011  0700     R  	mov a,_print_byte_2[0]
 753  0012  0080     E  	mov ra,a
 753  0013  1F00     E  	clr rb
 753  0014  0F0F        	mov a,15  
 753  0015  0680     E  	andm a,ra  
 753  0016  0F00        	mov a,0  
 753  0017  0680     E  	andm a,rb
 753  0018  0F00     R  	mov a,low offset _ascii
 753  0019  0380     E  	addm a,ra
 753  001A  0F00     R  	mov a,high offset _ascii
 753  001B  1380     E  	adcm a,rb
 753  001C  0700     E  	mov a,ra
 753  001D  0083        	mov mp,a
 753  001E  0700     E  	mov a,rb
 753  001F  0084        	mov sbp,a
 753  0020  2000     E  	call _Crom2Prom
 753  0021  0080     E  	mov ra,a
 753  0022  0700     E  	mov a,ra
 753  0023  2000     R  	call _ua_outchar
 753  0024  0003        	ret
 753  0025              _print_byte endp
 753  0025              #line 753 "D:\WORK\Project\Github\Holtel-MCU\Code\HT66FM5440\110V_hbridge\bdc_control.c"
 753  0025              #pragma debug scope 1 1
 753  0025              public _print_string
 753  0025              #pragma debug scope 32 1
 757  0025              #line 757 "D:\WORK\Project\Github\Holtel-MCU\Code\HT66FM5440\110V_hbridge\bdc_control.c"
 757  0000              _print_string .section 'code'
 757  0000              _print_string proc
 757  0000              public _print_string_2
 757  0000  0002[           local _print_string_2 db 2 dup(?)	; 2,0
"File: bdc_control.c  Assembler  Version HGASM0202      Page 38

            00
            ]
 757  0002              #pragma debug pointer 44 7 32
 757  0002              #pragma debug pointer 44 7 32
 757  0002              #pragma debug variable 44 32 _print_string_2+0 "s"
 758  0002              #line 758 "D:\WORK\Project\Github\Holtel-MCU\Code\HT66FM5440\110V_hbridge\bdc_control.c"
 758  0000  2800     R  	jmp _L96
 758  0001              _L98:
 760  0001              #line 760 "D:\WORK\Project\Github\Holtel-MCU\Code\HT66FM5440\110V_hbridge\bdc_control.c"
 760  0001  0700     R  	mov a,_print_string_2[0]
 760  0002  0080     E  	mov ra,a
 760  0003  0700     R  	mov a,_print_string_2[1]
 760  0004  0080     E  	mov rb,a
 760  0005  0700     E  	mov a,ra
 760  0006  0083        	mov mp,a
 760  0007  0700     E  	mov a,rb
 760  0008  0084        	mov sbp,a
 760  0009  2000     E  	call _Crom2Prom
 760  000A  0080     E  	mov ra,a
 760  000B  0700     E  	mov a,ra
 760  000C  0A0A        	sub a,10
 760  000D  390A        	snz z
 760  000E  2800     R  	jmp _L97
 761  000F              #line 761 "D:\WORK\Project\Github\Holtel-MCU\Code\HT66FM5440\110V_hbridge\bdc_control.c"
 761  000F  0F0D        	mov a,13
 761  0010  2000     R  	call _ua_outchar
 761  0011              _L97:
 762  0011              #line 762 "D:\WORK\Project\Github\Holtel-MCU\Code\HT66FM5440\110V_hbridge\bdc_control.c"
 762  0011  0700     R  	mov a,_print_string_2[0]
 762  0012  0080     E  	mov ra,a
 762  0013  0700     R  	mov a,_print_string_2[1]
 762  0014  0080     E  	mov rb,a
 762  0015  0700     E  	mov a,ra
 762  0016  0083        	mov mp,a
 762  0017  0700     E  	mov a,rb
 762  0018  0084        	mov sbp,a
 762  0019  2000     E  	call _Crom2Prom
 762  001A  0080     E  	mov ra,a
 762  001B  0700     E  	mov a,ra
 762  001C  2000     R  	call _ua_outchar
 763  001D              #line 763 "D:\WORK\Project\Github\Holtel-MCU\Code\HT66FM5440\110V_hbridge\bdc_control.c"
 763  001D  1480     R  	inc _print_string_2[0]
 763  001E  3D0A        	sz z
 763  001F  1480     R  	inc _print_string_2[1]
 763  0020              _L96:
 758  0020              #line 758 "D:\WORK\Project\Github\Holtel-MCU\Code\HT66FM5440\110V_hbridge\bdc_control.c"
 758  0020  0700     R  	mov a,_print_string_2[0]
 758  0021  0080     E  	mov ra,a
 758  0022  0700     R  	mov a,_print_string_2[1]
 758  0023  0080     E  	mov rb,a
 758  0024  0700     E  	mov a,ra
 758  0025  0083        	mov mp,a
 758  0026  0700     E  	mov a,rb
 758  0027  0084        	mov sbp,a
 758  0028  2000     E  	call _Crom2Prom
 758  0029  0080     E  	mov ra,a
 758  002A  1080     E  	sz ra
 758  002B  2800     R  	jmp _L98
 758  002C  0003        	ret
 758  002D              _print_string endp
"File: bdc_control.c  Assembler  Version HGASM0202      Page 39

 758  002D              #line 758 "D:\WORK\Project\Github\Holtel-MCU\Code\HT66FM5440\110V_hbridge\bdc_control.c"
 758  002D              #pragma debug scope 1 1
 758  002D              #pragma debug struct_end
 758  002D              #pragma debug struct_end
 758  002D              #pragma debug union_end
 758  002D              #pragma debug union_end
 758  002D              #pragma debug variable 46 1 ___intc0 "__intc0" 1
 758  002D              #pragma debug struct_end
 758  002D              #pragma debug struct_end
 758  002D              #pragma debug union_end
 758  002D              #pragma debug union_end
 758  002D              #pragma debug variable 48 1 ___intc2 "__intc2" 1
 758  002D              #pragma debug struct_end
 758  002D              #pragma debug struct_end
 758  002D              #pragma debug union_end
 758  002D              #pragma debug union_end
 758  002D              #pragma debug variable 50 1 ___intc3 "__intc3" 1
 758  002D              #pragma debug struct_end
 758  002D              #pragma debug struct_end
 758  002D              #pragma debug union_end
 758  002D              #pragma debug union_end
 758  002D              #pragma debug variable 52 1 ___mfi1 "__mfi1" 1
 758  002D              #pragma debug struct_end
 758  002D              #pragma debug struct_end
 758  002D              #pragma debug union_end
 758  002D              #pragma debug union_end
 758  002D              #pragma debug variable 54 1 ___mfi2 "__mfi2" 1
 758  002D              #pragma debug struct_end
 758  002D              #pragma debug struct_end
 758  002D              #pragma debug union_end
 758  002D              #pragma debug union_end
 758  002D              #pragma debug variable 56 1 ___mfi7 "__mfi7" 1
 758  002D              #pragma debug struct_end
 758  002D              #pragma debug struct_end
 758  002D              #pragma debug union_end
 758  002D              #pragma debug union_end
 758  002D              #pragma debug variable 58 1 ___pa "__pa" 1
 758  002D              #pragma debug struct_end
 758  002D              #pragma debug struct_end
 758  002D              #pragma debug union_end
 758  002D              #pragma debug union_end
 758  002D              #pragma debug variable 60 1 ___pac "__pac" 1
 758  002D              #pragma debug struct_end
 758  002D              #pragma debug struct_end
 758  002D              #pragma debug union_end
 758  002D              #pragma debug union_end
 758  002D              #pragma debug variable 62 1 ___pbpu "__pbpu" 1
 758  002D              #pragma debug struct_end
 758  002D              #pragma debug struct_end
 758  002D              #pragma debug union_end
 758  002D              #pragma debug union_end
 758  002D              #pragma debug variable 64 1 ___pb "__pb" 1
 758  002D              #pragma debug struct_end
 758  002D              #pragma debug struct_end
 758  002D              #pragma debug union_end
 758  002D              #pragma debug union_end
 758  002D              #pragma debug variable 66 1 ___pbc "__pbc" 1
 758  002D              #pragma debug struct_end
 758  002D              #pragma debug struct_end
 758  002D              #pragma debug union_end
"File: bdc_control.c  Assembler  Version HGASM0202      Page 40

 758  002D              #pragma debug union_end
 758  002D              #pragma debug variable 68 1 ___pc "__pc" 1
 758  002D              #pragma debug struct_end
 758  002D              #pragma debug struct_end
 758  002D              #pragma debug union_end
 758  002D              #pragma debug union_end
 758  002D              #pragma debug variable 70 1 ___pcc "__pcc" 1
 758  002D              #pragma debug variable 8 1 ___adrl "__adrl" 1
 758  002D              #pragma debug variable 8 1 ___adrh "__adrh" 1
 758  002D              #pragma debug struct_end
 758  002D              #pragma debug struct_end
 758  002D              #pragma debug union_end
 758  002D              #pragma debug union_end
 758  002D              #pragma debug variable 72 1 ___adcr0 "__adcr0" 1
 758  002D              #pragma debug struct_end
 758  002D              #pragma debug struct_end
 758  002D              #pragma debug union_end
 758  002D              #pragma debug union_end
 758  002D              #pragma debug variable 74 1 ___adcr1 "__adcr1" 1
 758  002D              #pragma debug struct_end
 758  002D              #pragma debug struct_end
 758  002D              #pragma debug union_end
 758  002D              #pragma debug union_end
 758  002D              #pragma debug variable 76 1 ___adcr2 "__adcr2" 1
 758  002D              #pragma debug struct_end
 758  002D              #pragma debug struct_end
 758  002D              #pragma debug union_end
 758  002D              #pragma debug union_end
 758  002D              #pragma debug variable 78 1 ___pbps1 "__pbps1" 1
 758  002D              #pragma debug struct_end
 758  002D              #pragma debug struct_end
 758  002D              #pragma debug union_end
 758  002D              #pragma debug union_end
 758  002D              #pragma debug variable 80 1 ___ocps "__ocps" 1
 758  002D              #pragma debug struct_end
 758  002D              #pragma debug struct_end
 758  002D              #pragma debug union_end
 758  002D              #pragma debug union_end
 758  002D              #pragma debug variable 82 1 ___mptc1 "__mptc1" 1
 758  002D              #pragma debug struct_end
 758  002D              #pragma debug struct_end
 758  002D              #pragma debug union_end
 758  002D              #pragma debug union_end
 758  002D              #pragma debug variable 84 1 ___mptc2 "__mptc2" 1
 758  002D              #pragma debug struct_end
 758  002D              #pragma debug struct_end
 758  002D              #pragma debug union_end
 758  002D              #pragma debug union_end
 758  002D              #pragma debug variable 86 1 ___pwmc "__pwmc" 1
 758  002D              #pragma debug variable 8 1 ___dutr0l "__dutr0l" 1
 758  002D              #pragma debug variable 8 1 ___dutr0h "__dutr0h" 1
 758  002D              #pragma debug variable 8 1 ___prdrl "__prdrl" 1
 758  002D              #pragma debug variable 8 1 ___prdrh "__prdrh" 1
 758  002D              #pragma debug struct_end
 758  002D              #pragma debug struct_end
 758  002D              #pragma debug union_end
 758  002D              #pragma debug union_end
 758  002D              #pragma debug variable 88 1 ___pwmme "__pwmme" 1
 758  002D              #pragma debug struct_end
 758  002D              #pragma debug struct_end
"File: bdc_control.c  Assembler  Version HGASM0202      Page 41

 758  002D              #pragma debug union_end
 758  002D              #pragma debug union_end
 758  002D              #pragma debug variable 90 1 ___pwmmd "__pwmmd" 1
 758  002D              #pragma debug struct_end
 758  002D              #pragma debug struct_end
 758  002D              #pragma debug union_end
 758  002D              #pragma debug union_end
 758  002D              #pragma debug variable 92 1 ___mcf "__mcf" 1
 758  002D              #pragma debug struct_end
 758  002D              #pragma debug struct_end
 758  002D              #pragma debug union_end
 758  002D              #pragma debug union_end
 758  002D              #pragma debug variable 94 1 ___dts "__dts" 1
 758  002D              #pragma debug struct_end
 758  002D              #pragma debug struct_end
 758  002D              #pragma debug union_end
 758  002D              #pragma debug union_end
 758  002D              #pragma debug variable 96 1 ___plc "__plc" 1
 758  002D              #pragma debug struct_end
 758  002D              #pragma debug struct_end
 758  002D              #pragma debug union_end
 758  002D              #pragma debug union_end
 758  002D              #pragma debug variable 98 1 ___usr "__usr" 1
 758  002D              #pragma debug struct_end
 758  002D              #pragma debug struct_end
 758  002D              #pragma debug union_end
 758  002D              #pragma debug union_end
 758  002D              #pragma debug variable 100 1 ___ucr1 "__ucr1" 1
 758  002D              #pragma debug struct_end
 758  002D              #pragma debug struct_end
 758  002D              #pragma debug union_end
 758  002D              #pragma debug union_end
 758  002D              #pragma debug variable 102 1 ___ucr2 "__ucr2" 1
 758  002D              #pragma debug struct_end
 758  002D              #pragma debug struct_end
 758  002D              #pragma debug union_end
 758  002D              #pragma debug union_end
 758  002D              #pragma debug variable 104 1 ___brg "__brg" 1
 758  002D              #pragma debug struct_end
 758  002D              #pragma debug struct_end
 758  002D              #pragma debug union_end
 758  002D              #pragma debug union_end
 758  002D              #pragma debug variable 106 1 ___txr_rxr "__txr_rxr" 1
 758  002D              #pragma debug struct_end
 758  002D              #pragma debug struct_end
 758  002D              #pragma debug union_end
 758  002D              #pragma debug union_end
 758  002D              #pragma debug variable 108 1 ___tbc "__tbc" 1
 758  002D              #pragma debug struct_end
 758  002D              #pragma debug struct_end
 758  002D              #pragma debug union_end
 758  002D              #pragma debug union_end
 758  002D              #pragma debug variable 110 1 ___adbyps "__adbyps" 1
 758  002D              #pragma debug struct_end
 758  002D              #pragma debug struct_end
 758  002D              #pragma debug union_end
 758  002D              #pragma debug union_end
 758  002D              #pragma debug variable 112 1 ___pwmcs "__pwmcs" 1
 758  002D              #pragma debug struct_end
 758  002D              #pragma debug struct_end
"File: bdc_control.c  Assembler  Version HGASM0202      Page 42

 758  002D              #pragma debug union_end
 758  002D              #pragma debug union_end
 758  002D              #pragma debug variable 114 1 ___paps0 "__paps0" 1
 758  002D              #pragma debug struct_end
 758  002D              #pragma debug struct_end
 758  002D              #pragma debug union_end
 758  002D              #pragma debug union_end
 758  002D              #pragma debug variable 116 1 ___paps1 "__paps1" 1
 758  002D              #pragma debug struct_end
 758  002D              #pragma debug struct_end
 758  002D              #pragma debug union_end
 758  002D              #pragma debug union_end
 758  002D              #pragma debug variable 118 1 ___pcps0 "__pcps0" 1
 758  002D              #pragma debug struct_end
 758  002D              #pragma debug struct_end
 758  002D              #pragma debug union_end
 758  002D              #pragma debug union_end
 758  002D              #pragma debug variable 120 1 ___pcps1 "__pcps1" 1
 758  002D              #pragma debug struct_end
 758  002D              #pragma debug struct_end
 758  002D              #pragma debug union_end
 758  002D              #pragma debug union_end
 758  002D              #pragma debug variable 122 1 ___pdps0 "__pdps0" 1
 758  002D              extern r1:byte
 758  002D              extern r2:byte
 758  002D              extern r3:byte
 758  002D              extern r4:byte
 111  002D              #line 111 "D:\WORK\Project\Github\Holtel-MCU\Code\HT66FM5440\110V_hbridge\bdc_control.c"
 111  0000              @code .section at 0 'code'
 111  0000  2800     R  	jmp _main_startup1
 111  0001              
 111  0001              
 111  0001              ; 
 111  0001              ; Generated by holtek-gcc v3.19, Thu Sep 19 20:14:18 2019
 111  0001              ; Rebuild 718
 111  0001              ; end of file


        0 Errors, 0