"File: hbridge.c     Assembler  Version HGASM0202      Page 1


   1  0000              ; Generated by holtek-gcc v3.19, Fri Aug 23 18:43:12 2019
   2  0000              ; 
   3  0000              ; Configuration:
   4  0000              ;       with long instruction
   5  0000              ;       Single ROM, Multi-RAM
   6  0000              ;       bits_per_rom_unit:16
   7  0000              ;       with mp1
   8  0000              ;       with tbhp, address(0x9)
   9  0000              ;          Use tabrd-const
  10  0000              ;       
  11  0000              ; SFR address of long-instruction arch:
  12  0000              ;    mp0 = -1,1,0
  13  0000              ;    mp1 = 4,3,2
  14  0000              ;    mp2 = 14,13,12
  15  0000              ;    tbp = 9,7,8
  16  0000              ;    acc = 5
  17  0000              ;    pcl = 6
  18  0000              ;    status = 10
  19  0000              ;    bp = 11
  20  0000              ;    intc = 21
  21  0000              ;       
  22  0000              ;       
  23  0000              ; use 'tabrdc' instead of 'tabrd'
  24  0000              ;       
  25  0000              
  26  0000              #pragma translator "holtek-gcc 4.6.4" "3.19" "build 20130711"
  27  0000              ; Rebuild 115
  28  0000              
  29  0000              ir equ [2]
  30  0000              mp equ [3]
  31  0000              sbp equ [4]
  32  0000              acc equ [5]
  33  0000              bp equ [11]
  34  0000              tblp equ [7]
  35  0000              tbhp equ [9]
  36  0000              status equ [10]
  37  0000              c equ [10].0
  38  0000              ac equ [10].1
  39  0000              z equ [10].2
  40  0000              ov equ [10].3
  41  0000              cz equ [10].6
  42  0000              sc equ [10].7
  43  0000              intc equ [21]
  44  0000              mdu0r0 equ [73h]
  45  0000              mdu0r1 equ [74h]
  46  0000              mdu0ctrl equ [75h]
  47  0000              mduwr0 equ [76h]
  48  0000              mduwr1 equ [77h]
  49  0000              mduwr2 equ [78h]
  50  0000              mduwr3 equ [7ah]
  51  0000              mduwr4 equ [7bh]
  52  0000              mduwr5 equ [7ch]
  53  0000              mduwrctrl equ [7dh]
  54  0000              
  55  0000              extern ra:byte
  56  0000              extern rb:byte
  57  0000              extern rc:byte
  58  0000              extern rd:byte
  59  0000              extern re:byte
"File: hbridge.ASM   Assembler  Version HGASM0202      Page 2

  60  0000              extern rf:byte
  61  0000              extern rg:byte
  62  0000              extern rh:byte
  63  0000              extern _Crom2Prom:near
  64  0000              extern _Crom2PromNext:near
  65  0000              
  66  0000              RAMBANK 0 @BITDATASEC, @BITDATASEC1
  67  0000              @HCCINIT	.section 'data'
  68  0000              @HCCINIT0	.section 'data'
  69  0000              @BITDATASEC	 .section 'data'
  70  0000              @BITDATASEC1	 .section 'data'
  71  0000              
  72  0000              #pragma debug scope 1 1
  73  0000              	extern __DELAY3:near
  74  0000              	extern __DELAYX3:near
  75  0000              	extern __DELAYX6:near
  76  0000              	extern __DELAYY5:near
  77  0000              	extern __DELAYY3:near
  78  0000              	extern _builtin_holtek_delay_2:byte
  79  0000              ___hdcr equ [73]
  80  0000              ___hdcd equ [74]
  81  0000              ___dutr0h equ [89]
  82  0000              ___dutr0l equ [88]
  83  0000              ___pwmcs equ [341]
  84  0000              ___pwmc equ [87]
  85  0000              public _Set_Motor_Fwd
  86  0000              #pragma debug scope 2 1

 283  0000              #line 283 "D:\WORK\Project\Github\Holtel-MCU\Code\HT66FM5440\110V_hbridge\hbridge.c"
 283  0000              _Set_Motor_Fwd .section 'code'
 283  0000              _Set_Motor_Fwd proc
 292  0000              #line 292 "D:\WORK\Project\Github\Holtel-MCU\Code\HT66FM5440\110V_hbridge\hbridge.c"
 292  0000  3049        	set [73].0
 293  0001              #line 293 "D:\WORK\Project\Github\Holtel-MCU\Code\HT66FM5440\110V_hbridge\hbridge.c"
 293  0001  0F01        	mov a,1
 293  0002  00CA        	mov [74],a
 294  0003              #line 294 "D:\WORK\Project\Github\Holtel-MCU\Code\HT66FM5440\110V_hbridge\hbridge.c"
 294  0003  30C9        	set [73].1
 295  0004              #line 295 "D:\WORK\Project\Github\Holtel-MCU\Code\HT66FM5440\110V_hbridge\hbridge.c"
 295  0004  3549        	clr [73].2
 295  0005              #pragma debug scope 3 2
 295  0005              ;begin block, line: 295.-1
 296  0005              #line 296 "D:\WORK\Project\Github\Holtel-MCU\Code\HT66FM5440\110V_hbridge\hbridge.c"
 296  0005  1F00     R  	clr _duty_now[0]
 296  0006  1F00     R  	clr _duty_now[1]
 296  0007  1F59        	clr [89]
 296  0008  1F58        	clr [88]
 296  0009  B155 0001   	lset [341].2
 296  000B              #pragma debug scope 2 1
 297  000B              #line 297 "D:\WORK\Project\Github\Holtel-MCU\Code\HT66FM5440\110V_hbridge\hbridge.c"
 297  000B  31D7        	set [87].3
 297  000C  0003        	ret
 297  000D              _Set_Motor_Fwd endp
 297  000D              #line 297 "D:\WORK\Project\Github\Holtel-MCU\Code\HT66FM5440\110V_hbridge\hbridge.c"
 297  000D              #pragma debug scope 1 1
 297  000D              public _Set_Motor_Rev
 297  000D              #pragma debug scope 4 1
 301  000D              #line 301 "D:\WORK\Project\Github\Holtel-MCU\Code\HT66FM5440\110V_hbridge\hbridge.c"
 301  0000              _Set_Motor_Rev .section 'code'
 301  0000              _Set_Motor_Rev proc
"File: hbridge.c     Assembler  Version HGASM0202      Page 3

 309  0000              #line 309 "D:\WORK\Project\Github\Holtel-MCU\Code\HT66FM5440\110V_hbridge\hbridge.c"
 309  0000  3049        	set [73].0
 310  0001              #line 310 "D:\WORK\Project\Github\Holtel-MCU\Code\HT66FM5440\110V_hbridge\hbridge.c"
 310  0001  0F01        	mov a,1
 310  0002  00CA        	mov [74],a
 311  0003              #line 311 "D:\WORK\Project\Github\Holtel-MCU\Code\HT66FM5440\110V_hbridge\hbridge.c"
 311  0003  34C9        	clr [73].1
 312  0004              #line 312 "D:\WORK\Project\Github\Holtel-MCU\Code\HT66FM5440\110V_hbridge\hbridge.c"
 312  0004  3549        	clr [73].2
 312  0005              #pragma debug scope 5 4
 312  0005              ;begin block, line: 312.-1
 313  0005              #line 313 "D:\WORK\Project\Github\Holtel-MCU\Code\HT66FM5440\110V_hbridge\hbridge.c"
 313  0005  1F00     R  	clr _duty_now[0]
 313  0006  1F00     R  	clr _duty_now[1]
 313  0007  1F59        	clr [89]
 313  0008  1F58        	clr [88]
 313  0009  B155 0001   	lset [341].2
 313  000B              #pragma debug scope 4 1
 314  000B              #line 314 "D:\WORK\Project\Github\Holtel-MCU\Code\HT66FM5440\110V_hbridge\hbridge.c"
 314  000B  31D7        	set [87].3
 314  000C  0003        	ret
 314  000D              _Set_Motor_Rev endp
 314  000D              #line 314 "D:\WORK\Project\Github\Holtel-MCU\Code\HT66FM5440\110V_hbridge\hbridge.c"
 314  000D              #pragma debug scope 1 1
 314  000D              public _Set_Motor_Brake
 314  000D              #pragma debug scope 6 1
 318  000D              #line 318 "D:\WORK\Project\Github\Holtel-MCU\Code\HT66FM5440\110V_hbridge\hbridge.c"
 318  0000              _Set_Motor_Brake .section 'code'
 318  0000              _Set_Motor_Brake proc
 318  0000              #pragma debug scope 7 6
 318  0000              ;begin block, line: 318.-1
 322  0000              #line 322 "D:\WORK\Project\Github\Holtel-MCU\Code\HT66FM5440\110V_hbridge\hbridge.c"
 322  0000  1F00     R  	clr _duty_now[0]
 322  0001  1F00     R  	clr _duty_now[1]
 322  0002  1F59        	clr [89]
 322  0003  1F58        	clr [88]
 322  0004  B155 0001   	lset [341].2
 322  0006              #pragma debug scope 6 1
 323  0006              #line 323 "D:\WORK\Project\Github\Holtel-MCU\Code\HT66FM5440\110V_hbridge\hbridge.c"
 323  0006  35D7        	clr [87].3
 324  0007              #line 324 "D:\WORK\Project\Github\Holtel-MCU\Code\HT66FM5440\110V_hbridge\hbridge.c"
 324  0007  3000     R  	set _bPauseDutyCnt
 325  0008              #line 325 "D:\WORK\Project\Github\Holtel-MCU\Code\HT66FM5440\110V_hbridge\hbridge.c"
 325  0008  3149        	set [73].2
 325  0009  0003        	ret
 325  000A              _Set_Motor_Brake endp
 325  000A              #line 325 "D:\WORK\Project\Github\Holtel-MCU\Code\HT66FM5440\110V_hbridge\hbridge.c"
 325  000A              #pragma debug scope 1 1
 325  000A              ___prdrh equ [95]
 325  000A              ___prdrl equ [94]
 325  000A              ___dutr3h equ [78]
 325  000A              ___dutr3l equ [77]
 325  000A              ___mcf equ [100]
 325  000A              ___pwmmd equ [99]
 325  000A              ___pwmme equ [98]
 325  000A              ___dts equ [102]
 325  000A              ___plc equ [103]
 325  000A              ___integ0 equ [69]
 325  000A              ___hdct0 equ [354]
 325  000A              ___hdct1 equ [355]
"File: hbridge.c     Assembler  Version HGASM0202      Page 4

 325  000A              ___hdct2 equ [356]
 325  000A              ___hdct3 equ [357]
 325  000A              ___hdct4 equ [358]
 325  000A              ___hdct5 equ [359]
 325  000A              ___hdct6 equ [360]
 325  000A              ___hdct7 equ [361]
 325  000A              ___hdct8 equ [362]
 325  000A              ___hdct9 equ [363]
 325  000A              ___hdct10 equ [364]
 325  000A              ___hdct11 equ [365]
 325  000A              public _Motor_Init
 325  000A              #pragma debug scope 8 1
 237  000A              #line 237 "D:\WORK\Project\Github\Holtel-MCU\Code\HT66FM5440\110V_hbridge\hbridge.c"
 237  0000              _Motor_Init .section 'code'
 237  0000              _Motor_Init proc
 239  0000              #line 239 "D:\WORK\Project\Github\Holtel-MCU\Code\HT66FM5440\110V_hbridge\hbridge.c"
 239  0000  0F31        	mov a,49
 239  0001  00D7        	mov [87],a
 243  0002              #line 243 "D:\WORK\Project\Github\Holtel-MCU\Code\HT66FM5440\110V_hbridge\hbridge.c"
 243  0002  0F07        	mov a,7
 243  0003  80D5 0001   	lmov [341],a
 244  0005              #line 244 "D:\WORK\Project\Github\Holtel-MCU\Code\HT66FM5440\110V_hbridge\hbridge.c"
 244  0005  1F5F        	clr [95]
 245  0006              #line 245 "D:\WORK\Project\Github\Holtel-MCU\Code\HT66FM5440\110V_hbridge\hbridge.c"
 245  0006  0FC8        	mov a,200
 245  0007  00DE        	mov [94],a
 246  0008              #line 246 "D:\WORK\Project\Github\Holtel-MCU\Code\HT66FM5440\110V_hbridge\hbridge.c"
 246  0008  1F4E        	clr [78]
 247  0009              #line 247 "D:\WORK\Project\Github\Holtel-MCU\Code\HT66FM5440\110V_hbridge\hbridge.c"
 247  0009  1F4D        	clr [77]
 248  000A              #line 248 "D:\WORK\Project\Github\Holtel-MCU\Code\HT66FM5440\110V_hbridge\hbridge.c"
 248  000A  1F59        	clr [89]
 249  000B              #line 249 "D:\WORK\Project\Github\Holtel-MCU\Code\HT66FM5440\110V_hbridge\hbridge.c"
 249  000B  1F58        	clr [88]
 250  000C              #line 250 "D:\WORK\Project\Github\Holtel-MCU\Code\HT66FM5440\110V_hbridge\hbridge.c"
 250  000C  B155 0001   	lset [341].2
 253  000E              #line 253 "D:\WORK\Project\Github\Holtel-MCU\Code\HT66FM5440\110V_hbridge\hbridge.c"
 253  000E  0F07        	mov a,7
 253  000F  00E4        	mov [100],a
 254  0010              #line 254 "D:\WORK\Project\Github\Holtel-MCU\Code\HT66FM5440\110V_hbridge\hbridge.c"
 254  0010  0F2A        	mov a,42
 254  0011  00E3        	mov [99],a
 255  0012              #line 255 "D:\WORK\Project\Github\Holtel-MCU\Code\HT66FM5440\110V_hbridge\hbridge.c"
 255  0012  1FE2        	set [98]
 259  0013              #line 259 "D:\WORK\Project\Github\Holtel-MCU\Code\HT66FM5440\110V_hbridge\hbridge.c"
 259  0013  0FE0        	mov a,224
 259  0014  00E6        	mov [102],a
 260  0015              #line 260 "D:\WORK\Project\Github\Holtel-MCU\Code\HT66FM5440\110V_hbridge\hbridge.c"
 260  0015  1F67        	clr [103]
 263  0016              #line 263 "D:\WORK\Project\Github\Holtel-MCU\Code\HT66FM5440\110V_hbridge\hbridge.c"
 263  0016  1F45        	clr [69]
 264  0017              #line 264 "D:\WORK\Project\Github\Holtel-MCU\Code\HT66FM5440\110V_hbridge\hbridge.c"
 264  0017  0FD5        	mov a,213
 264  0018  00C9        	mov [73],a
 265  0019              #line 265 "D:\WORK\Project\Github\Holtel-MCU\Code\HT66FM5440\110V_hbridge\hbridge.c"
 265  0019  1F4A        	clr [74]
 266  001A              #line 266 "D:\WORK\Project\Github\Holtel-MCU\Code\HT66FM5440\110V_hbridge\hbridge.c"
 266  001A  0F09        	mov a,9
 266  001B  80E2 0001   	lmov [354],a
 267  001D              #line 267 "D:\WORK\Project\Github\Holtel-MCU\Code\HT66FM5440\110V_hbridge\hbridge.c"
"File: hbridge.c     Assembler  Version HGASM0202      Page 5

 267  001D  0F09        	mov a,9
 267  001E  80E3 0001   	lmov [355],a
 268  0020              #line 268 "D:\WORK\Project\Github\Holtel-MCU\Code\HT66FM5440\110V_hbridge\hbridge.c"
 268  0020  0F09        	mov a,9
 268  0021  80E4 0001   	lmov [356],a
 269  0023              #line 269 "D:\WORK\Project\Github\Holtel-MCU\Code\HT66FM5440\110V_hbridge\hbridge.c"
 269  0023  0F09        	mov a,9
 269  0024  80E5 0001   	lmov [357],a
 270  0026              #line 270 "D:\WORK\Project\Github\Holtel-MCU\Code\HT66FM5440\110V_hbridge\hbridge.c"
 270  0026  0F09        	mov a,9
 270  0027  80E6 0001   	lmov [358],a
 271  0029              #line 271 "D:\WORK\Project\Github\Holtel-MCU\Code\HT66FM5440\110V_hbridge\hbridge.c"
 271  0029  0F09        	mov a,9
 271  002A  80E7 0001   	lmov [359],a
 272  002C              #line 272 "D:\WORK\Project\Github\Holtel-MCU\Code\HT66FM5440\110V_hbridge\hbridge.c"
 272  002C  0F06        	mov a,6
 272  002D  80E8 0001   	lmov [360],a
 273  002F              #line 273 "D:\WORK\Project\Github\Holtel-MCU\Code\HT66FM5440\110V_hbridge\hbridge.c"
 273  002F  0F06        	mov a,6
 273  0030  80E9 0001   	lmov [361],a
 274  0032              #line 274 "D:\WORK\Project\Github\Holtel-MCU\Code\HT66FM5440\110V_hbridge\hbridge.c"
 274  0032  0F06        	mov a,6
 274  0033  80EA 0001   	lmov [362],a
 275  0035              #line 275 "D:\WORK\Project\Github\Holtel-MCU\Code\HT66FM5440\110V_hbridge\hbridge.c"
 275  0035  0F06        	mov a,6
 275  0036  80EB 0001   	lmov [363],a
 276  0038              #line 276 "D:\WORK\Project\Github\Holtel-MCU\Code\HT66FM5440\110V_hbridge\hbridge.c"
 276  0038  0F06        	mov a,6
 276  0039  80EC 0001   	lmov [364],a
 277  003B              #line 277 "D:\WORK\Project\Github\Holtel-MCU\Code\HT66FM5440\110V_hbridge\hbridge.c"
 277  003B  0F06        	mov a,6
 277  003C  80ED 0001   	lmov [365],a
 279  003E              #line 279 "D:\WORK\Project\Github\Holtel-MCU\Code\HT66FM5440\110V_hbridge\hbridge.c"
 279  003E  2000     R  	call _Set_Motor_Brake
 279  003F  0003        	ret
 279  0040              _Motor_Init endp
 279  0040              #line 279 "D:\WORK\Project\Github\Holtel-MCU\Code\HT66FM5440\110V_hbridge\hbridge.c"
 279  0040              #pragma debug scope 1 1
 279  0040              public _Set_Motor_FreeRun
 279  0040              #pragma debug scope 9 1
 329  0040              #line 329 "D:\WORK\Project\Github\Holtel-MCU\Code\HT66FM5440\110V_hbridge\hbridge.c"
 329  0000              _Set_Motor_FreeRun .section 'code'
 329  0000              _Set_Motor_FreeRun proc
 330  0000              #line 330 "D:\WORK\Project\Github\Holtel-MCU\Code\HT66FM5440\110V_hbridge\hbridge.c"
 330  0000  3449        	clr [73].0
 331  0001              #line 331 "D:\WORK\Project\Github\Holtel-MCU\Code\HT66FM5440\110V_hbridge\hbridge.c"
 331  0001  3549        	clr [73].2
 331  0002  0003        	ret
 331  0003              _Set_Motor_FreeRun endp
 331  0003              #line 331 "D:\WORK\Project\Github\Holtel-MCU\Code\HT66FM5440\110V_hbridge\hbridge.c"
 331  0003              #pragma debug scope 1 1
 331  0003              ___usr equ [109]
 331  0003              ___txr_rxr equ [113]
 331  0003              public _Uart_Tx
 331  0003              #pragma debug scope 10 1
 335  0003              #line 335 "D:\WORK\Project\Github\Holtel-MCU\Code\HT66FM5440\110V_hbridge\hbridge.c"
 335  0000              _Uart_Tx .section 'code'
 335  0000              _Uart_Tx proc
 335  0000  00              local _Uart_Tx_2 db 1 dup(?)	; 0,1
 335  0000  0080     R  	mov _Uart_Tx_2[0],a
"File: hbridge.c     Assembler  Version HGASM0202      Page 6

 335  0001              #pragma debug variable 8 10 _Uart_Tx_2+0 "txdata"
 335  0001  1F00     E  	clr ra
 335  0002              _L7:
 335  0002  1480     E  	inc ra
 343  0003              #line 343 "D:\WORK\Project\Github\Holtel-MCU\Code\HT66FM5440\110V_hbridge\hbridge.c"
 343  0003  3C6D        	sz [109].0
 343  0004  2800     R  	jmp _L8
 346  0005              #line 346 "D:\WORK\Project\Github\Holtel-MCU\Code\HT66FM5440\110V_hbridge\hbridge.c"
 346  0005              ;# 346 "D:\WORK\Project\Github\Holtel-MCU\Code\HT66FM5440\110V_hbridge\hbridge.c" 1
 346  0005  0001        	clr wdt
 340  0006              #line 340 "D:\WORK\Project\Github\Holtel-MCU\Code\HT66FM5440\110V_hbridge\hbridge.c"
 340  0006  1600     E  	siza ra
 340  0007  2800     R  	jmp _L7
 341  0008              #line 341 "D:\WORK\Project\Github\Holtel-MCU\Code\HT66FM5440\110V_hbridge\hbridge.c"
 341  0008  0F01        	mov a,1
 341  0009  0080     E  	mov ra,a
 341  000A  2800     R  	jmp _L9
 341  000B              _L8:
 349  000B              #line 349 "D:\WORK\Project\Github\Holtel-MCU\Code\HT66FM5440\110V_hbridge\hbridge.c"
 349  000B  0700     R  	mov a,_Uart_Tx_2[0]
 349  000C  00F1        	mov [113],a
 350  000D              #line 350 "D:\WORK\Project\Github\Holtel-MCU\Code\HT66FM5440\110V_hbridge\hbridge.c"
 350  000D  1F00     E  	clr ra
 350  000E              _L9:
 351  000E              #line 351 "D:\WORK\Project\Github\Holtel-MCU\Code\HT66FM5440\110V_hbridge\hbridge.c"
 351  000E  0700     E  	mov a,ra
 351  000F  0003        	ret
 351  0010              _Uart_Tx endp
 351  0010              #line 351 "D:\WORK\Project\Github\Holtel-MCU\Code\HT66FM5440\110V_hbridge\hbridge.c"
 351  0010              #pragma debug scope 1 1
 351  0010              ___paps0 equ [378]
 351  0010              ___pdps0 equ [382]
 351  0010              ___pb equ [38]
 351  0010              ___pbpu equ [37]
 351  0010              ___pbc equ [39]
 351  0010              ___pa equ [35]
 351  0010              ___papu equ [34]
 351  0010              ___pac equ [36]
 351  0010              ___pc equ [41]
 351  0010              ___pcc equ [42]
 351  0010              ___pcps0 equ [380]
 351  0010              ___pcps1 equ [381]
 351  0010              public _IO_Init
 351  0010              #pragma debug scope 11 1
 357  0010              #line 357 "D:\WORK\Project\Github\Holtel-MCU\Code\HT66FM5440\110V_hbridge\hbridge.c"
 357  0000              _IO_Init .section 'code'
 357  0000              _IO_Init proc
 360  0000              #line 360 "D:\WORK\Project\Github\Holtel-MCU\Code\HT66FM5440\110V_hbridge\hbridge.c"
 360  0000  B1FA 0001   	lset [378].3
 361  0002              #line 361 "D:\WORK\Project\Github\Holtel-MCU\Code\HT66FM5440\110V_hbridge\hbridge.c"
 361  0002  B57A 0001   	lclr [378].2
 364  0004              #line 364 "D:\WORK\Project\Github\Holtel-MCU\Code\HT66FM5440\110V_hbridge\hbridge.c"
 364  0004  0FC0        	mov a,192
 364  0005  86FE 0001   	landm a,[382]
 366  0007              #line 366 "D:\WORK\Project\Github\Holtel-MCU\Code\HT66FM5440\110V_hbridge\hbridge.c"
 366  0007  3026        	set [38].0
 367  0008              #line 367 "D:\WORK\Project\Github\Holtel-MCU\Code\HT66FM5440\110V_hbridge\hbridge.c"
 367  0008  30A6        	set [38].1
 368  0009              #line 368 "D:\WORK\Project\Github\Holtel-MCU\Code\HT66FM5440\110V_hbridge\hbridge.c"
 368  0009  3126        	set [38].2
"File: hbridge.c     Assembler  Version HGASM0202      Page 7

 369  000A              #line 369 "D:\WORK\Project\Github\Holtel-MCU\Code\HT66FM5440\110V_hbridge\hbridge.c"
 369  000A  3025        	set [37].0
 370  000B              #line 370 "D:\WORK\Project\Github\Holtel-MCU\Code\HT66FM5440\110V_hbridge\hbridge.c"
 370  000B  30A5        	set [37].1
 371  000C              #line 371 "D:\WORK\Project\Github\Holtel-MCU\Code\HT66FM5440\110V_hbridge\hbridge.c"
 371  000C  3125        	set [37].2
 372  000D              #line 372 "D:\WORK\Project\Github\Holtel-MCU\Code\HT66FM5440\110V_hbridge\hbridge.c"
 372  000D  3027        	set [39].0
 373  000E              #line 373 "D:\WORK\Project\Github\Holtel-MCU\Code\HT66FM5440\110V_hbridge\hbridge.c"
 373  000E  30A7        	set [39].1
 374  000F              #line 374 "D:\WORK\Project\Github\Holtel-MCU\Code\HT66FM5440\110V_hbridge\hbridge.c"
 374  000F  3127        	set [39].2
 376  0010              #line 376 "D:\WORK\Project\Github\Holtel-MCU\Code\HT66FM5440\110V_hbridge\hbridge.c"
 376  0010  31A3        	set [35].3
 377  0011              #line 377 "D:\WORK\Project\Github\Holtel-MCU\Code\HT66FM5440\110V_hbridge\hbridge.c"
 377  0011  3223        	set [35].4
 378  0012              #line 378 "D:\WORK\Project\Github\Holtel-MCU\Code\HT66FM5440\110V_hbridge\hbridge.c"
 378  0012  31A2        	set [34].3
 379  0013              #line 379 "D:\WORK\Project\Github\Holtel-MCU\Code\HT66FM5440\110V_hbridge\hbridge.c"
 379  0013  3222        	set [34].4
 380  0014              #line 380 "D:\WORK\Project\Github\Holtel-MCU\Code\HT66FM5440\110V_hbridge\hbridge.c"
 380  0014  31A4        	set [36].3
 381  0015              #line 381 "D:\WORK\Project\Github\Holtel-MCU\Code\HT66FM5440\110V_hbridge\hbridge.c"
 381  0015  3224        	set [36].4
 384  0016              #line 384 "D:\WORK\Project\Github\Holtel-MCU\Code\HT66FM5440\110V_hbridge\hbridge.c"
 384  0016  36A3        	clr [35].5
 385  0017              #line 385 "D:\WORK\Project\Github\Holtel-MCU\Code\HT66FM5440\110V_hbridge\hbridge.c"
 385  0017  36A4        	clr [36].5
 388  0018              #line 388 "D:\WORK\Project\Github\Holtel-MCU\Code\HT66FM5440\110V_hbridge\hbridge.c"
 388  0018  1F29        	clr [41]
 389  0019              #line 389 "D:\WORK\Project\Github\Holtel-MCU\Code\HT66FM5440\110V_hbridge\hbridge.c"
 389  0019  1F2A        	clr [42]
 390  001A              #line 390 "D:\WORK\Project\Github\Holtel-MCU\Code\HT66FM5440\110V_hbridge\hbridge.c"
 390  001A  0FAA        	mov a,170
 390  001B  80FC 0001   	lmov [380],a
 391  001D              #line 391 "D:\WORK\Project\Github\Holtel-MCU\Code\HT66FM5440\110V_hbridge\hbridge.c"
 391  001D  0F0A        	mov a,10
 391  001E  80FD 0001   	lmov [381],a
 391  0020  0003        	ret
 391  0021              _IO_Init endp
 391  0021              #line 391 "D:\WORK\Project\Github\Holtel-MCU\Code\HT66FM5440\110V_hbridge\hbridge.c"
 391  0021              #pragma debug scope 1 1
 391  0021              ___ptm1c0 equ [327]
 391  0021              ___ptm1c1 equ [328]
 391  0021              ___ptm1al equ [331]
 391  0021              ___ptm1ah equ [332]
 391  0021              ___intc2 equ [23]
 391  0021              ___mfi5 equ [30]
 391  0021              public _TM1_Init
 391  0021              #pragma debug scope 12 1
 395  0021              #line 395 "D:\WORK\Project\Github\Holtel-MCU\Code\HT66FM5440\110V_hbridge\hbridge.c"
 395  0000              _TM1_Init .section 'code'
 395  0000              _TM1_Init proc
 396  0000              #line 396 "D:\WORK\Project\Github\Holtel-MCU\Code\HT66FM5440\110V_hbridge\hbridge.c"
 396  0000  0F20        	mov a,32
 396  0001  80C7 0001   	lmov [327],a
 397  0003              #line 397 "D:\WORK\Project\Github\Holtel-MCU\Code\HT66FM5440\110V_hbridge\hbridge.c"
 397  0003  0FC1        	mov a,193
 397  0004  80C8 0001   	lmov [328],a
 399  0006              #line 399 "D:\WORK\Project\Github\Holtel-MCU\Code\HT66FM5440\110V_hbridge\hbridge.c"
"File: hbridge.c     Assembler  Version HGASM0202      Page 8

 399  0006  0F0A        	mov a,10
 399  0007  80CB 0001   	lmov [331],a
 400  0009              #line 400 "D:\WORK\Project\Github\Holtel-MCU\Code\HT66FM5440\110V_hbridge\hbridge.c"
 400  0009  9F4C 0001   	lclr [332]
 402  000B              #line 402 "D:\WORK\Project\Github\Holtel-MCU\Code\HT66FM5440\110V_hbridge\hbridge.c"
 402  000B  3797        	clr [23].7
 403  000C              #line 403 "D:\WORK\Project\Github\Holtel-MCU\Code\HT66FM5440\110V_hbridge\hbridge.c"
 403  000C  369E        	clr [30].5
 404  000D              #line 404 "D:\WORK\Project\Github\Holtel-MCU\Code\HT66FM5440\110V_hbridge\hbridge.c"
 404  000D  309E        	set [30].1
 405  000E              #line 405 "D:\WORK\Project\Github\Holtel-MCU\Code\HT66FM5440\110V_hbridge\hbridge.c"
 405  000E  3197        	set [23].3
 407  000F              #line 407 "D:\WORK\Project\Github\Holtel-MCU\Code\HT66FM5440\110V_hbridge\hbridge.c"
 407  000F  B5C7 0001   	lclr [327].3
 408  0011              #line 408 "D:\WORK\Project\Github\Holtel-MCU\Code\HT66FM5440\110V_hbridge\hbridge.c"
 408  0011  B1C7 0001   	lset [327].3
 408  0013  0003        	ret
 408  0014              _TM1_Init endp
 408  0014              #line 408 "D:\WORK\Project\Github\Holtel-MCU\Code\HT66FM5440\110V_hbridge\hbridge.c"
 408  0014              #pragma debug scope 1 1
 408  0014              public _ISR_TM1
 408  0014              #pragma debug scope 13 1
 412  0014              #line 412 "D:\WORK\Project\Github\Holtel-MCU\Code\HT66FM5440\110V_hbridge\hbridge.c"
 412  0000              @ISR_TM1_code .section at 44 'code'
 412  0000              ifdef INTERRUPT_DELAY
 412  0000  0000        	nop
 412  0001              endif
 412  0001  0080     E  	mov r1,a
 412  0002  070A        	mov a,status
 412  0003              ifndef INTERRUPT_DELAY
 412  0003              	mov r2,a
 412  0003              endif
 412  0003  2800     R  	jmp _ISR_TM1
 412  0004              #pragma debug scope 1 1
 412  0004              @dummy44 endp
 412  0004              #pragma debug scope 14 1
 412  0000              _ISR_TM1 .section 'code'
 412  0000              _ISR_TM1 proc
 412  0000              ifdef INTERRUPT_DELAY
 412  0000  0080     E  	mov r2,a
 412  0001              endif
 413  0001              #line 413 "D:\WORK\Project\Github\Holtel-MCU\Code\HT66FM5440\110V_hbridge\hbridge.c"
 413  0001              ;# 413 "D:\WORK\Project\Github\Holtel-MCU\Code\HT66FM5440\110V_hbridge\hbridge.c" 1
 413  0001  0001        	clr wdt
 414  0002              #line 414 "D:\WORK\Project\Github\Holtel-MCU\Code\HT66FM5440\110V_hbridge\hbridge.c"
 414  0002  0FE3        	mov a,227
 414  0003  0200     R  	sub a,_cnt_hall_period[0]
 414  0004  0F03        	mov a,3
 414  0005  1200     R  	sbc a,_cnt_hall_period[1]
 414  0006  3C0A        	sz c
 414  0007  2800     R  	jmp _L16
 415  0008              #line 415 "D:\WORK\Project\Github\Holtel-MCU\Code\HT66FM5440\110V_hbridge\hbridge.c"
 415  0008  1F00     R  	clr _cnt_hall_period[0]
 415  0009  1F00     R  	clr _cnt_hall_period[1]
 415  000A  2800     R  	jmp _L17
 415  000B              _L16:
 417  000B              #line 417 "D:\WORK\Project\Github\Holtel-MCU\Code\HT66FM5440\110V_hbridge\hbridge.c"
 417  000B  1480     R  	inc _cnt_hall_period[0]
 417  000C  3D0A        	sz z
 417  000D  1480     R  	inc _cnt_hall_period[1]
"File: hbridge.c     Assembler  Version HGASM0202      Page 9

 417  000E              _L17:
 434  000E              #line 434 "D:\WORK\Project\Github\Holtel-MCU\Code\HT66FM5440\110V_hbridge\hbridge.c"
 434  000E  3797        	clr [23].7
 435  000F              #line 435 "D:\WORK\Project\Github\Holtel-MCU\Code\HT66FM5440\110V_hbridge\hbridge.c"
 435  000F  369E        	clr [30].5
 435  0010  0700     E  	mov a,r2
 435  0011  008A        	mov status,a
 435  0012  0700     E  	mov a,r1
 435  0013  0004        	reti
 435  0014              _ISR_TM1 endp
 435  0014              
 435  0014              #line 435 "D:\WORK\Project\Github\Holtel-MCU\Code\HT66FM5440\110V_hbridge\hbridge.c"
 435  0014              #pragma debug scope 1 1
 435  0014              ___ucr1 equ [110]
 435  0014              ___ucr2 equ [111]
 435  0014              ___brg equ [112]
 435  0014              ___mfi7 equ [32]
 435  0014              public _Uart_Init
 435  0014              #pragma debug scope 15 1
 439  0014              #line 439 "D:\WORK\Project\Github\Holtel-MCU\Code\HT66FM5440\110V_hbridge\hbridge.c"
 439  0000              _Uart_Init .section 'code'
 439  0000              _Uart_Init proc
 453  0000              #line 453 "D:\WORK\Project\Github\Holtel-MCU\Code\HT66FM5440\110V_hbridge\hbridge.c"
 453  0000  33EE        	set [110].7
 454  0001              #line 454 "D:\WORK\Project\Github\Holtel-MCU\Code\HT66FM5440\110V_hbridge\hbridge.c"
 454  0001  366F        	clr [111].4
 455  0002              #line 455 "D:\WORK\Project\Github\Holtel-MCU\Code\HT66FM5440\110V_hbridge\hbridge.c"
 455  0002  35EF        	clr [111].3
 456  0003              #line 456 "D:\WORK\Project\Github\Holtel-MCU\Code\HT66FM5440\110V_hbridge\hbridge.c"
 456  0003  316F        	set [111].2
 457  0004              #line 457 "D:\WORK\Project\Github\Holtel-MCU\Code\HT66FM5440\110V_hbridge\hbridge.c"
 457  0004  34EF        	clr [111].1
 458  0005              #line 458 "D:\WORK\Project\Github\Holtel-MCU\Code\HT66FM5440\110V_hbridge\hbridge.c"
 458  0005  346F        	clr [111].0
 460  0006              #line 460 "D:\WORK\Project\Github\Holtel-MCU\Code\HT66FM5440\110V_hbridge\hbridge.c"
 460  0006  376E        	clr [110].6
 461  0007              #line 461 "D:\WORK\Project\Github\Holtel-MCU\Code\HT66FM5440\110V_hbridge\hbridge.c"
 461  0007  36EE        	clr [110].5
 462  0008              #line 462 "D:\WORK\Project\Github\Holtel-MCU\Code\HT66FM5440\110V_hbridge\hbridge.c"
 462  0008  35EE        	clr [110].3
 463  0009              #line 463 "D:\WORK\Project\Github\Holtel-MCU\Code\HT66FM5440\110V_hbridge\hbridge.c"
 463  0009  356E        	clr [110].2
 465  000A              #line 465 "D:\WORK\Project\Github\Holtel-MCU\Code\HT66FM5440\110V_hbridge\hbridge.c"
 465  000A  32EF        	set [111].5
 466  000B              #line 466 "D:\WORK\Project\Github\Holtel-MCU\Code\HT66FM5440\110V_hbridge\hbridge.c"
 466  000B  0F08        	mov a,8
 466  000C  00F0        	mov [112],a
 468  000D              #line 468 "D:\WORK\Project\Github\Holtel-MCU\Code\HT66FM5440\110V_hbridge\hbridge.c"
 468  000D  33EF        	set [111].7
 469  000E              #line 469 "D:\WORK\Project\Github\Holtel-MCU\Code\HT66FM5440\110V_hbridge\hbridge.c"
 469  000E  336F        	set [111].6
 471  000F              #line 471 "D:\WORK\Project\Github\Holtel-MCU\Code\HT66FM5440\110V_hbridge\hbridge.c"
 471  000F  36A0        	clr [32].5
 472  0010              #line 472 "D:\WORK\Project\Github\Holtel-MCU\Code\HT66FM5440\110V_hbridge\hbridge.c"
 472  0010  30A0        	set [32].1
 472  0011  0003        	ret
 472  0012              _Uart_Init endp
 472  0012              #line 472 "D:\WORK\Project\Github\Holtel-MCU\Code\HT66FM5440\110V_hbridge\hbridge.c"
 472  0012              #pragma debug scope 1 1
 472  0012              ___tbc equ [275]
"File: hbridge.c     Assembler  Version HGASM0202      Page 10

 472  0012              ___intc3 equ [24]
 472  0012              public _TimeBase_Init
 472  0012              #pragma debug scope 16 1
 476  0012              #line 476 "D:\WORK\Project\Github\Holtel-MCU\Code\HT66FM5440\110V_hbridge\hbridge.c"
 476  0000              _TimeBase_Init .section 'code'
 476  0000              _TimeBase_Init proc
 477  0000              #line 477 "D:\WORK\Project\Github\Holtel-MCU\Code\HT66FM5440\110V_hbridge\hbridge.c"
 477  0000  0FC0        	mov a,192
 477  0001  8093 0001   	lmov [275],a
 478  0003              #line 478 "D:\WORK\Project\Github\Holtel-MCU\Code\HT66FM5440\110V_hbridge\hbridge.c"
 478  0003  31A0        	set [32].3
 479  0004              #line 479 "D:\WORK\Project\Github\Holtel-MCU\Code\HT66FM5440\110V_hbridge\hbridge.c"
 479  0004  37A0        	clr [32].7
 480  0005              #line 480 "D:\WORK\Project\Github\Holtel-MCU\Code\HT66FM5440\110V_hbridge\hbridge.c"
 480  0005  3198        	set [24].3
 481  0006              #line 481 "D:\WORK\Project\Github\Holtel-MCU\Code\HT66FM5440\110V_hbridge\hbridge.c"
 481  0006  3798        	clr [24].7
 481  0007  0003        	ret
 481  0008              _TimeBase_Init endp
 481  0008              #line 481 "D:\WORK\Project\Github\Holtel-MCU\Code\HT66FM5440\110V_hbridge\hbridge.c"
 481  0008              #pragma debug scope 1 1
 481  0008              ___intc0 equ [21]
 481  0008              public _main
 481  0008              #pragma debug scope 17 1
 106  0008              #line 106 "D:\WORK\Project\Github\Holtel-MCU\Code\HT66FM5440\110V_hbridge\hbridge.c"
 106  0008              IFDEF WITH_DEFAULT_STARTUP
 106  0008              extern _main_initial0:near
 106  0008              extern _main_startup:near
 106  0008              ENDIF
 106  0008              
 106  0008              ROMBANK 0 @start
 106  0000              @start .section com_l 'code'
 106  0000              _main_startup1:
 106  0000              @start .section com_e 'code'
 106  0000  2800     R  	jmp _main
 106  0001              
 106  0000              _main .section 'code'
 106  0000              _main proc
 108  0000              #line 108 "D:\WORK\Project\Github\Holtel-MCU\Code\HT66FM5440\110V_hbridge\hbridge.c"
 108  0000  2000     R  	call _IO_Init
 111  0001              #line 111 "D:\WORK\Project\Github\Holtel-MCU\Code\HT66FM5440\110V_hbridge\hbridge.c"
 111  0001  2000     R  	call _TimeBase_Init
 114  0002              #line 114 "D:\WORK\Project\Github\Holtel-MCU\Code\HT66FM5440\110V_hbridge\hbridge.c"
 114  0002  2000     R  	call _Motor_Init
 115  0003              #line 115 "D:\WORK\Project\Github\Holtel-MCU\Code\HT66FM5440\110V_hbridge\hbridge.c"
 115  0003  1F00     R  	clr _curr_state[0]
 115  0004  1F00     R  	clr _curr_state[1]
 116  0005              #line 116 "D:\WORK\Project\Github\Holtel-MCU\Code\HT66FM5440\110V_hbridge\hbridge.c"
 116  0005  2000     R  	call _Set_Motor_Brake
 116  0006              #pragma debug scope 18 17
 116  0006              ;begin block, line: 116.-1
 117  0006              #line 117 "D:\WORK\Project\Github\Holtel-MCU\Code\HT66FM5440\110V_hbridge\hbridge.c"
 117  0006  1F00     R  	clr _duty_now[0]
 117  0007  1F00     R  	clr _duty_now[1]
 117  0008  1F59        	clr [89]
 117  0009  1F58        	clr [88]
 117  000A  B155 0001   	lset [341].2
 117  000C              #pragma debug scope 17 1
 119  000C              #line 119 "D:\WORK\Project\Github\Holtel-MCU\Code\HT66FM5440\110V_hbridge\hbridge.c"
 119  000C  3400     R  	clr _bOCP
"File: hbridge.c     Assembler  Version HGASM0202      Page 11

 120  000D              #line 120 "D:\WORK\Project\Github\Holtel-MCU\Code\HT66FM5440\110V_hbridge\hbridge.c"
 120  000D  3400     R  	clr _bOVP
 122  000E              #line 122 "D:\WORK\Project\Github\Holtel-MCU\Code\HT66FM5440\110V_hbridge\hbridge.c"
 122  000E  3015        	set [21].0
 123  000F              #line 123 "D:\WORK\Project\Github\Holtel-MCU\Code\HT66FM5440\110V_hbridge\hbridge.c"
 123  000F  0FD0        	mov a,-48
 123  0010  0080     R  	mov _cnt_1ms[0],a
 123  0011  0F07        	mov a,7
 123  0012  0080     R  	mov _cnt_1ms[1],a
 123  0013              _L21:
 124  0013              #line 124 "D:\WORK\Project\Github\Holtel-MCU\Code\HT66FM5440\110V_hbridge\hbridge.c"
 124  0013  0700     R  	mov a,_cnt_1ms[0]
 124  0014  0500     R  	or a,_cnt_1ms[1]
 124  0015  3D0A        	sz z
 124  0016  2800     R  	jmp _L89
 126  0017              #line 126 "D:\WORK\Project\Github\Holtel-MCU\Code\HT66FM5440\110V_hbridge\hbridge.c"
 126  0017              ;# 126 "D:\WORK\Project\Github\Holtel-MCU\Code\HT66FM5440\110V_hbridge\hbridge.c" 1
 126  0017  0001        	clr wdt
 126  0018  2800     R  	jmp _L21
 126  0019              _L89:
 129  0019              #line 129 "D:\WORK\Project\Github\Holtel-MCU\Code\HT66FM5440\110V_hbridge\hbridge.c"
 129  0019  3E23        	sz [35].4
 129  001A  2800     R  	jmp _L23
 129  001B  3DA3        	sz [35].3
 129  001C  2800     R  	jmp _L23
 131  001D              #line 131 "D:\WORK\Project\Github\Holtel-MCU\Code\HT66FM5440\110V_hbridge\hbridge.c"
 131  001D  0F31        	mov a,49
 131  001E  0080     R  	mov _pwm_duty_max[0],a
 131  001F  1F00     R  	clr _pwm_duty_max[1]
 131  0020  2800     R  	jmp _L24
 131  0021              _L23:
 133  0021              #line 133 "D:\WORK\Project\Github\Holtel-MCU\Code\HT66FM5440\110V_hbridge\hbridge.c"
 133  0021  3E23        	sz [35].4
 133  0022  2800     R  	jmp _L25
 133  0023  39A3        	snz [35].3
 133  0024  2800     R  	jmp _L25
 135  0025              #line 135 "D:\WORK\Project\Github\Holtel-MCU\Code\HT66FM5440\110V_hbridge\hbridge.c"
 135  0025  0F62        	mov a,98
 135  0026  0080     R  	mov _pwm_duty_max[0],a
 135  0027  1F00     R  	clr _pwm_duty_max[1]
 135  0028  2800     R  	jmp _L24
 135  0029              _L25:
 137  0029              #line 137 "D:\WORK\Project\Github\Holtel-MCU\Code\HT66FM5440\110V_hbridge\hbridge.c"
 137  0029  3A23        	snz [35].4
 137  002A  2800     R  	jmp _L26
 137  002B  3DA3        	sz [35].3
 137  002C  2800     R  	jmp _L26
 139  002D              #line 139 "D:\WORK\Project\Github\Holtel-MCU\Code\HT66FM5440\110V_hbridge\hbridge.c"
 139  002D  0F93        	mov a,-109
 139  002E  0080     R  	mov _pwm_duty_max[0],a
 139  002F  1F00     R  	clr _pwm_duty_max[1]
 139  0030  2800     R  	jmp _L24
 139  0031              _L26:
 143  0031              #line 143 "D:\WORK\Project\Github\Holtel-MCU\Code\HT66FM5440\110V_hbridge\hbridge.c"
 143  0031  0FC4        	mov a,-60
 143  0032  0080     R  	mov _pwm_duty_max[0],a
 143  0033  1F00     R  	clr _pwm_duty_max[1]
 143  0034              _L24:
 146  0034              #line 146 "D:\WORK\Project\Github\Holtel-MCU\Code\HT66FM5440\110V_hbridge\hbridge.c"
 146  0034  1B15        	rrca intc
"File: hbridge.c     Assembler  Version HGASM0202      Page 12

 146  0035  3415        	clr intc.0
 146  0036  0FD0        	mov a,208
 146  0037  00F6        	mov mduwr0,a
 146  0038  0F07        	mov a,7
 146  0039  00F7        	mov mduwr1,a
 146  003A  0700     R  	mov a,_pwm_duty_max[0]
 146  003B  00FB        	mov mduwr4,a
 146  003C  0700     R  	mov a,_pwm_duty_max[1]
 146  003D  00FC        	mov mduwr5,a
 146  003E  0F06        	mov a,6
 146  003F              _LI1:
 146  003F  1785        	sdz acc
 146  0040  2800     R  	jmp _LI1
 146  0041  0776        	mov a,mduwr0
 146  0042  0080     E  	mov rb,a
 146  0043  0777        	mov a,mduwr1
 146  0044  0080     E  	mov rc,a
 146  0045  3C0A        	sz c
 146  0046  3015        	set intc.0
 146  0047  0700     E  	mov a,rb
 146  0048  0080     R  	mov _pwm_stepup_dt[0],a
 147  0049              #line 147 "D:\WORK\Project\Github\Holtel-MCU\Code\HT66FM5440\110V_hbridge\hbridge.c"
 147  0049  1B15        	rrca intc
 147  004A  3415        	clr intc.0
 147  004B  0FE8        	mov a,232
 147  004C  00F6        	mov mduwr0,a
 147  004D  0F03        	mov a,3
 147  004E  00F7        	mov mduwr1,a
 147  004F  0700     R  	mov a,_pwm_duty_max[0]
 147  0050  00FB        	mov mduwr4,a
 147  0051  0700     R  	mov a,_pwm_duty_max[1]
 147  0052  00FC        	mov mduwr5,a
 147  0053  0F06        	mov a,6
 147  0054              _LI2:
 147  0054  1785        	sdz acc
 147  0055  2800     R  	jmp _LI2
 147  0056  0776        	mov a,mduwr0
 147  0057  0080     E  	mov rb,a
 147  0058  0777        	mov a,mduwr1
 147  0059  0080     E  	mov rc,a
 147  005A  3C0A        	sz c
 147  005B  3015        	set intc.0
 147  005C  0700     E  	mov a,rb
 147  005D  0080     R  	mov _pwm_stepdown_dt[0],a
 147  005E              _L52:
 152  005E              #line 152 "D:\WORK\Project\Github\Holtel-MCU\Code\HT66FM5440\110V_hbridge\hbridge.c"
 152  005E              ;# 152 "D:\WORK\Project\Github\Holtel-MCU\Code\HT66FM5440\110V_hbridge\hbridge.c" 1
 152  005E  0001        	clr wdt
 153  005F              #line 153 "D:\WORK\Project\Github\Holtel-MCU\Code\HT66FM5440\110V_hbridge\hbridge.c"
 153  005F  0700     R  	mov a,_curr_state[0]
 153  0060  0500     R  	or a,_curr_state[1]
 153  0061  3D0A        	sz z
 153  0062  2800     R  	jmp _L28
 153  0063  0700     R  	mov a,_curr_state[0]
 153  0064  0C01        	xor a,1
 153  0065  0500     R  	or a,_curr_state[1]
 153  0066  3D0A        	sz z
 153  0067  2800     R  	jmp _L29
 153  0068  0700     R  	mov a,_curr_state[0]
 153  0069  0C02        	xor a,2
"File: hbridge.c     Assembler  Version HGASM0202      Page 13

 153  006A  0500     R  	or a,_curr_state[1]
 153  006B  3D0A        	sz z
 153  006C  2800     R  	jmp _L30
 153  006D  0700     R  	mov a,_curr_state[0]
 153  006E  0C03        	xor a,3
 153  006F  0500     R  	or a,_curr_state[1]
 153  0070  3D0A        	sz z
 153  0071  2800     R  	jmp _L31
 153  0072  0700     R  	mov a,_curr_state[0]
 153  0073  0C04        	xor a,4
 153  0074  0500     R  	or a,_curr_state[1]
 153  0075  390A        	snz z
 153  0076  2800     R  	jmp _L80
 153  0077  2800     R  	jmp _L90
 153  0078              _L30:
 155  0078              #line 155 "D:\WORK\Project\Github\Holtel-MCU\Code\HT66FM5440\110V_hbridge\hbridge.c"
 155  0078  2000     R  	call _Set_Motor_Rev
 155  0079              #pragma debug scope 19 17
 155  0079              ;begin block, line: 155.-1
 156  0079              #line 156 "D:\WORK\Project\Github\Holtel-MCU\Code\HT66FM5440\110V_hbridge\hbridge.c"
 156  0079  1F00     R  	clr _duty_now[0]
 156  007A  1F00     R  	clr _duty_now[1]
 156  007B  1F59        	clr [89]
 156  007C  1F58        	clr [88]
 156  007D  B155 0001   	lset [341].2
 156  007F              #pragma debug scope 17 1
 157  007F              #line 157 "D:\WORK\Project\Github\Holtel-MCU\Code\HT66FM5440\110V_hbridge\hbridge.c"
 157  007F  3400     R  	clr _bDIR
 157  0080  2800     R  	jmp _L87
 157  0081              _L29:
 166  0081              #line 166 "D:\WORK\Project\Github\Holtel-MCU\Code\HT66FM5440\110V_hbridge\hbridge.c"
 166  0081  2000     R  	call _Set_Motor_Fwd
 166  0082              #pragma debug scope 20 17
 166  0082              ;begin block, line: 166.-1
 167  0082              #line 167 "D:\WORK\Project\Github\Holtel-MCU\Code\HT66FM5440\110V_hbridge\hbridge.c"
 167  0082  1F00     R  	clr _duty_now[0]
 167  0083  1F00     R  	clr _duty_now[1]
 167  0084  1F59        	clr [89]
 167  0085  1F58        	clr [88]
 167  0086  B155 0001   	lset [341].2
 167  0088              #pragma debug scope 17 1
 168  0088              #line 168 "D:\WORK\Project\Github\Holtel-MCU\Code\HT66FM5440\110V_hbridge\hbridge.c"
 168  0088  3000     R  	set _bDIR
 168  0089              _L87:
 169  0089              #line 169 "D:\WORK\Project\Github\Holtel-MCU\Code\HT66FM5440\110V_hbridge\hbridge.c"
 169  0089  0700     R  	mov a,_pwm_stepup_dt[0]
 169  008A  0080     R  	mov _cnt_1ms[0],a
 169  008B  1F00     R  	clr _cnt_1ms[1]
 170  008C              #line 170 "D:\WORK\Project\Github\Holtel-MCU\Code\HT66FM5440\110V_hbridge\hbridge.c"
 170  008C  0700     R  	mov a,_key[0]
 170  008D  0C02        	xor a,2
 170  008E  0500     R  	or a,_key[1]
 170  008F  3D0A        	sz z
 170  0090  2800     R  	jmp _L81
 170  0091  3C00     R  	sz _bOVP
 170  0092  2800     R  	jmp _L81
 170  0093  3C00     R  	sz _bOCP
 170  0094  2800     R  	jmp _L81
 173  0095              #line 173 "D:\WORK\Project\Github\Holtel-MCU\Code\HT66FM5440\110V_hbridge\hbridge.c"
 173  0095  0F03        	mov a,3
"File: hbridge.c     Assembler  Version HGASM0202      Page 14

 173  0096  0080     R  	mov _curr_state[0],a
 173  0097  1F00     R  	clr _curr_state[1]
 173  0098  2800     R  	jmp _L35
 173  0099              _L31:
 177  0099              #line 177 "D:\WORK\Project\Github\Holtel-MCU\Code\HT66FM5440\110V_hbridge\hbridge.c"
 177  0099  0700     R  	mov a,_cnt_1ms[0]
 177  009A  0500     R  	or a,_cnt_1ms[1]
 177  009B  390A        	snz z
 177  009C  2800     R  	jmp _L38
 179  009D              #line 179 "D:\WORK\Project\Github\Holtel-MCU\Code\HT66FM5440\110V_hbridge\hbridge.c"
 179  009D  0700     R  	mov a,_pwm_stepup_dt[0]
 179  009E  0080     R  	mov _cnt_1ms[0],a
 179  009F  1F00     R  	clr _cnt_1ms[1]
 180  00A0              #line 180 "D:\WORK\Project\Github\Holtel-MCU\Code\HT66FM5440\110V_hbridge\hbridge.c"
 180  00A0  0FFF        	mov a,255
 180  00A1  0300     R  	add a,_pwm_duty_max[0]
 180  00A2  0080     E  	mov rb,a
 180  00A3  0FFF        	mov a,255
 180  00A4  1300     R  	adc a,_pwm_duty_max[1]
 180  00A5  0080     E  	mov rc,a
 180  00A6  0700     E  	mov a,rb
 180  00A7  0200     R  	sub a,_duty_now[0]
 180  00A8  0700     E  	mov a,rc
 180  00A9  1200     R  	sbc a,_duty_now[1]
 180  00AA  380A        	snz c
 180  00AB  2800     R  	jmp _L39
 182  00AC              #line 182 "D:\WORK\Project\Github\Holtel-MCU\Code\HT66FM5440\110V_hbridge\hbridge.c"
 182  00AC  1480     R  	inc _duty_now[0]
 182  00AD  3D0A        	sz z
 182  00AE  1480     R  	inc _duty_now[1]
 182  00AF  2800     R  	jmp _L40
 182  00B0              _L39:
 186  00B0              #line 186 "D:\WORK\Project\Github\Holtel-MCU\Code\HT66FM5440\110V_hbridge\hbridge.c"
 186  00B0  0700     R  	mov a,_pwm_duty_max[0]
 186  00B1  0080     R  	mov _duty_now[0],a
 186  00B2  0700     R  	mov a,_pwm_duty_max[1]
 186  00B3  0080     R  	mov _duty_now[1],a
 186  00B4              _L40:
 186  00B4              #pragma debug scope 21 17
 186  00B4              ;begin block, line: 186.-1
 188  00B4              #line 188 "D:\WORK\Project\Github\Holtel-MCU\Code\HT66FM5440\110V_hbridge\hbridge.c"
 188  00B4  0700     R  	mov a,_duty_now[0]
 188  00B5  0080     E  	mov rb,a
 188  00B6  0700     R  	mov a,_duty_now[1]
 188  00B7  0080     E  	mov rc,a
 188  00B8  0700     E  	mov a,rc
 188  00B9  00D9        	mov [89],a
 188  00BA  0700     R  	mov a,_duty_now[0]
 188  00BB  0080     E  	mov rb,a
 188  00BC  0700     R  	mov a,_duty_now[1]
 188  00BD  0080     E  	mov rc,a
 188  00BE  0700     E  	mov a,rb
 188  00BF  00D8        	mov [88],a
 188  00C0  B155 0001   	lset [341].2
 188  00C2              _L38:
 188  00C2              #pragma debug scope 17 1
 190  00C2              #line 190 "D:\WORK\Project\Github\Holtel-MCU\Code\HT66FM5440\110V_hbridge\hbridge.c"
 190  00C2  0700     R  	mov a,_key[0]
 190  00C3  0080     E  	mov rb,a
 190  00C4  0700     R  	mov a,_key[1]
"File: hbridge.c     Assembler  Version HGASM0202      Page 15

 190  00C5  0080     E  	mov rc,a
 190  00C6  0700     E  	mov a,rb
 190  00C7  0C02        	xor a,2
 190  00C8  0500     E  	or a,rc
 190  00C9  3D0A        	sz z
 190  00CA  2800     R  	jmp _L41
 190  00CB  0700     E  	mov a,rb
 190  00CC  0500     E  	or a,rc
 190  00CD  390A        	snz z
 190  00CE  2800     R  	jmp _L42
 190  00CF  3C00     R  	sz _bDIR
 190  00D0  2800     R  	jmp _L88
 190  00D1  2800     R  	jmp _L41
 190  00D2              _L42:
 190  00D2  0700     E  	mov a,rb
 190  00D3  0C01        	xor a,1
 190  00D4  0500     E  	or a,rc
 190  00D5  390A        	snz z
 190  00D6  2800     R  	jmp _L88
 190  00D7  3800     R  	snz _bDIR
 190  00D8  2800     R  	jmp _L88
 190  00D9              _L41:
 192  00D9              #line 192 "D:\WORK\Project\Github\Holtel-MCU\Code\HT66FM5440\110V_hbridge\hbridge.c"
 192  00D9  0700     R  	mov a,_pwm_stepdown_dt[0]
 192  00DA  0080     R  	mov _cnt_1ms[0],a
 192  00DB  1F00     R  	clr _cnt_1ms[1]
 193  00DC              #line 193 "D:\WORK\Project\Github\Holtel-MCU\Code\HT66FM5440\110V_hbridge\hbridge.c"
 193  00DC  0F04        	mov a,4
 193  00DD  0080     R  	mov _curr_state[0],a
 193  00DE  1F00     R  	clr _curr_state[1]
 193  00DF  2800     R  	jmp _L88
 193  00E0              _L90:
 200  00E0              #line 200 "D:\WORK\Project\Github\Holtel-MCU\Code\HT66FM5440\110V_hbridge\hbridge.c"
 200  00E0  0700     R  	mov a,_cnt_1ms[0]
 200  00E1  0500     R  	or a,_cnt_1ms[1]
 200  00E2  390A        	snz z
 200  00E3  2800     R  	jmp _L45
 202  00E4              #line 202 "D:\WORK\Project\Github\Holtel-MCU\Code\HT66FM5440\110V_hbridge\hbridge.c"
 202  00E4  0700     R  	mov a,_pwm_stepdown_dt[0]
 202  00E5  0080     R  	mov _cnt_1ms[0],a
 202  00E6  1F00     R  	clr _cnt_1ms[1]
 203  00E7              #line 203 "D:\WORK\Project\Github\Holtel-MCU\Code\HT66FM5440\110V_hbridge\hbridge.c"
 203  00E7  0700     R  	mov a,_duty_now[0]
 203  00E8  0500     R  	or a,_duty_now[1]
 203  00E9  3D0A        	sz z
 203  00EA  2800     R  	jmp _L46
 205  00EB              #line 205 "D:\WORK\Project\Github\Holtel-MCU\Code\HT66FM5440\110V_hbridge\hbridge.c"
 205  00EB  0FFF        	mov a,255
 205  00EC  0380     R  	addm a,_duty_now[0]
 205  00ED  0FFF        	mov a,255
 205  00EE  1380     R  	adcm a,_duty_now[1]
 205  00EF  2800     R  	jmp _L47
 205  00F0              _L46:
 208  00F0              #line 208 "D:\WORK\Project\Github\Holtel-MCU\Code\HT66FM5440\110V_hbridge\hbridge.c"
 208  00F0  1F00     R  	clr _duty_now[0]
 208  00F1  1F00     R  	clr _duty_now[1]
 208  00F2              _L47:
 208  00F2              #pragma debug scope 22 17
 208  00F2              ;begin block, line: 208.-1
 209  00F2              #line 209 "D:\WORK\Project\Github\Holtel-MCU\Code\HT66FM5440\110V_hbridge\hbridge.c"
"File: hbridge.c     Assembler  Version HGASM0202      Page 16

 209  00F2  0700     R  	mov a,_duty_now[0]
 209  00F3  0080     E  	mov rb,a
 209  00F4  0700     R  	mov a,_duty_now[1]
 209  00F5  0080     E  	mov rc,a
 209  00F6  0700     E  	mov a,rc
 209  00F7  00D9        	mov [89],a
 209  00F8  0700     R  	mov a,_duty_now[0]
 209  00F9  0080     E  	mov rb,a
 209  00FA  0700     R  	mov a,_duty_now[1]
 209  00FB  0080     E  	mov rc,a
 209  00FC  0700     E  	mov a,rb
 209  00FD  00D8        	mov [88],a
 209  00FE  B155 0001   	lset [341].2
 209  0100              _L45:
 209  0100              #pragma debug scope 17 1
 211  0100              #line 211 "D:\WORK\Project\Github\Holtel-MCU\Code\HT66FM5440\110V_hbridge\hbridge.c"
 211  0100  0700     R  	mov a,_duty_now[0]
 211  0101  0500     R  	or a,_duty_now[1]
 211  0102  3D0A        	sz z
 211  0103  2800     R  	jmp _L81
 211  0104              _L88:
 211  0104  3C00     R  	sz _bOCP
 211  0105  2800     R  	jmp _L81
 211  0106  3800     R  	snz _bOVP
 211  0107  2800     R  	jmp _L35
 211  0108  2800     R  	jmp _L81
 211  0109              _L28:
 216  0109              #line 216 "D:\WORK\Project\Github\Holtel-MCU\Code\HT66FM5440\110V_hbridge\hbridge.c"
 216  0109  2000     R  	call _Set_Motor_Brake
 217  010A              #line 217 "D:\WORK\Project\Github\Holtel-MCU\Code\HT66FM5440\110V_hbridge\hbridge.c"
 217  010A  3400     R  	clr _bOCP
 218  010B              #line 218 "D:\WORK\Project\Github\Holtel-MCU\Code\HT66FM5440\110V_hbridge\hbridge.c"
 218  010B  3400     R  	clr _bOVP
 219  010C              #line 219 "D:\WORK\Project\Github\Holtel-MCU\Code\HT66FM5440\110V_hbridge\hbridge.c"
 219  010C  0700     R  	mov a,_key[0]
 219  010D  0080     E  	mov rb,a
 219  010E  0700     R  	mov a,_key[1]
 219  010F  0080     E  	mov rc,a
 219  0110  0700     E  	mov a,rb
 219  0111  0C01        	xor a,1
 219  0112  0500     E  	or a,rc
 219  0113  390A        	snz z
 219  0114  2800     R  	jmp _L50
 220  0115              #line 220 "D:\WORK\Project\Github\Holtel-MCU\Code\HT66FM5440\110V_hbridge\hbridge.c"
 220  0115  0F02        	mov a,2
 220  0116  0080     R  	mov _curr_state[0],a
 220  0117  1F00     R  	clr _curr_state[1]
 220  0118  2800     R  	jmp _L35
 220  0119              _L50:
 221  0119              #line 221 "D:\WORK\Project\Github\Holtel-MCU\Code\HT66FM5440\110V_hbridge\hbridge.c"
 221  0119  0700     E  	mov a,rb
 221  011A  0500     E  	or a,rc
 221  011B  390A        	snz z
 221  011C  2800     R  	jmp _L81
 222  011D              #line 222 "D:\WORK\Project\Github\Holtel-MCU\Code\HT66FM5440\110V_hbridge\hbridge.c"
 222  011D  0F01        	mov a,1
 222  011E  0080     R  	mov _curr_state[0],a
 222  011F  1F00     R  	clr _curr_state[1]
 222  0120  2800     R  	jmp _L35
 222  0121              _L80:
"File: hbridge.c     Assembler  Version HGASM0202      Page 17

 228  0121              #line 228 "D:\WORK\Project\Github\Holtel-MCU\Code\HT66FM5440\110V_hbridge\hbridge.c"
 228  0121  2000     R  	call _Set_Motor_Brake
 228  0122              _L81:
 229  0122              #line 229 "D:\WORK\Project\Github\Holtel-MCU\Code\HT66FM5440\110V_hbridge\hbridge.c"
 229  0122  1F00     R  	clr _curr_state[0]
 229  0123  1F00     R  	clr _curr_state[1]
 229  0124              _L35:
 232  0124              #line 232 "D:\WORK\Project\Github\Holtel-MCU\Code\HT66FM5440\110V_hbridge\hbridge.c"
 232  0124              ;# 232 "D:\WORK\Project\Github\Holtel-MCU\Code\HT66FM5440\110V_hbridge\hbridge.c" 1
 232  0124  0001        	clr wdt
 233  0125              #line 233 "D:\WORK\Project\Github\Holtel-MCU\Code\HT66FM5440\110V_hbridge\hbridge.c"
 233  0125  2800     R  	jmp _L52
 233  0126  2800     R  	jmp $
 233  0127              _main endp
 233  0127              
 233  0127              @dummy endp
 233  0127              
 233  0127              #line 233 "D:\WORK\Project\Github\Holtel-MCU\Code\HT66FM5440\110V_hbridge\hbridge.c"
 233  0127              #pragma debug scope 1 1
 233  0127              public _ISR_TimeBase
 233  0127              #pragma debug scope 23 1
 485  0127              #line 485 "D:\WORK\Project\Github\Holtel-MCU\Code\HT66FM5440\110V_hbridge\hbridge.c"
 485  0000              @ISR_TimeBase_code .section at 60 'code'
 485  0000              ifdef INTERRUPT_DELAY
 485  0000  0000        	nop
 485  0001              endif
 485  0001  0080     E  	mov r1,a
 485  0002  070A        	mov a,status
 485  0003              ifndef INTERRUPT_DELAY
 485  0003              	mov r2,a
 485  0003              endif
 485  0003  2800     R  	jmp _ISR_TimeBase
 485  0004              #pragma debug scope 1 1
 485  0004              @dummy60 endp
 485  0004              #pragma debug scope 24 1
 485  0000              _ISR_TimeBase .section 'code'
 485  0000              _ISR_TimeBase proc
 485  0000              ifdef INTERRUPT_DELAY
 485  0000  0080     E  	mov r2,a
 485  0001              endif
 488  0001              #line 488 "D:\WORK\Project\Github\Holtel-MCU\Code\HT66FM5440\110V_hbridge\hbridge.c"
 488  0001              ;# 488 "D:\WORK\Project\Github\Holtel-MCU\Code\HT66FM5440\110V_hbridge\hbridge.c" 1
 488  0001  0001        	clr wdt
 491  0002              #line 491 "D:\WORK\Project\Github\Holtel-MCU\Code\HT66FM5440\110V_hbridge\hbridge.c"
 491  0002  3BA0        	snz [32].7
 491  0003  2800     R  	jmp _L92
 493  0004              #line 493 "D:\WORK\Project\Github\Holtel-MCU\Code\HT66FM5440\110V_hbridge\hbridge.c"
 493  0004  0700     R  	mov a,_cnt_1ms[0]
 493  0005  0500     R  	or a,_cnt_1ms[1]
 493  0006  3D0A        	sz z
 493  0007  2800     R  	jmp _L93
 494  0008              #line 494 "D:\WORK\Project\Github\Holtel-MCU\Code\HT66FM5440\110V_hbridge\hbridge.c"
 494  0008  0FFF        	mov a,255
 494  0009  0380     R  	addm a,_cnt_1ms[0]
 494  000A  0FFF        	mov a,255
 494  000B  1380     R  	adcm a,_cnt_1ms[1]
 494  000C              _L93:
 496  000C              #line 496 "D:\WORK\Project\Github\Holtel-MCU\Code\HT66FM5440\110V_hbridge\hbridge.c"
 496  000C  0700     R  	mov a,_cnt_debounce[0]
 496  000D  0500     R  	or a,_cnt_debounce[1]
"File: hbridge.c     Assembler  Version HGASM0202      Page 18

 496  000E  3D0A        	sz z
 496  000F  2800     R  	jmp _L94
 497  0010              #line 497 "D:\WORK\Project\Github\Holtel-MCU\Code\HT66FM5440\110V_hbridge\hbridge.c"
 497  0010  0FFF        	mov a,255
 497  0011  0380     R  	addm a,_cnt_debounce[0]
 497  0012  0FFF        	mov a,255
 497  0013  1380     R  	adcm a,_cnt_debounce[1]
 497  0014  2800     R  	jmp _L95
 497  0015              _L94:
 500  0015              #line 500 "D:\WORK\Project\Github\Holtel-MCU\Code\HT66FM5440\110V_hbridge\hbridge.c"
 500  0015  0F64        	mov a,100
 500  0016  0080     R  	mov _cnt_debounce[0],a
 500  0017  1F00     R  	clr _cnt_debounce[1]
 501  0018              #line 501 "D:\WORK\Project\Github\Holtel-MCU\Code\HT66FM5440\110V_hbridge\hbridge.c"
 501  0018  0700     R  	mov a,_status_key_now[0]
 501  0019  0080     R  	mov _status_key_old[0],a
 502  001A              #line 502 "D:\WORK\Project\Github\Holtel-MCU\Code\HT66FM5440\110V_hbridge\hbridge.c"
 502  001A  1F00     E  	clr rb
 502  001B  3D26        	sz [38].2
 502  001C  1480     E  	inc rb
 502  001D  0726        	mov a,[38]
 502  001E  0E01        	and a,1
 502  001F  0080     E  	mov ra,a
 502  0020  1F00     E  	clr rd
 502  0021  3CA6        	sz [38].1
 502  0022  1480     E  	inc rd
 502  0023  1F00     E  	clr rc
 502  0024  340A        	clr c
 502  0025  1A80     E  	rlc rb
 502  0026  1A80     E  	rlc rc
 502  0027  340A        	clr c
 502  0028  1A80     E  	rlc rb
 502  0029  1A80     E  	rlc rc
 502  002A  0700     E  	mov a,ra
 502  002B  0380     E  	addm a,ra
 502  002C  0700     E  	mov a,ra
 502  002D  0580     E  	orm a,rb
 502  002E  0700     E  	mov a,rd
 502  002F  0580     E  	orm a,rb
 502  0030  0100     E  	cpla rb
 502  0031  0080     R  	mov _status_key_now[0],a
 503  0032              #line 503 "D:\WORK\Project\Github\Holtel-MCU\Code\HT66FM5440\110V_hbridge\hbridge.c"
 503  0032  0700     R  	mov a,_status_key_now[0]
 503  0033  0200     R  	sub a,_status_key_old[0]
 503  0034  3D0A        	sz z
 503  0035  2800     R  	jmp _L96
 504  0036              #line 504 "D:\WORK\Project\Github\Holtel-MCU\Code\HT66FM5440\110V_hbridge\hbridge.c"
 504  0036  3000     R  	set _bKeyChange
 504  0037              _L96:
 506  0037              #line 506 "D:\WORK\Project\Github\Holtel-MCU\Code\HT66FM5440\110V_hbridge\hbridge.c"
 506  0037  0700     R  	mov a,_status_key_now[0]
 506  0038  0E07        	and a,7
 506  0039  0080     E  	mov ra,a
 506  003A  0700     E  	mov a,ra
 506  003B  0A02        	sub a,2
 506  003C  390A        	snz z
 506  003D  2800     R  	jmp _L97
 508  003E              #line 508 "D:\WORK\Project\Github\Holtel-MCU\Code\HT66FM5440\110V_hbridge\hbridge.c"
 508  003E  1F00     R  	clr _key[0]
 508  003F  1F00     R  	clr _key[1]
"File: hbridge.c     Assembler  Version HGASM0202      Page 19

 508  0040  2800     R  	jmp _L95
 508  0041              _L97:
 510  0041              #line 510 "D:\WORK\Project\Github\Holtel-MCU\Code\HT66FM5440\110V_hbridge\hbridge.c"
 510  0041  0700     R  	mov a,_status_key_now[0]
 510  0042  0E07        	and a,7
 510  0043  0080     E  	mov ra,a
 510  0044  1700     E  	sdza ra
 510  0045  2800     R  	jmp _L98
 512  0046              #line 512 "D:\WORK\Project\Github\Holtel-MCU\Code\HT66FM5440\110V_hbridge\hbridge.c"
 512  0046  0F01        	mov a,1
 512  0047  0080     R  	mov _key[0],a
 512  0048  1F00     R  	clr _key[1]
 512  0049  2800     R  	jmp _L95
 512  004A              _L98:
 519  004A              #line 519 "D:\WORK\Project\Github\Holtel-MCU\Code\HT66FM5440\110V_hbridge\hbridge.c"
 519  004A  0F02        	mov a,2
 519  004B  0080     R  	mov _key[0],a
 519  004C  1F00     R  	clr _key[1]
 519  004D              _L95:
 522  004D              #line 522 "D:\WORK\Project\Github\Holtel-MCU\Code\HT66FM5440\110V_hbridge\hbridge.c"
 522  004D  37A0        	clr [32].7
 522  004E              _L92:
 525  004E              #line 525 "D:\WORK\Project\Github\Holtel-MCU\Code\HT66FM5440\110V_hbridge\hbridge.c"
 525  004E  3AA0        	snz [32].5
 525  004F  2800     R  	jmp _L99
 527  0050              #line 527 "D:\WORK\Project\Github\Holtel-MCU\Code\HT66FM5440\110V_hbridge\hbridge.c"
 527  0050  396D        	snz [109].2
 527  0051  2800     R  	jmp _L99
 529  0052              #line 529 "D:\WORK\Project\Github\Holtel-MCU\Code\HT66FM5440\110V_hbridge\hbridge.c"
 529  0052  356D        	clr [109].2
 530  0053              #line 530 "D:\WORK\Project\Github\Holtel-MCU\Code\HT66FM5440\110V_hbridge\hbridge.c"
 530  0053  0771        	mov a,[113]
 530  0054  0080     R  	mov _ucRxData[0],a
 531  0055              #line 531 "D:\WORK\Project\Github\Holtel-MCU\Code\HT66FM5440\110V_hbridge\hbridge.c"
 531  0055  36A0        	clr [32].5
 532  0056              #line 532 "D:\WORK\Project\Github\Holtel-MCU\Code\HT66FM5440\110V_hbridge\hbridge.c"
 532  0056  3000     R  	set _bRxData
 532  0057              _L99:
 535  0057              #line 535 "D:\WORK\Project\Github\Holtel-MCU\Code\HT66FM5440\110V_hbridge\hbridge.c"
 535  0057  3798        	clr [24].7
 535  0058  0700     E  	mov a,r2
 535  0059  008A        	mov status,a
 535  005A  0700     E  	mov a,r1
 535  005B  0004        	reti
 535  005C              _ISR_TimeBase endp
 535  005C              
 535  005C              #line 535 "D:\WORK\Project\Github\Holtel-MCU\Code\HT66FM5440\110V_hbridge\hbridge.c"
 535  005C              #pragma debug scope 1 1
 535  005C              ___opoms equ [366]
 535  005C              ___opa0cal equ [368]
 535  005C              ___opcm equ [367]
 535  005C              ___cmpc equ [114]
 535  005C              ___mptc1 equ [75]
 535  005C              ___ocps equ [68]
 535  005C              public _Comparator_Init
 535  005C              #pragma debug scope 25 1
 546  005C              #line 546 "D:\WORK\Project\Github\Holtel-MCU\Code\HT66FM5440\110V_hbridge\hbridge.c"
 546  0000              _Comparator_Init .section 'code'
 546  0000              _Comparator_Init proc
 547  0000              #line 547 "D:\WORK\Project\Github\Holtel-MCU\Code\HT66FM5440\110V_hbridge\hbridge.c"
"File: hbridge.c     Assembler  Version HGASM0202      Page 20

 547  0000  0F43        	mov a,67
 547  0001  80EE 0001   	lmov [366],a
 548  0003              #line 548 "D:\WORK\Project\Github\Holtel-MCU\Code\HT66FM5440\110V_hbridge\hbridge.c"
 548  0003  0F10        	mov a,16
 548  0004  80F0 0001   	lmov [368],a
 550  0006              #line 550 "D:\WORK\Project\Github\Holtel-MCU\Code\HT66FM5440\110V_hbridge\hbridge.c"
 550  0006  0FC8        	mov a,200
 550  0007  80EF 0001   	lmov [367],a
 551  0009              #line 551 "D:\WORK\Project\Github\Holtel-MCU\Code\HT66FM5440\110V_hbridge\hbridge.c"
 551  0009  3072        	set [114].0
 552  000A              #line 552 "D:\WORK\Project\Github\Holtel-MCU\Code\HT66FM5440\110V_hbridge\hbridge.c"
 552  000A  31CB        	set [75].3
 553  000B              #line 553 "D:\WORK\Project\Github\Holtel-MCU\Code\HT66FM5440\110V_hbridge\hbridge.c"
 553  000B  344B        	clr [75].0
 554  000C              #line 554 "D:\WORK\Project\Github\Holtel-MCU\Code\HT66FM5440\110V_hbridge\hbridge.c"
 554  000C  304B        	set [75].0
 555  000D              #line 555 "D:\WORK\Project\Github\Holtel-MCU\Code\HT66FM5440\110V_hbridge\hbridge.c"
 555  000D  0F2A        	mov a,42
 555  000E  00C4        	mov [68],a
 556  000F              #line 556 "D:\WORK\Project\Github\Holtel-MCU\Code\HT66FM5440\110V_hbridge\hbridge.c"
 556  000F  3115        	set [21].2
 557  0010              #line 557 "D:\WORK\Project\Github\Holtel-MCU\Code\HT66FM5440\110V_hbridge\hbridge.c"
 557  0010  3695        	clr [21].5
 557  0011  0003        	ret
 557  0012              _Comparator_Init endp
 557  0012              #line 557 "D:\WORK\Project\Github\Holtel-MCU\Code\HT66FM5440\110V_hbridge\hbridge.c"
 557  0012              #pragma debug scope 1 1
 557  0012              public _ISR_OCP
 557  0012              #pragma debug scope 26 1
 564  0012              #line 564 "D:\WORK\Project\Github\Holtel-MCU\Code\HT66FM5440\110V_hbridge\hbridge.c"
 564  0000              @ISR_OCP_code .section at 8 'code'
 564  0000              ifdef INTERRUPT_DELAY
 564  0000  0000        	nop
 564  0001              endif
 564  0001  0080     E  	mov r1,a
 564  0002  070A        	mov a,status
 564  0003              ifndef INTERRUPT_DELAY
 564  0003              	mov r2,a
 564  0003              endif
 564  0003  2800     R  	jmp _ISR_OCP
 564  0004              #pragma debug scope 1 1
 564  0004              @dummy8 endp
 564  0004              #pragma debug scope 27 1
 564  0000              _ISR_OCP .section 'code'
 564  0000              _ISR_OCP proc
 564  0000              ifdef INTERRUPT_DELAY
 564  0000  0080     E  	mov r2,a
 564  0001              endif
 565  0001              #line 565 "D:\WORK\Project\Github\Holtel-MCU\Code\HT66FM5440\110V_hbridge\hbridge.c"
 565  0001  3695        	clr [21].5
 566  0002              #line 566 "D:\WORK\Project\Github\Holtel-MCU\Code\HT66FM5440\110V_hbridge\hbridge.c"
 566  0002  3000     R  	set _bOCP
 566  0003  0700     E  	mov a,r2
 566  0004  008A        	mov status,a
 566  0005  0700     E  	mov a,r1
 566  0006  0004        	reti
 566  0007              _ISR_OCP endp
 566  0007              
 566  0007              #line 566 "D:\WORK\Project\Github\Holtel-MCU\Code\HT66FM5440\110V_hbridge\hbridge.c"
 566  0007              #pragma debug scope 1 1
"File: hbridge.c     Assembler  Version HGASM0202      Page 21

 566  0007              public _pwm_stepdown_dt
 566  0000              @HCCINIT	.section 'data'
  89  0000              #line 89 "D:\WORK\Project\Github\Holtel-MCU\Code\HT66FM5440\110V_hbridge\hbridge.c"
  89  0000              @HCCINIT_pwm_stepdown_dt .section 'data'
  89  0000              _pwm_stepdown_dt label byte
  89  0000              #pragma debug variable 8 1 _pwm_stepdown_dt "pwm_stepdown_dt"
  89  0000              	db 0
  89  0000              @ROMDATA_BASE .section inpage 'code'
  89  0000              	db 0
  89  0001              @HCCINIT_pwm_stepdown_dt .section 'data'
  89  0001              public _pwm_stepup_dt
  89  0001              #line 89 "D:\WORK\Project\Github\Holtel-MCU\Code\HT66FM5440\110V_hbridge\hbridge.c"
  89  0000              @HCCINIT_pwm_stepup_dt .section 'data'
  89  0000              _pwm_stepup_dt label byte
  89  0000              #pragma debug variable 8 1 _pwm_stepup_dt "pwm_stepup_dt"
  89  0000              	db 0
  89  0001              @ROMDATA_BASE .section inpage 'code'
  89  0001              	db 0
  89  0001              @HCCINIT_pwm_stepup_dt .section 'data'
  89  0001              public _pwm_duty_max
  88  0001              #line 88 "D:\WORK\Project\Github\Holtel-MCU\Code\HT66FM5440\110V_hbridge\hbridge.c"
  88  0000              @HCCINIT_pwm_duty_max .section 'data'
  88  0000              _pwm_duty_max label byte
  88  0000              #pragma debug variable 12 1 _pwm_duty_max "pwm_duty_max"
  88  0000              	db 0
  88  0001              @ROMDATA_BASE .section inpage 'code'
  88  0001              	db 0
  88  0001              @HCCINIT_pwm_duty_max .section 'data'
  88  0001              	db 0
  88  0002              @ROMDATA_BASE .section inpage 'code'
  88  0002              	db 0
  88  0002              @HCCINIT_pwm_duty_max .section 'data'
  88  0002              public _max_duty
  88  0000              @crom	.section 'crom'
  87  0000              #line 87 "D:\WORK\Project\Github\Holtel-MCU\Code\HT66FM5440\110V_hbridge\hbridge.c"
  87  0000              @crom	.section	'crom'
  87  0000              _max_duty:
  87  0000              #pragma debug array 42 8 4 1
  87  0000              #pragma debug array 42 8 4 1
  87  0000              #pragma debug variable 42 1 _max_duty "max_duty"
  87  0000              	db 49
  87  0001              	db 98
  87  0001              	db -109
  87  0002              	db -60
  87  0002              public _bRxData
  87  0000              @HCCINIT	.section 'data'
  86  0000              #line 86 "D:\WORK\Project\Github\Holtel-MCU\Code\HT66FM5440\110V_hbridge\hbridge.c"
  86  0000              @BITDATASEC .section 'data'
  86  0000  00          _bRxData	dbit 0
  86  0001              #pragma debug variable 2 1 _bRxData "bRxData"
  86  0001              public _bKeyChange
  86  0001              #line 86 "D:\WORK\Project\Github\Holtel-MCU\Code\HT66FM5440\110V_hbridge\hbridge.c"
  86  0001              @BITDATASEC .section 'data'
  86  0000              _bKeyChange	dbit 0
  86  0001              #pragma debug variable 2 1 _bKeyChange "bKeyChange"
  86  0001              public _bTestStart
  86  0001              #line 86 "D:\WORK\Project\Github\Holtel-MCU\Code\HT66FM5440\110V_hbridge\hbridge.c"
  86  0001              @BITDATASEC .section 'data'
  86  0000              _bTestStart	dbit 0
  86  0001              #pragma debug variable 2 1 _bTestStart "bTestStart"
"File: hbridge.c     Assembler  Version HGASM0202      Page 22

  86  0001              public _bDIR
  86  0001              #line 86 "D:\WORK\Project\Github\Holtel-MCU\Code\HT66FM5440\110V_hbridge\hbridge.c"
  86  0001              @BITDATASEC .section 'data'
  86  0000              _bDIR	dbit 0
  86  0001              #pragma debug variable 2 1 _bDIR "bDIR"
  86  0001              public _bPauseDutyCnt
  86  0001              #line 86 "D:\WORK\Project\Github\Holtel-MCU\Code\HT66FM5440\110V_hbridge\hbridge.c"
  86  0000              @BITDATASEC1 .section 'data'
  86  0000  00          _bPauseDutyCnt	dbit 1
  86  0001              #pragma debug variable 2 1 _bPauseDutyCnt "bPauseDutyCnt"
  86  0001              public _bOVP
  86  0001              #line 86 "D:\WORK\Project\Github\Holtel-MCU\Code\HT66FM5440\110V_hbridge\hbridge.c"
  86  0001              @BITDATASEC .section 'data'
  86  0000              _bOVP	dbit 0
  86  0001              #pragma debug variable 2 1 _bOVP "bOVP"
  86  0001              public _bOCP
  86  0001              #line 86 "D:\WORK\Project\Github\Holtel-MCU\Code\HT66FM5440\110V_hbridge\hbridge.c"
  86  0001              @BITDATASEC .section 'data'
  86  0000              _bOCP	dbit 0
  86  0001              #pragma debug variable 2 1 _bOCP "bOCP"
  86  0001              public _ucRxData
  85  0001              #line 85 "D:\WORK\Project\Github\Holtel-MCU\Code\HT66FM5440\110V_hbridge\hbridge.c"
  85  0000              @HCCINIT_ucRxData .section 'data'
  85  0000              _ucRxData label byte
  85  0000              #pragma debug variable 8 1 _ucRxData "ucRxData"
  85  0000              	db 0
  85  0002              @ROMDATA_BASE .section inpage 'code'
  85  0002              	db 0
  85  0001              @HCCINIT_ucRxData .section 'data'
  85  0001              public _status_key_now
  84  0001              #line 84 "D:\WORK\Project\Github\Holtel-MCU\Code\HT66FM5440\110V_hbridge\hbridge.c"
  84  0000              @HCCINIT_status_key_now .section 'data'
  84  0000              _status_key_now label byte
  84  0000              #pragma debug variable 8 1 _status_key_now "status_key_now"
  84  0000              	db 0
  84  0003              @ROMDATA_BASE .section inpage 'code'
  84  0003              	db 0
  84  0001              @HCCINIT_status_key_now .section 'data'
  84  0001              public _status_key_old
  84  0001              #line 84 "D:\WORK\Project\Github\Holtel-MCU\Code\HT66FM5440\110V_hbridge\hbridge.c"
  84  0000              @HCCINIT_status_key_old .section 'data'
  84  0000              _status_key_old label byte
  84  0000              #pragma debug variable 8 1 _status_key_old "status_key_old"
  84  0000              	db -1
  84  0003              @ROMDATA_BASE .section inpage 'code'
  84  0003              	db -1
  84  0001              @HCCINIT_status_key_old .section 'data'
  84  0001              public _cnt_1ms
  83  0001              #line 83 "D:\WORK\Project\Github\Holtel-MCU\Code\HT66FM5440\110V_hbridge\hbridge.c"
  83  0000              @HCCINIT_cnt_1ms .section 'data'
  83  0000              _cnt_1ms label byte
  83  0000              #pragma debug variable 12 1 _cnt_1ms "cnt_1ms"
  83  0000              	db 0
  83  0004              @ROMDATA_BASE .section inpage 'code'
  83  0004              	db 0
  83  0001              @HCCINIT_cnt_1ms .section 'data'
  83  0001              	db 0
  83  0004              @ROMDATA_BASE .section inpage 'code'
  83  0004              	db 0
  83  0002              @HCCINIT_cnt_1ms .section 'data'
"File: hbridge.c     Assembler  Version HGASM0202      Page 23

  83  0002              public _cnt_debounce
  83  0002              #line 83 "D:\WORK\Project\Github\Holtel-MCU\Code\HT66FM5440\110V_hbridge\hbridge.c"
  83  0000              @HCCINIT_cnt_debounce .section 'data'
  83  0000              _cnt_debounce label byte
  83  0000              #pragma debug variable 12 1 _cnt_debounce "cnt_debounce"
  83  0000              	db 0
  83  0005              @ROMDATA_BASE .section inpage 'code'
  83  0005              	db 0
  83  0001              @HCCINIT_cnt_debounce .section 'data'
  83  0001              	db 0
  83  0005              @ROMDATA_BASE .section inpage 'code'
  83  0005              	db 0
  83  0002              @HCCINIT_cnt_debounce .section 'data'
  83  0002              public _cnt_pwm_inc
  83  0002              #line 83 "D:\WORK\Project\Github\Holtel-MCU\Code\HT66FM5440\110V_hbridge\hbridge.c"
  83  0000              @HCCINIT_cnt_pwm_inc .section 'data'
  83  0000              _cnt_pwm_inc label byte
  83  0000              #pragma debug variable 12 1 _cnt_pwm_inc "cnt_pwm_inc"
  83  0000              	db 0
  83  0006              @ROMDATA_BASE .section inpage 'code'
  83  0006              	db 0
  83  0001              @HCCINIT_cnt_pwm_inc .section 'data'
  83  0001              	db 0
  83  0006              @ROMDATA_BASE .section inpage 'code'
  83  0006              	db 0
  83  0002              @HCCINIT_cnt_pwm_inc .section 'data'
  83  0002              public _duty_now
  82  0002              #line 82 "D:\WORK\Project\Github\Holtel-MCU\Code\HT66FM5440\110V_hbridge\hbridge.c"
  82  0000              @HCCINIT_duty_now .section 'data'
  82  0000              _duty_now label byte
  82  0000              #pragma debug variable 12 1 _duty_now "duty_now"
  82  0000              	db 0
  82  0007              @ROMDATA_BASE .section inpage 'code'
  82  0007              	db 0
  82  0001              @HCCINIT_duty_now .section 'data'
  82  0001              	db 0
  82  0007              @ROMDATA_BASE .section inpage 'code'
  82  0007              	db 0
  82  0002              @HCCINIT_duty_now .section 'data'
  82  0002              public _cnt_hall_period
  81  0002              #line 81 "D:\WORK\Project\Github\Holtel-MCU\Code\HT66FM5440\110V_hbridge\hbridge.c"
  81  0000              @HCCINIT_cnt_hall_period .section 'data'
  81  0000              _cnt_hall_period label byte
  81  0000              #pragma debug variable 12 1 _cnt_hall_period "cnt_hall_period"
  81  0000              	db 0
  81  0008              @ROMDATA_BASE .section inpage 'code'
  81  0008              	db 0
  81  0001              @HCCINIT_cnt_hall_period .section 'data'
  81  0001              	db 0
  81  0008              @ROMDATA_BASE .section inpage 'code'
  81  0008              	db 0
  81  0002              @HCCINIT_cnt_hall_period .section 'data'
  78  0002              #line 78 "D:\WORK\Project\Github\Holtel-MCU\Code\HT66FM5440\110V_hbridge\hbridge.c"
  78  0002              public _key
  78  0000              @HCCINIT0_key .section 'data'
  78  0000  0002[       _key	db 2 dup(0)
            00
            ]
  78  0002              #pragma debug variable 12 1 _key "key"
  78  0002              
"File: hbridge.c     Assembler  Version HGASM0202      Page 24

  78  0000              @HCCINIT .section 'data'
  77  0000              #line 77 "D:\WORK\Project\Github\Holtel-MCU\Code\HT66FM5440\110V_hbridge\hbridge.c"
  77  0000              public _curr_state
  77  0000              @HCCINIT0_curr_state .section 'data'
  77  0000  0002[       _curr_state	db 2 dup(0)
            00
            ]
  77  0002              #pragma debug variable 12 1 _curr_state "curr_state"
  77  0002              
  77  0000              @HCCINIT .section 'data'
  77  0000              #pragma debug struct_end
  77  0000              #pragma debug struct_end
  77  0000              #pragma debug union_end
  77  0000              #pragma debug union_end
  77  0000              #pragma debug variable 44 1 ___intc0 "__intc0" 1
  77  0000              #pragma debug struct_end
  77  0000              #pragma debug struct_end
  77  0000              #pragma debug union_end
  77  0000              #pragma debug union_end
  77  0000              #pragma debug variable 46 1 ___intc2 "__intc2" 1
  77  0000              #pragma debug struct_end
  77  0000              #pragma debug struct_end
  77  0000              #pragma debug union_end
  77  0000              #pragma debug union_end
  77  0000              #pragma debug variable 48 1 ___intc3 "__intc3" 1
  77  0000              #pragma debug struct_end
  77  0000              #pragma debug struct_end
  77  0000              #pragma debug union_end
  77  0000              #pragma debug union_end
  77  0000              #pragma debug variable 50 1 ___mfi5 "__mfi5" 1
  77  0000              #pragma debug struct_end
  77  0000              #pragma debug struct_end
  77  0000              #pragma debug union_end
  77  0000              #pragma debug union_end
  77  0000              #pragma debug variable 52 1 ___mfi7 "__mfi7" 1
  77  0000              #pragma debug struct_end
  77  0000              #pragma debug struct_end
  77  0000              #pragma debug union_end
  77  0000              #pragma debug union_end
  77  0000              #pragma debug variable 54 1 ___papu "__papu" 1
  77  0000              #pragma debug struct_end
  77  0000              #pragma debug struct_end
  77  0000              #pragma debug union_end
  77  0000              #pragma debug union_end
  77  0000              #pragma debug variable 56 1 ___pa "__pa" 1
  77  0000              #pragma debug struct_end
  77  0000              #pragma debug struct_end
  77  0000              #pragma debug union_end
  77  0000              #pragma debug union_end
  77  0000              #pragma debug variable 58 1 ___pac "__pac" 1
  77  0000              #pragma debug struct_end
  77  0000              #pragma debug struct_end
  77  0000              #pragma debug union_end
  77  0000              #pragma debug union_end
  77  0000              #pragma debug variable 60 1 ___pbpu "__pbpu" 1
  77  0000              #pragma debug struct_end
  77  0000              #pragma debug struct_end
  77  0000              #pragma debug union_end
  77  0000              #pragma debug union_end
  77  0000              #pragma debug variable 62 1 ___pb "__pb" 1
"File: hbridge.c     Assembler  Version HGASM0202      Page 25

  77  0000              #pragma debug struct_end
  77  0000              #pragma debug struct_end
  77  0000              #pragma debug union_end
  77  0000              #pragma debug union_end
  77  0000              #pragma debug variable 64 1 ___pbc "__pbc" 1
  77  0000              #pragma debug struct_end
  77  0000              #pragma debug struct_end
  77  0000              #pragma debug union_end
  77  0000              #pragma debug union_end
  77  0000              #pragma debug variable 66 1 ___pc "__pc" 1
  77  0000              #pragma debug struct_end
  77  0000              #pragma debug struct_end
  77  0000              #pragma debug union_end
  77  0000              #pragma debug union_end
  77  0000              #pragma debug variable 68 1 ___pcc "__pcc" 1
  77  0000              #pragma debug struct_end
  77  0000              #pragma debug struct_end
  77  0000              #pragma debug union_end
  77  0000              #pragma debug union_end
  77  0000              #pragma debug variable 70 1 ___ocps "__ocps" 1
  77  0000              #pragma debug struct_end
  77  0000              #pragma debug struct_end
  77  0000              #pragma debug union_end
  77  0000              #pragma debug union_end
  77  0000              #pragma debug variable 72 1 ___integ0 "__integ0" 1
  77  0000              #pragma debug struct_end
  77  0000              #pragma debug struct_end
  77  0000              #pragma debug union_end
  77  0000              #pragma debug union_end
  77  0000              #pragma debug variable 74 1 ___hdcr "__hdcr" 1
  77  0000              #pragma debug struct_end
  77  0000              #pragma debug struct_end
  77  0000              #pragma debug union_end
  77  0000              #pragma debug union_end
  77  0000              #pragma debug variable 76 1 ___hdcd "__hdcd" 1
  77  0000              #pragma debug struct_end
  77  0000              #pragma debug struct_end
  77  0000              #pragma debug union_end
  77  0000              #pragma debug union_end
  77  0000              #pragma debug variable 78 1 ___mptc1 "__mptc1" 1
  77  0000              #pragma debug variable 8 1 ___dutr3l "__dutr3l" 1
  77  0000              #pragma debug variable 8 1 ___dutr3h "__dutr3h" 1
  77  0000              #pragma debug struct_end
  77  0000              #pragma debug struct_end
  77  0000              #pragma debug union_end
  77  0000              #pragma debug union_end
  77  0000              #pragma debug variable 80 1 ___pwmc "__pwmc" 1
  77  0000              #pragma debug variable 8 1 ___dutr0l "__dutr0l" 1
  77  0000              #pragma debug variable 8 1 ___dutr0h "__dutr0h" 1
  77  0000              #pragma debug variable 8 1 ___prdrl "__prdrl" 1
  77  0000              #pragma debug variable 8 1 ___prdrh "__prdrh" 1
  77  0000              #pragma debug struct_end
  77  0000              #pragma debug struct_end
  77  0000              #pragma debug union_end
  77  0000              #pragma debug union_end
  77  0000              #pragma debug variable 82 1 ___pwmme "__pwmme" 1
  77  0000              #pragma debug struct_end
  77  0000              #pragma debug struct_end
  77  0000              #pragma debug union_end
  77  0000              #pragma debug union_end
"File: hbridge.c     Assembler  Version HGASM0202      Page 26

  77  0000              #pragma debug variable 84 1 ___pwmmd "__pwmmd" 1
  77  0000              #pragma debug struct_end
  77  0000              #pragma debug struct_end
  77  0000              #pragma debug union_end
  77  0000              #pragma debug union_end
  77  0000              #pragma debug variable 86 1 ___mcf "__mcf" 1
  77  0000              #pragma debug struct_end
  77  0000              #pragma debug struct_end
  77  0000              #pragma debug union_end
  77  0000              #pragma debug union_end
  77  0000              #pragma debug variable 88 1 ___dts "__dts" 1
  77  0000              #pragma debug struct_end
  77  0000              #pragma debug struct_end
  77  0000              #pragma debug union_end
  77  0000              #pragma debug union_end
  77  0000              #pragma debug variable 90 1 ___plc "__plc" 1
  77  0000              #pragma debug struct_end
  77  0000              #pragma debug struct_end
  77  0000              #pragma debug union_end
  77  0000              #pragma debug union_end
  77  0000              #pragma debug variable 92 1 ___usr "__usr" 1
  77  0000              #pragma debug struct_end
  77  0000              #pragma debug struct_end
  77  0000              #pragma debug union_end
  77  0000              #pragma debug union_end
  77  0000              #pragma debug variable 94 1 ___ucr1 "__ucr1" 1
  77  0000              #pragma debug struct_end
  77  0000              #pragma debug struct_end
  77  0000              #pragma debug union_end
  77  0000              #pragma debug union_end
  77  0000              #pragma debug variable 96 1 ___ucr2 "__ucr2" 1
  77  0000              #pragma debug struct_end
  77  0000              #pragma debug struct_end
  77  0000              #pragma debug union_end
  77  0000              #pragma debug union_end
  77  0000              #pragma debug variable 98 1 ___brg "__brg" 1
  77  0000              #pragma debug struct_end
  77  0000              #pragma debug struct_end
  77  0000              #pragma debug union_end
  77  0000              #pragma debug union_end
  77  0000              #pragma debug variable 100 1 ___txr_rxr "__txr_rxr" 1
  77  0000              #pragma debug struct_end
  77  0000              #pragma debug struct_end
  77  0000              #pragma debug union_end
  77  0000              #pragma debug union_end
  77  0000              #pragma debug variable 102 1 ___cmpc "__cmpc" 1
  77  0000              #pragma debug struct_end
  77  0000              #pragma debug struct_end
  77  0000              #pragma debug union_end
  77  0000              #pragma debug union_end
  77  0000              #pragma debug variable 104 1 ___tbc "__tbc" 1
  77  0000              #pragma debug struct_end
  77  0000              #pragma debug struct_end
  77  0000              #pragma debug union_end
  77  0000              #pragma debug union_end
  77  0000              #pragma debug variable 106 1 ___ptm1c0 "__ptm1c0" 1
  77  0000              #pragma debug struct_end
  77  0000              #pragma debug struct_end
  77  0000              #pragma debug union_end
  77  0000              #pragma debug union_end
"File: hbridge.c     Assembler  Version HGASM0202      Page 27

  77  0000              #pragma debug variable 108 1 ___ptm1c1 "__ptm1c1" 1
  77  0000              #pragma debug variable 8 1 ___ptm1al "__ptm1al" 1
  77  0000              #pragma debug variable 8 1 ___ptm1ah "__ptm1ah" 1
  77  0000              #pragma debug struct_end
  77  0000              #pragma debug struct_end
  77  0000              #pragma debug union_end
  77  0000              #pragma debug union_end
  77  0000              #pragma debug variable 110 1 ___pwmcs "__pwmcs" 1
  77  0000              #pragma debug struct_end
  77  0000              #pragma debug struct_end
  77  0000              #pragma debug union_end
  77  0000              #pragma debug union_end
  77  0000              #pragma debug variable 112 1 ___hdct0 "__hdct0" 1
  77  0000              #pragma debug struct_end
  77  0000              #pragma debug struct_end
  77  0000              #pragma debug union_end
  77  0000              #pragma debug union_end
  77  0000              #pragma debug variable 114 1 ___hdct1 "__hdct1" 1
  77  0000              #pragma debug struct_end
  77  0000              #pragma debug struct_end
  77  0000              #pragma debug union_end
  77  0000              #pragma debug union_end
  77  0000              #pragma debug variable 116 1 ___hdct2 "__hdct2" 1
  77  0000              #pragma debug struct_end
  77  0000              #pragma debug struct_end
  77  0000              #pragma debug union_end
  77  0000              #pragma debug union_end
  77  0000              #pragma debug variable 118 1 ___hdct3 "__hdct3" 1
  77  0000              #pragma debug struct_end
  77  0000              #pragma debug struct_end
  77  0000              #pragma debug union_end
  77  0000              #pragma debug union_end
  77  0000              #pragma debug variable 120 1 ___hdct4 "__hdct4" 1
  77  0000              #pragma debug struct_end
  77  0000              #pragma debug struct_end
  77  0000              #pragma debug union_end
  77  0000              #pragma debug union_end
  77  0000              #pragma debug variable 122 1 ___hdct5 "__hdct5" 1
  77  0000              #pragma debug struct_end
  77  0000              #pragma debug struct_end
  77  0000              #pragma debug union_end
  77  0000              #pragma debug union_end
  77  0000              #pragma debug variable 124 1 ___hdct6 "__hdct6" 1
  77  0000              #pragma debug struct_end
  77  0000              #pragma debug struct_end
  77  0000              #pragma debug union_end
  77  0000              #pragma debug union_end
  77  0000              #pragma debug variable 126 1 ___hdct7 "__hdct7" 1
  77  0000              #pragma debug struct_end
  77  0000              #pragma debug struct_end
  77  0000              #pragma debug union_end
  77  0000              #pragma debug union_end
  77  0000              #pragma debug variable 128 1 ___hdct8 "__hdct8" 1
  77  0000              #pragma debug struct_end
  77  0000              #pragma debug struct_end
  77  0000              #pragma debug union_end
  77  0000              #pragma debug union_end
  77  0000              #pragma debug variable 130 1 ___hdct9 "__hdct9" 1
  77  0000              #pragma debug struct_end
  77  0000              #pragma debug struct_end
"File: hbridge.c     Assembler  Version HGASM0202      Page 28

  77  0000              #pragma debug union_end
  77  0000              #pragma debug union_end
  77  0000              #pragma debug variable 132 1 ___hdct10 "__hdct10" 1
  77  0000              #pragma debug struct_end
  77  0000              #pragma debug struct_end
  77  0000              #pragma debug union_end
  77  0000              #pragma debug union_end
  77  0000              #pragma debug variable 134 1 ___hdct11 "__hdct11" 1
  77  0000              #pragma debug struct_end
  77  0000              #pragma debug struct_end
  77  0000              #pragma debug union_end
  77  0000              #pragma debug union_end
  77  0000              #pragma debug variable 136 1 ___opoms "__opoms" 1
  77  0000              #pragma debug variable 8 1 ___opcm "__opcm" 1
  77  0000              #pragma debug struct_end
  77  0000              #pragma debug struct_end
  77  0000              #pragma debug union_end
  77  0000              #pragma debug union_end
  77  0000              #pragma debug variable 138 1 ___opa0cal "__opa0cal" 1
  77  0000              #pragma debug struct_end
  77  0000              #pragma debug struct_end
  77  0000              #pragma debug union_end
  77  0000              #pragma debug union_end
  77  0000              #pragma debug variable 140 1 ___paps0 "__paps0" 1
  77  0000              #pragma debug struct_end
  77  0000              #pragma debug struct_end
  77  0000              #pragma debug union_end
  77  0000              #pragma debug union_end
  77  0000              #pragma debug variable 142 1 ___pcps0 "__pcps0" 1
  77  0000              #pragma debug struct_end
  77  0000              #pragma debug struct_end
  77  0000              #pragma debug union_end
  77  0000              #pragma debug union_end
  77  0000              #pragma debug variable 144 1 ___pcps1 "__pcps1" 1
  77  0000              #pragma debug struct_end
  77  0000              #pragma debug struct_end
  77  0000              #pragma debug union_end
  77  0000              #pragma debug union_end
  77  0000              #pragma debug variable 146 1 ___pdps0 "__pdps0" 1
  77  0000              extern r1:byte
  77  0000              extern r2:byte
 106  0000              #line 106 "D:\WORK\Project\Github\Holtel-MCU\Code\HT66FM5440\110V_hbridge\hbridge.c"
 106  0000              @code .section at 0 'code'
 106  0000  2800     R  	jmp _main_startup1
 106  0001              
 106  0001              
 106  0001              ; 
 106  0001              ; Generated by holtek-gcc v3.19, Fri Aug 23 18:43:12 2019
 106  0001              ; Rebuild 115
 106  0001              ; end of file


        0 Errors, 0